 sihlviewer

 Timestamp is 559aa56d (Mon Jul 06 12:57:33 2015)

 Preferred load address is 00400000

 Start         Length     Name                   Class
 0001:00000000 000070fdH .text$di                CODE
 0001:00007100 00155705H .text$mn                CODE
 0001:0015c810 000059b6H .text$x                 CODE
 0001:001621d0 00001ea3H .text$yd                CODE
 0002:00000000 00000104H .CRT$XCA                DATA
 0002:00000104 00000104H .CRT$XCC                DATA
 0002:00000208 0000047eH .CRT$XCU                DATA
 0002:00000688 00000104H .CRT$XCZ                DATA
 0002:0000078c 00000104H .CRT$XIA                DATA
 0002:00000890 00000113H .CRT$XIC                DATA
 0002:000009a4 00000104H .CRT$XIY                DATA
 0002:00000aa8 00000104H .CRT$XIZ                DATA
 0002:00000bac 00000104H .CRT$XPA                DATA
 0002:00000cb0 00000109H .CRT$XPX                DATA
 0002:00000dbc 00000104H .CRT$XPXA               DATA
 0002:00000ec0 00000104H .CRT$XPZ                DATA
 0002:00000fc4 00000104H .CRT$XTA                DATA
 0002:000010c8 00000104H .CRT$XTZ                DATA
 0002:000011d0 0002b33dH .rdata                  DATA
 0002:0002c510 000001c0H .rdata$debug            DATA
 0002:0002c6d0 00001628H .rdata$r                DATA
 0002:0002dd00 000005b4H .rdata$sxdata           DATA
 0002:0002e2b4 00000104H .rtc$IAA                DATA
 0002:0002e3b8 0000010eH .rtc$IMZ                DATA
 0002:0002e4c8 00000104H .rtc$IZZ                DATA
 0002:0002e5cc 00000104H .rtc$TAA                DATA
 0002:0002e6d0 0000010eH .rtc$TMZ                DATA
 0002:0002e7e0 00000104H .rtc$TZZ                DATA
 0002:0002e8e8 00006145H .xdata$x                DATA
 0002:00034a2d 00000000H .edata                  DATA
 0003:00000000 000057fdH .data                   DATA
 0003:00005800 000009adH .data$r                 DATA
 0003:000061c0 0005fe84H .bss                    DATA
 0004:00000000 00000978H .idata$5                DATA
 0004:00000978 000000dcH .idata$2                DATA
 0004:00000a54 00000014H .idata$3                DATA
 0004:00000a68 00000978H .idata$4                DATA
 0004:000013e0 00001ee8H .idata$6                DATA
 0005:00000000 00001656H .rsrc$01                DATA
 0005:00001660 00055360H .rsrc$02                DATA

  Address         Publics by Value              Rva+Base       Lib:Object

 0000:00000000       ___guard_fids_count        00000000     <absolute>
 0000:00000000       ___guard_fids_table        00000000     <absolute>
 0000:00000000       ___guard_flags             00000000     <absolute>
 0000:00000000       __except_list              00000000     <absolute>
 0000:000000fb       ___safe_se_handler_count   000000fb     <absolute>
 0000:00000000       ___ImageBase               00400000     <linker-defined>
 0001:00007100       ?DoGetBkGndBitmap@@YAPAUHBITMAP__@@I@Z 00408100 f   AboutBox.obj
 0001:00007170       ?DoSDKEraseBkGnd@@YAHQAUHDC__@@K@Z 00408170 f   AboutBox.obj
 0001:00007360       ?ShowAboutBox@@YAXXZ       00408360 f   AboutBox.obj
 0001:00007430       ??$_Allocate@D@std@@YAPADIPAD@Z 00408430 f i AboutBox.obj
 0001:00007480       ??$_Allocate@U_Container_proxy@std@@@std@@YAPAU_Container_proxy@0@IPAU10@@Z 00408480 f i AboutBox.obj
 0001:000074d0       ??$_Debug_pointer@D@std@@YAXPBDPB_WI@Z 004084d0 f i AboutBox.obj
 0001:00007500       ??$addressof@D@std@@YAPADAAD@Z 00408500 f i AboutBox.obj
 0001:00007510       ??$construct@PADAAPAD@?$_Wrap_alloc@V?$allocator@D@std@@@std@@QAEXPAPADAAPAD@Z 00408510 f i AboutBox.obj
 0001:00007550       ??$construct@PADAAPAD@?$allocator@D@std@@QAEXPAPADAAPAD@Z 00408550 f i AboutBox.obj
 0001:00007600       ??$construct@PADAAPAD@?$allocator_traits@V?$allocator@D@std@@@std@@SAXAAV?$allocator@D@1@PAPADAAPAD@Z 00408600 f i AboutBox.obj
 0001:00007630       ??$construct@U_Container_proxy@std@@U12@@?$allocator@U_Container_proxy@std@@@std@@QAEXPAU_Container_proxy@1@$$QAU21@@Z 00408630 f i AboutBox.obj
 0001:000076e0       ??$destroy@PAD@?$_Wrap_alloc@V?$allocator@D@std@@@std@@QAEXPAPAD@Z 004086e0 f i AboutBox.obj
 0001:00007710       ??$destroy@PAD@?$allocator@D@std@@QAEXPAPAD@Z 00408710 f i AboutBox.obj
 0001:00007720       ??$destroy@PAD@?$allocator_traits@V?$allocator@D@std@@@std@@SAXAAV?$allocator@D@1@PAPAD@Z 00408720 f i AboutBox.obj
 0001:00007740       ??$destroy@U_Container_proxy@std@@@?$allocator@U_Container_proxy@std@@@std@@QAEXPAU_Container_proxy@1@@Z 00408740 f i AboutBox.obj
 0001:00007750       ??$forward@AAPAD@std@@YAAAPADAAPAD@Z 00408750 f i AboutBox.obj
 0001:00007760       ??$forward@U_Container_proxy@std@@@std@@YA$$QAU_Container_proxy@0@AAU10@@Z 00408760 f i AboutBox.obj
 0001:00007770       ??0?$_String_alloc@$0A@U?$_String_base_types@DV?$allocator@D@std@@@std@@@std@@QAE@ABV?$allocator@D@1@@Z 00408770 f i AboutBox.obj
 0001:000077e0       ??0?$_String_val@U?$_Simple_types@D@std@@@std@@QAE@XZ 004087e0 f i AboutBox.obj
 0001:00007820       ??0?$_Wrap_alloc@V?$allocator@D@std@@@std@@QAE@XZ 00408820 f i AboutBox.obj
 0001:00007840       ??0?$allocator@D@std@@QAE@XZ 00408840 f i AboutBox.obj
 0001:00007860       ??0?$allocator@U_Container_proxy@std@@@std@@QAE@XZ 00408860 f i AboutBox.obj
 0001:00007880       ??0?$basic_string@DU?$char_traits@D@std@@V?$allocator@D@2@@std@@QAE@PBD@Z 00408880 f i AboutBox.obj
 0001:00007910       ??0_Container_base12@std@@QAE@XZ 00408910 f i AboutBox.obj
 0001:00007930       ??0_Container_proxy@std@@QAE@XZ 00408930 f i AboutBox.obj
 0001:00007960       ??0_Generic_error_category@std@@QAE@XZ 00408960 f i AboutBox.obj
 0001:00007990       ??0_Ignore@std@@QAE@XZ     00408990 f i AboutBox.obj
 0001:000079b0       ??0_Iostream_error_category@std@@QAE@XZ 004089b0 f i AboutBox.obj
 0001:000079e0       ??0_System_error_category@std@@QAE@XZ 004089e0 f i AboutBox.obj
 0001:00007a10       ??0error_category@std@@QAE@XZ 00408a10 f i AboutBox.obj
 0001:00007a30       ??0error_condition@std@@QAE@HABVerror_category@1@@Z 00408a30 f i AboutBox.obj
 0001:00007a60       ??0id@locale@std@@QAE@I@Z  00408a60 f i AboutBox.obj
 0001:00007a80       ??1?$_String_alloc@$0A@U?$_String_base_types@DV?$allocator@D@std@@@std@@@std@@QAE@XZ 00408a80 f i AboutBox.obj
 0001:00007ab0       ??1?$_String_val@U?$_Simple_types@D@std@@@std@@QAE@XZ 00408ab0 f i AboutBox.obj
 0001:00007ad0       ??1_Container_base12@std@@QAE@XZ 00408ad0 f i AboutBox.obj
 0001:00007af0       ??1_Generic_error_category@std@@UAE@XZ 00408af0 f i AboutBox.obj
 0001:00007b10       ??1_Iostream_error_category@std@@UAE@XZ 00408b10 f i AboutBox.obj
 0001:00007b30       ??1_System_error_category@std@@UAE@XZ 00408b30 f i AboutBox.obj
 0001:00007b50       ??1error_category@std@@UAE@XZ 00408b50 f i AboutBox.obj
 0001:00007b70       ??2@YAPAXIPAX@Z            00408b70 f i AboutBox.obj
 0001:00007b80       ??3@YAXPAX0@Z              00408b80 f i AboutBox.obj
 0001:00007b90       ??8error_category@std@@QBE_NABV01@@Z 00408b90 f i AboutBox.obj
 0001:00007bd0       ??8error_condition@std@@QBE_NABV01@@Z 00408bd0 f i AboutBox.obj
 0001:00007c40       ??_E_Generic_error_category@std@@UAEPAXI@Z 00408c40 f i AboutBox.obj
 0001:00007c40       ??_G_Generic_error_category@std@@UAEPAXI@Z 00408c40 f i AboutBox.obj
 0001:00007c80       ??_G_Iostream_error_category@std@@UAEPAXI@Z 00408c80 f i AboutBox.obj
 0001:00007c80       ??_E_Iostream_error_category@std@@UAEPAXI@Z 00408c80 f i AboutBox.obj
 0001:00007cc0       ??_E_System_error_category@std@@UAEPAXI@Z 00408cc0 f i AboutBox.obj
 0001:00007cc0       ??_G_System_error_category@std@@UAEPAXI@Z 00408cc0 f i AboutBox.obj
 0001:00007d00       ??_Eerror_category@std@@UAEPAXI@Z 00408d00 f i AboutBox.obj
 0001:00007d00       ??_Gerror_category@std@@UAEPAXI@Z 00408d00 f i AboutBox.obj
 0001:00007d40       ?_Alloc_proxy@?$_String_alloc@$0A@U?$_String_base_types@DV?$allocator@D@std@@@std@@@std@@QAEXXZ 00408d40 f i AboutBox.obj
 0001:00007da0       ?_Copy@?$basic_string@DU?$char_traits@D@std@@V?$allocator@D@2@@std@@QAEXII@Z 00408da0 f i AboutBox.obj
 0001:00007fd0       ?_Eos@?$basic_string@DU?$char_traits@D@std@@V?$allocator@D@2@@std@@QAEXI@Z 00408fd0 f i AboutBox.obj
 0001:00008020       ?_Free_proxy@?$_String_alloc@$0A@U?$_String_base_types@DV?$allocator@D@std@@@std@@@std@@QAEXXZ 00409020 f i AboutBox.obj
 0001:00008080       ?_Getal@?$_String_alloc@$0A@U?$_String_base_types@DV?$allocator@D@std@@@std@@@std@@QBE?AU?$_Wrap_alloc@V?$allocator@D@std@@@2@XZ 00409080 f i AboutBox.obj
 0001:000080a0       ?_Grow@?$basic_string@DU?$char_traits@D@std@@V?$allocator@D@2@@std@@QAE_NI_N@Z 004090a0 f i AboutBox.obj
 0001:00008170       ?_Inside@?$basic_string@DU?$char_traits@D@std@@V?$allocator@D@2@@std@@QAE_NPBD@Z 00409170 f i AboutBox.obj
 0001:000081c0       ?_Myptr@?$_String_val@U?$_Simple_types@D@std@@@std@@QAEPADXZ 004091c0 f i AboutBox.obj
 0001:00008210       ?_Myptr@?$_String_val@U?$_Simple_types@D@std@@@std@@QBEPBDXZ 00409210 f i AboutBox.obj
 0001:00008260       ?_Orphan_all@_Container_base12@std@@QAEXXZ 00409260 f i AboutBox.obj
 0001:000082e0       ?_Tidy@?$basic_string@DU?$char_traits@D@std@@V?$allocator@D@2@@std@@QAEX_NI@Z 004092e0 f i AboutBox.obj
 0001:000083b0       ?_Xlen@?$basic_string@DU?$char_traits@D@std@@V?$allocator@D@2@@std@@QBEXXZ 004093b0 f i AboutBox.obj
 0001:000083d0       ?_Xran@?$basic_string@DU?$char_traits@D@std@@V?$allocator@D@2@@std@@QBEXXZ 004093d0 f i AboutBox.obj
 0001:000083f0       ?allocate@?$_Wrap_alloc@V?$allocator@D@std@@@std@@QAEPADI@Z 004093f0 f i AboutBox.obj
 0001:00008410       ?allocate@?$allocator@D@std@@QAEPADI@Z 00409410 f i AboutBox.obj
 0001:00008440       ?allocate@?$allocator@U_Container_proxy@std@@@std@@QAEPAU_Container_proxy@2@I@Z 00409440 f i AboutBox.obj
 0001:00008470       ?assign@?$basic_string@DU?$char_traits@D@std@@V?$allocator@D@2@@std@@QAEAAV12@ABV12@II@Z 00409470 f i AboutBox.obj
 0001:00008550       ?assign@?$basic_string@DU?$char_traits@D@std@@V?$allocator@D@2@@std@@QAEAAV12@PBD@Z 00409550 f i AboutBox.obj
 0001:000085a0       ?assign@?$basic_string@DU?$char_traits@D@std@@V?$allocator@D@2@@std@@QAEAAV12@PBDI@Z 004095a0 f i AboutBox.obj
 0001:00008660       ?assign@?$char_traits@D@std@@SAXAADABD@Z 00409660 f i AboutBox.obj
 0001:00008680       ?category@error_code@std@@QBEABVerror_category@2@XZ 00409680 f i AboutBox.obj
 0001:000086a0       ?category@error_condition@std@@QBEABVerror_category@2@XZ 004096a0 f i AboutBox.obj
 0001:000086c0       ?copy@?$char_traits@D@std@@SAPADPADPBDI@Z 004096c0 f i AboutBox.obj
 0001:00008700       ?deallocate@?$_Wrap_alloc@V?$allocator@D@std@@@std@@QAEXPADI@Z 00409700 f i AboutBox.obj
 0001:00008730       ?deallocate@?$allocator@D@std@@QAEXPADI@Z 00409730 f i AboutBox.obj
 0001:00008750       ?deallocate@?$allocator@U_Container_proxy@std@@@std@@QAEXPAU_Container_proxy@2@I@Z 00409750 f i AboutBox.obj
 0001:00008770       ?default_error_condition@_System_error_category@std@@UBE?AVerror_condition@2@H@Z 00409770 f i AboutBox.obj
 0001:000087d0       ?default_error_condition@error_category@std@@UBE?AVerror_condition@2@H@Z 004097d0 f i AboutBox.obj
 0001:00008800       ?equivalent@error_category@std@@UBE_NABVerror_code@2@H@Z 00409800 f i AboutBox.obj
 0001:00008860       ?equivalent@error_category@std@@UBE_NHABVerror_condition@2@@Z 00409860 f i AboutBox.obj
 0001:000088a0       ?erase@?$basic_string@DU?$char_traits@D@std@@V?$allocator@D@2@@std@@QAEAAV12@I@Z 004098a0 f i AboutBox.obj
 0001:000088e0       ?erase@?$basic_string@DU?$char_traits@D@std@@V?$allocator@D@2@@std@@QAEAAV12@II@Z 004098e0 f i AboutBox.obj
 0001:00008990       ?generic_category@std@@YAABVerror_category@1@XZ 00409990 f i AboutBox.obj
 0001:000089a0       ?length@?$char_traits@D@std@@SAIPBD@Z 004099a0 f i AboutBox.obj
 0001:000089e0       ?max_size@?$_Wrap_alloc@V?$allocator@D@std@@@std@@QBEIXZ 004099e0 f i AboutBox.obj
 0001:00008a00       ?max_size@?$allocator@D@std@@QBEIXZ 00409a00 f i AboutBox.obj
 0001:00008a20       ?max_size@?$allocator_traits@V?$allocator@D@std@@@std@@SAIABV?$allocator@D@2@@Z 00409a20 f i AboutBox.obj
 0001:00008a30       ?max_size@?$basic_string@DU?$char_traits@D@std@@V?$allocator@D@2@@std@@QBEIXZ 00409a30 f i AboutBox.obj
 0001:00008a80       ?message@_Generic_error_category@std@@UBE?AV?$basic_string@DU?$char_traits@D@std@@V?$allocator@D@2@@2@H@Z 00409a80 f i AboutBox.obj
 0001:00008af0       ?message@_Iostream_error_category@std@@UBE?AV?$basic_string@DU?$char_traits@D@std@@V?$allocator@D@2@@2@H@Z 00409af0 f i AboutBox.obj
 0001:00008b60       ?message@_System_error_category@std@@UBE?AV?$basic_string@DU?$char_traits@D@std@@V?$allocator@D@2@@2@H@Z 00409b60 f i AboutBox.obj
 0001:00008bd0       ?move@?$char_traits@D@std@@SAPADPADPBDI@Z 00409bd0 f i AboutBox.obj
 0001:00008c10       ?name@_Generic_error_category@std@@UBEPBDXZ 00409c10 f i AboutBox.obj
 0001:00008c30       ?name@_Iostream_error_category@std@@UBEPBDXZ 00409c30 f i AboutBox.obj
 0001:00008c50       ?name@_System_error_category@std@@UBEPBDXZ 00409c50 f i AboutBox.obj
 0001:00008c70       ?size@?$basic_string@DU?$char_traits@D@std@@V?$allocator@D@2@@std@@QBEIXZ 00409c70 f i AboutBox.obj
 0001:00008c90       ?system_category@std@@YAABVerror_category@1@XZ 00409c90 f i AboutBox.obj
 0001:00008ca0       ?value@error_code@std@@QBEHXZ 00409ca0 f i AboutBox.obj
 0001:00008cc0       ?value@error_condition@std@@QBEHXZ 00409cc0 f i AboutBox.obj
 0001:00008ce0       _hypot                     00409ce0 f i AboutBox.obj
 0001:00008d10       ??0AccelKeys@@QAE@XZ       00409d10 f   AccelKeys.obj
 0001:00008ff0       ?TranslateAccelKeys@AccelKeys@@QAE_NPAUtagMSG@@@Z 00409ff0 f   AccelKeys.obj
 0001:00009040       ??1AccelKeys@@UAE@XZ       0040a040 f   AccelKeys.obj
 0001:00009140       ??_EAccelKeys@@UAEPAXI@Z   0040a140 f i AccelKeys.obj
 0001:00009140       ??_GAccelKeys@@UAEPAXI@Z   0040a140 f i AccelKeys.obj
 0001:00009180       ??0AuthDialog@@QAE@XZ      0040a180 f   AuthDialog.obj
 0001:000091c0       ??1AuthDialog@@UAE@XZ      0040a1c0 f   AuthDialog.obj
 0001:000091e0       ?DoDialog@AuthDialog@@QAEH_NQADH00@Z 0040a1e0 f   AuthDialog.obj
 0001:00009310       ?DlgProc@AuthDialog@@SGHPAUHWND__@@IIJ@Z 0040a310 f   AuthDialog.obj
 0001:00009500       ?DlgProc1@AuthDialog@@SGHPAUHWND__@@IIJ@Z 0040a500 f   AuthDialog.obj
 0001:00009810       ??$SafeGetWindowUserData@VAuthDialog@@@helper@@YAPAVAuthDialog@@PAUHWND__@@@Z 0040a810 f i AuthDialog.obj
 0001:00009830       ??$strcat_s@$0PK@@@YAHAAY0PK@DPBD@Z 0040a830 f i AuthDialog.obj
 0001:00009850       ??$strcpy_s@$0PK@@@YAHAAY0PK@DPBD@Z 0040a850 f i AuthDialog.obj
 0001:00009870       ??_EAuthDialog@@UAEPAXI@Z  0040a870 f i AuthDialog.obj
 0001:00009870       ??_GAuthDialog@@UAEPAXI@Z  0040a870 f i AuthDialog.obj
 0001:000098d0       ?ReconnectThreadProc@@YGKPAX@Z 0040a8d0 f   ClientConnection.obj
 0001:00009a00       ?HandleQuickOption@ClientConnection@@QAEXXZ 0040aa00 f   ClientConnection.obj
 0001:00009bb0       ?RebuildToolbar@ClientConnection@@QAEXPAUHWND__@@@Z 0040abb0 f   ClientConnection.obj
 0001:00009c90       ?GTGBS_CreateDisplay@ClientConnection@@QAEXXZ 0040ac90 f   ClientConnection.obj
 0001:00009df0       ?GTGBS_ScrollToolbar@ClientConnection@@QAEXHH@Z 0040adf0 f   ClientConnection.obj
 0001:00009e00       ?CreateButtons@ClientConnection@@QAEXHH@Z 0040ae00 f   ClientConnection.obj
 0001:0000ae00       ??0ClientConnection@@QAE@PAVVNCviewerApp@@@Z 0040be00 f   ClientConnection.obj
 0001:0000afe0       ??0ClientConnection@@QAE@PAVVNCviewerApp@@I@Z 0040bfe0 f   ClientConnection.obj
 0001:0000b280       ??0ClientConnection@@QAE@PAVVNCviewerApp@@PADH@Z 0040c280 f   ClientConnection.obj
 0001:0000b4f0       ??1ClientConnection@@UAE@XZ 0040c4f0 f   ClientConnection.obj
 0001:0000bc90       ?CloseWindows@ClientConnection@@QAEXXZ 0040cc90 f   ClientConnection.obj
 0001:0000bd00       ?Run@ClientConnection@@QAEXXZ 0040cd00 f   ClientConnection.obj
 0001:0000be80       ?KillThread@ClientConnection@@QAEXXZ 0040ce80 f   ClientConnection.obj
 0001:0000bf10       ?SuspendThread@ClientConnection@@QAEXXZ 0040cf10 f   ClientConnection.obj
 0001:0000c0f0       ?SetSendTimeout@ClientConnection@@QAE_NH@Z 0040d0f0 f   ClientConnection.obj
 0001:0000c150       ?SetRecvTimeout@ClientConnection@@QAE_NH@Z 0040d150 f   ClientConnection.obj
 0001:0000c1b0       ?SendKeepAlive@ClientConnection@@QAEX_N0@Z 0040d1b0 f   ClientConnection.obj
 0001:0000c230       ?Internal_SendKeepAlive@ClientConnection@@QAEX_N@Z 0040d230 f   ClientConnection.obj
 0001:0000c3f0       ?WndProc@ClientConnection@@CGJPAUHWND__@@IIJ@Z 0040d3f0 f   ClientConnection.obj
 0001:0000f800       ?WndProcTBwin@ClientConnection@@CGJPAUHWND__@@IIJ@Z 00410800 f   ClientConnection.obj
 0001:00010010       ?WndProchwnd@ClientConnection@@CGJPAUHWND__@@IIJ@Z 00411010 f   ClientConnection.obj
 0001:00010e20       ?Init@ClientConnection@@AAEXPAVVNCviewerApp@@@Z 00411e20 f   ClientConnection.obj
 0001:00011840       ?CreateDisplay@ClientConnection@@AAEXXZ 00412840 f   ClientConnection.obj
 0001:000122c0       ?UpdateMenuItems@ClientConnection@@AAEXXZ 004132c0 f   ClientConnection.obj
 0001:000125b0       ?GTGBS_CreateToolbar@ClientConnection@@AAEXXZ 004135b0 f   ClientConnection.obj
 0001:00012c10       ?GTGBS_ShowConnectWindow@ClientConnection@@AAEPAUHWND__@@XZ 00413c10 f   ClientConnection.obj
 0001:00012c60       ?GTGBS_ShowStatusWindow@ClientConnection@@CGJPAX@Z 00413c60 f   ClientConnection.obj
 0001:00012c80       ?GTGBS_StatusProc@ClientConnection@@CGJPAUHWND__@@IIJ@Z 00413c80 f   ClientConnection.obj
 0001:000131f0       ?GTGBS_SendCustomKey_proc@ClientConnection@@CGJPAUHWND__@@IIJ@Z 004141f0 f   ClientConnection.obj
 0001:000133f0       ?LoadDSMPlugin@ClientConnection@@AAEX_N@Z 004143f0 f   ClientConnection.obj
 0001:00013580       ?SetDSMPluginStuff@ClientConnection@@AAEXXZ 00414580 f   ClientConnection.obj
 0001:000138e0       ?GetConnectDetails@ClientConnection@@AAEXXZ 004148e0 f   ClientConnection.obj
 0001:00013c60       ?Connect@ClientConnection@@AAEXXZ 00414c60 f   ClientConnection.obj
 0001:00014090       ?ConnectProxy@ClientConnection@@AAEXXZ 00415090 f   ClientConnection.obj
 0001:00014420       ?SetSocketOptions@ClientConnection@@AAEXXZ 00415420 f   ClientConnection.obj
 0001:00014510       ?Authenticate@ClientConnection@@AAEXAAV?$vector@KV?$allocator@K@std@@@std@@@Z 00415510 f   ClientConnection.obj
 0001:00014b90       ?AuthenticateServer@ClientConnection@@AAEXKAAV?$vector@KV?$allocator@K@std@@@std@@@Z 00415b90 f   ClientConnection.obj
 0001:000156c0       ?NegotiateProtocolVersion@ClientConnection@@AAEXXZ 004166c0 f   ClientConnection.obj
 0001:00015fb0       ?AuthVnc@ClientConnection@@AAEXXZ 00416fb0 f   ClientConnection.obj
 0001:00016310       ?AuthSCPrompt@ClientConnection@@AAEXXZ 00417310 f   ClientConnection.obj
 0001:00016480       ?AuthSessionSelect@ClientConnection@@AAEXXZ 00417480 f   ClientConnection.obj
 0001:00016520       ?AuthMsLogonI@ClientConnection@@AAEXXZ 00417520 f   ClientConnection.obj
 0001:00016b30       ?AuthMsLogonII@ClientConnection@@AAEXXZ 00417b30 f   ClientConnection.obj
 0001:00016f30       ?AuthSecureVNCPlugin@ClientConnection@@AAEXXZ 00417f30 f   ClientConnection.obj
 0001:000176e0       ?AuthSecureVNCPlugin_old@ClientConnection@@AAEXXZ 004186e0 f   ClientConnection.obj
 0001:00017e00       ?NegotiateProxy@ClientConnection@@AAEXXZ 00418e00 f   ClientConnection.obj
 0001:00018140       ?ReadServerInit@ClientConnection@@AAEXXZ 00419140 f   ClientConnection.obj
 0001:000185f0       ?SendClientInit@ClientConnection@@AAEXXZ 004195f0 f   ClientConnection.obj
 0001:00018630       ?CreateLocalFramebuffer@ClientConnection@@AAEXXZ 00419630 f   ClientConnection.obj
 0001:00018660       ?SetupPixelFormat@ClientConnection@@AAEXXZ 00419660 f   ClientConnection.obj
 0001:00018940       ?SetFormatAndEncodings@ClientConnection@@AAEXXZ 00419940 f   ClientConnection.obj
 0001:000191f0       ?HandleFramebufferUpdateRequest@ClientConnection@@AAEXIJ@Z 0041a1f0 f   ClientConnection.obj
 0001:00019230       ?SendIncrementalFramebufferUpdateRequest@ClientConnection@@AAEX_N@Z 0041a230 f   ClientConnection.obj
 0001:00019250       ?SendFullFramebufferUpdateRequest@ClientConnection@@AAEX_N@Z 0041a250 f   ClientConnection.obj
 0001:00019270       ?SendAppropriateFramebufferUpdateRequest@ClientConnection@@AAEX_N@Z 0041a270 f   ClientConnection.obj
 0001:00019290       ?SendFramebufferUpdateRequest@ClientConnection@@AAEXI_N@Z 0041a290 f   ClientConnection.obj
 0001:000192e0       ?Internal_SendIncrementalFramebufferUpdateRequest@ClientConnection@@AAEXXZ 0041a2e0 f   ClientConnection.obj
 0001:00019310       ?Internal_SendFullFramebufferUpdateRequest@ClientConnection@@AAEXXZ 0041a310 f   ClientConnection.obj
 0001:00019340       ?Internal_SendAppropriateFramebufferUpdateRequest@ClientConnection@@AAEXXZ 0041a340 f   ClientConnection.obj
 0001:00019630       ?Internal_SendFramebufferUpdateRequest@ClientConnection@@AAEXHHHH_N@Z 0041a630 f   ClientConnection.obj
 0001:00019760       ?FlushThrottledMouseMove@ClientConnection@@AAE_NXZ 0041a760 f   ClientConnection.obj
 0001:00019800       ??0PendingMouseMove@ClientConnection@@QAE@XZ 0041a800 f   ClientConnection.obj
 0001:00019850       ?SizeWindow@ClientConnection@@AAEXXZ 0041a850 f   ClientConnection.obj
 0001:0001a290       ?ScrollScreen@ClientConnection@@AAE_NHH@Z 0041b290 f   ClientConnection.obj
 0001:0001a480       ?ReadNewFBSize@ClientConnection@@AAEXPAUrfbFramebufferUpdateRectHeader@@@Z 0041b480 f   ClientConnection.obj
 0001:0001a530       ?SendClientCutText@ClientConnection@@AAEXPADH@Z 0041b530 f   ClientConnection.obj
 0001:0001a740       ?ReadServerCutText@ClientConnection@@AAEXXZ 0041b740 f   ClientConnection.obj
 0001:0001aa90       ?NotifyPluginStreamingSupport@ClientConnection@@AAEXXZ 0041ba90 f   ClientConnection.obj
 0001:0001aad0       ?ReadBell@ClientConnection@@AAEXXZ 0041bad0 f   ClientConnection.obj
 0001:0001ab80       ?ReadExactProxy@ClientConnection@@AAEXPADH@Z 0041bb80 f   ClientConnection.obj
 0001:0001ac80       ?ReadString@ClientConnection@@AAEXPADH@Z 0041bc80 f   ClientConnection.obj
 0001:0001acd0       ?Send@ClientConnection@@AAEHPBDIH@Z 0041bcd0 f   ClientConnection.obj
 0001:0001ae60       ?Write_timeout@ClientConnection@@AAEXPADHH_N@Z 0041be60 f   ClientConnection.obj
 0001:0001ae90       ?WriteTransformed_timeout@ClientConnection@@AAEXPADHH_N@Z 0041be90 f   ClientConnection.obj
 0001:0001afa0       ?WriteTransformed_timeout@ClientConnection@@AAEXPADHEH_N@Z 0041bfa0 f   ClientConnection.obj
 0001:0001b030       ?WriteExact_timeout@ClientConnection@@AAEXPADHH@Z 0041c030 f   ClientConnection.obj
 0001:0001b060       ?WriteExact_timeout@ClientConnection@@AAEXPADHEH@Z 0041c060 f   ClientConnection.obj
 0001:0001b090       ?Write@ClientConnection@@AAEXPADH_N1H@Z 0041c090 f   ClientConnection.obj
 0001:0001b2c0       ?WriteTransformed@ClientConnection@@AAEXPADH_N@Z 0041c2c0 f   ClientConnection.obj
 0001:0001b3d0       ?WriteTransformed@ClientConnection@@AAEXPADHE_N@Z 0041c3d0 f   ClientConnection.obj
 0001:0001b450       ?WriteExact@ClientConnection@@AAEXPADH@Z 0041c450 f   ClientConnection.obj
 0001:0001b470       ?WriteExactProxy@ClientConnection@@AAEXPADH@Z 0041c470 f   ClientConnection.obj
 0001:0001b4a0       ?WriteExact@ClientConnection@@AAEXPADHE@Z 0041c4a0 f   ClientConnection.obj
 0001:0001b4d0       ?WriteQueue@ClientConnection@@AAEXPADH@Z 0041c4d0 f   ClientConnection.obj
 0001:0001b500       ?WriteExactQueue@ClientConnection@@AAEXPADH@Z 0041c500 f   ClientConnection.obj
 0001:0001b520       ?WriteExactQueue@ClientConnection@@AAEXPADHE@Z 0041c520 f   ClientConnection.obj
 0001:0001b550       ?WriteExactQueue_timeout@ClientConnection@@AAEXPADHH@Z 0041c550 f   ClientConnection.obj
 0001:0001b580       ?WriteExactQueue_timeout@ClientConnection@@AAEXPADHEH@Z 0041c580 f   ClientConnection.obj
 0001:0001b5b0       ?FlushOutstandingWriteQueue@ClientConnection@@AAEXAAPADAAH_NH@Z 0041c5b0 f   ClientConnection.obj
 0001:0001b7d0       ?FlushWriteQueue@ClientConnection@@AAEX_NH@Z 0041c7d0 f   ClientConnection.obj
 0001:0001b800       ?ReadExactProtocolVersion@ClientConnection@@AAEXPADHAA_N@Z 0041c800 f   ClientConnection.obj
 0001:0001bd50       ?GetFriendlySizeString@ClientConnection@@AAEX_JPAD@Z 0041cd50 f   ClientConnection.obj
 0001:0001bf10       ?UpdateStatusFields@ClientConnection@@AAEXXZ 0041cf10 f   ClientConnection.obj
 0001:0001c4e0       ?run_undetached@ClientConnection@@EAEPAXPAX@Z 0041d4e0 f   ClientConnection.obj
 0001:0001ce80       ?SendServerScale@ClientConnection@@AAE_NH@Z 0041de80 f   ClientConnection.obj
 0001:0001cec0       ?SendServerInput@ClientConnection@@AAE_NH@Z 0041dec0 f   ClientConnection.obj
 0001:0001cf00       ?SendSW@ClientConnection@@AAE_NHH@Z 0041df00 f   ClientConnection.obj
 0001:0001cff0       ?ReadServerState@ClientConnection@@AAEXXZ 0041dff0 f   ClientConnection.obj
 0001:0001d2f0       ?CheckBufferSize@ClientConnection@@AAEXH@Z 0041e2f0 f   ClientConnection.obj
 0001:0001d430       ?CheckZipBufferSize@ClientConnection@@AAEXH@Z 0041e430 f   ClientConnection.obj
 0001:0001d570       ?CheckFileZipBufferSize@ClientConnection@@AAEXH@Z 0041e570 f   ClientConnection.obj
 0001:0001d6b0       ?CheckFileChunkBufferSize@ClientConnection@@AAEXH@Z 0041e6b0 f   ClientConnection.obj
 0001:0001d7f0       ?TransformBuffer@ClientConnection@@AAEPAEPAEHPAH@Z 0041e7f0 f   ClientConnection.obj
 0001:0001d850       ?RestoreBufferStep1@ClientConnection@@AAEPAEPAEHPAH@Z 0041e850 f   ClientConnection.obj
 0001:0001d8b0       ?RestoreBufferStep2@ClientConnection@@AAEPAEPAEHPAH@Z 0041e8b0 f   ClientConnection.obj
 0001:0001d910       ?ShowConnInfo@ClientConnection@@AAEXXZ 0041e910 f   ClientConnection.obj
 0001:0001db50       ?SetDormant@ClientConnection@@AAEXH@Z 0041eb50 f   ClientConnection.obj
 0001:0001dbc0       ?WatchClipboard@ClientConnection@@AAEXXZ 0041ebc0 f   ClientConnection.obj
 0001:0001dc30       ?ConvertAll@ClientConnection@@AAEXHHHHHPAE0H@Z 0041ec30 f   ClientConnection.obj
 0001:0001dcf0       ?ConvertPixel@ClientConnection@@AAEXHHHPAE0H@Z 0041ecf0 f   ClientConnection.obj
 0001:0001dd70       ?Copybuffer@ClientConnection@@AAEXHHHHHPAE0H@Z 0041ed70 f   ClientConnection.obj
 0001:0001de40       ?Copyto0buffer@ClientConnection@@AAEXHHHHHPAE0H@Z 0041ee40 f   ClientConnection.obj
 0001:0001df00       ?Copyfrom0buffer@ClientConnection@@AAEXHHHHHPAE0H@Z 0041ef00 f   ClientConnection.obj
 0001:0001dfc0       ?Switchbuffer@ClientConnection@@AAEXHHHHHPAE0H@Z 0041efc0 f   ClientConnection.obj
 0001:0001e0e0       ?ConvertPixel_to_bpp_from_32@ClientConnection@@AAEXHHHPAE0H@Z 0041f0e0 f   ClientConnection.obj
 0001:0001e380       ?SolidColor@ClientConnection@@AAEXHHHHHPAE0H@Z 0041f380 f   ClientConnection.obj
 0001:0001e450       ?Createdib@ClientConnection@@AAEXXZ 0041f450 f   ClientConnection.obj
 0001:0001ecb0       ?Check_Rectangle_borders@ClientConnection@@AAE_NHHHH@Z 0041fcb0 f   ClientConnection.obj
 0001:0001ed30       ?Reconnect@ClientConnection@@AAEXXZ 0041fd30 f   ClientConnection.obj
 0001:0001ee50       ?DoConnection@ClientConnection@@QAEXXZ 0041fe50 f   ClientConnection.obj
 0001:0001ef90       ?ReadExact@ClientConnection@@QAEXPADH@Z 0041ff90 f   ClientConnection.obj
 0001:0001f280       ?DialogProc@@YGHPAUHWND__@@IIJ@Z 00420280 f   ClientConnection.obj
 0001:0001f7f0       ?SocketTimeout@@YGKPAX@Z   004207f0 f   ClientConnection.obj
 0001:00025040       ??$?0U?$_Tree_node@U?$pair@$$CBK_W@std@@PAX@std@@@?$allocator@U_Container_proxy@std@@@std@@QAE@ABV?$allocator@U?$_Tree_node@U?$pair@$$CBK_W@std@@PAX@std@@@1@@Z 00426040 f i ClientConnection.obj
 0001:00025060       ??$?0U?$_Tree_node@U?$pair@$$CB_WK@std@@PAX@std@@@?$allocator@U_Container_proxy@std@@@std@@QAE@ABV?$allocator@U?$_Tree_node@U?$pair@$$CB_WK@std@@PAX@std@@@1@@Z 00426060 f i ClientConnection.obj
 0001:00025080       ??$?0U?$_Wrap_alloc@V?$allocator@U?$_Tree_node@U?$pair@$$CBK_W@std@@PAX@std@@@std@@@std@@@?$_Wrap_alloc@V?$allocator@U_Container_proxy@std@@@std@@@std@@QAE@ABU?$_Wrap_alloc@V?$allocator@U?$_Tree_node@U?$pair@$$CBK_W@std@@PAX@std@@@std@@@1@@Z 00426080 f i ClientConnection.obj
 0001:000250b0       ??$?0U?$_Wrap_alloc@V?$allocator@U?$_Tree_node@U?$pair@$$CB_WK@std@@PAX@std@@@std@@@std@@@?$_Wrap_alloc@V?$allocator@U_Container_proxy@std@@@std@@@std@@QAE@ABU?$_Wrap_alloc@V?$allocator@U?$_Tree_node@U?$pair@$$CB_WK@std@@PAX@std@@@std@@@1@@Z 004260b0 f i ClientConnection.obj
 0001:000250e0       ??$?8DD@std@@YA_NABV?$allocator@D@0@0@Z 004260e0 f i ClientConnection.obj
 0001:000250f0       ??$?8V?$allocator@D@std@@V01@@std@@YA_NABU?$_Wrap_alloc@V?$allocator@D@std@@@0@0@Z 004260f0 f i ClientConnection.obj
 0001:00025130       ??$?9V?$allocator@D@std@@V01@@std@@YA_NABU?$_Wrap_alloc@V?$allocator@D@std@@@0@0@Z 00426130 f i ClientConnection.obj
 0001:00025170       ??$SafeGetWindowUserData@VClientConnection@@@helper@@YAPAVClientConnection@@PAUHWND__@@@Z 00426170 f i ClientConnection.obj
 0001:00025190       ??$_Allocate@E@std@@YAPAEIPAE@Z 00426190 f i ClientConnection.obj
 0001:000251e0       ??$_Allocate@K@std@@YAPAKIPAK@Z 004261e0 f i ClientConnection.obj
 0001:00025230       ??$_Debug_pointer@E@std@@YAXPAEPB_WI@Z 00426230 f i ClientConnection.obj
 0001:00025260       ??$_Debug_pointer@K@std@@YAXPAKPB_WI@Z 00426260 f i ClientConnection.obj
 0001:00025290       ??$_Debug_pointer@V?$_Vector_iterator@V?$_Vector_val@U?$_Simple_types@E@std@@@std@@@std@@@std@@YAXAAV?$_Vector_iterator@V?$_Vector_val@U?$_Simple_types@E@std@@@std@@@0@PB_WI@Z 00426290 f i ClientConnection.obj
 0001:000252a0       ??$_Debug_pointer@V?$_Vector_iterator@V?$_Vector_val@U?$_Simple_types@K@std@@@std@@@std@@@std@@YAXAAV?$_Vector_iterator@V?$_Vector_val@U?$_Simple_types@K@std@@@std@@@0@PB_WI@Z 004262a0 f i ClientConnection.obj
 0001:000252b0       ??$_Debug_range2@PAE@std@@YAXPAE0PB_WIUrandom_access_iterator_tag@0@@Z 004262b0 f i ClientConnection.obj
 0001:00025320       ??$_Debug_range2@PAK@std@@YAXPAK0PB_WIUrandom_access_iterator_tag@0@@Z 00426320 f i ClientConnection.obj
 0001:00025390       ??$_Debug_range2@V?$_Vector_iterator@V?$_Vector_val@U?$_Simple_types@E@std@@@std@@@std@@@std@@YAXV?$_Vector_iterator@V?$_Vector_val@U?$_Simple_types@E@std@@@std@@@0@0PB_WIUrandom_access_iterator_tag@0@@Z 00426390 f i ClientConnection.obj
 0001:00025480       ??$_Debug_range2@V?$_Vector_iterator@V?$_Vector_val@U?$_Simple_types@K@std@@@std@@@std@@@std@@YAXV?$_Vector_iterator@V?$_Vector_val@U?$_Simple_types@K@std@@@std@@@0@0PB_WIUrandom_access_iterator_tag@0@@Z 00426480 f i ClientConnection.obj
 0001:00025570       ??$_Debug_range@PAE@std@@YAXPAE0PB_WI@Z 00426570 f i ClientConnection.obj
 0001:000255c0       ??$_Debug_range@PAK@std@@YAXPAK0PB_WI@Z 004265c0 f i ClientConnection.obj
 0001:00025610       ??$_Debug_range@V?$_Vector_iterator@V?$_Vector_val@U?$_Simple_types@E@std@@@std@@@std@@@std@@YAXV?$_Vector_iterator@V?$_Vector_val@U?$_Simple_types@E@std@@@std@@@0@0PB_WI@Z 00426610 f i ClientConnection.obj
 0001:000256f0       ??$_Debug_range@V?$_Vector_iterator@V?$_Vector_val@U?$_Simple_types@K@std@@@std@@@std@@@std@@YAXV?$_Vector_iterator@V?$_Vector_val@U?$_Simple_types@K@std@@@std@@@0@0PB_WI@Z 004266f0 f i ClientConnection.obj
 0001:000257d0       ??$_Destroy_range@U?$_Wrap_alloc@V?$allocator@E@std@@@std@@@std@@YAXPAE0AAU?$_Wrap_alloc@V?$allocator@E@std@@@0@@Z 004267d0 f i ClientConnection.obj
 0001:00025820       ??$_Destroy_range@U?$_Wrap_alloc@V?$allocator@E@std@@@std@@@std@@YAXPAE0AAU?$_Wrap_alloc@V?$allocator@E@std@@@0@U_Scalar_ptr_iterator_tag@0@@Z 00426820 f i ClientConnection.obj
 0001:00025830       ??$_Destroy_range@U?$_Wrap_alloc@V?$allocator@K@std@@@std@@@std@@YAXPAK0AAU?$_Wrap_alloc@V?$allocator@K@std@@@0@@Z 00426830 f i ClientConnection.obj
 0001:00025880       ??$_Destroy_range@U?$_Wrap_alloc@V?$allocator@K@std@@@std@@@std@@YAXPAK0AAU?$_Wrap_alloc@V?$allocator@K@std@@@0@U_Scalar_ptr_iterator_tag@0@@Z 00426880 f i ClientConnection.obj
 0001:00025890       ??$_Find@PAEK@std@@YAPAEPAE0ABK@Z 00426890 f i ClientConnection.obj
 0001:000258c0       ??$_Find@PAEK@std@@YAPAEPAE0ABKU?$integral_constant@_N$00@0@@Z 004268c0 f i ClientConnection.obj
 0001:00025930       ??$_Find@PAKH@std@@YAPAKPAK0ABH@Z 00426930 f i ClientConnection.obj
 0001:00025960       ??$_Find@PAKH@std@@YAPAKPAK0ABHU?$integral_constant@_N$0A@@0@@Z 00426960 f i ClientConnection.obj
 0001:000259a0       ??$_Find@PAKK@std@@YAPAKPAK0ABK@Z 004269a0 f i ClientConnection.obj
 0001:000259d0       ??$_Find@PAKK@std@@YAPAKPAK0ABKU?$integral_constant@_N$0A@@0@@Z 004269d0 f i ClientConnection.obj
 0001:00025a10       ??$_Iter_cat@PAE@std@@YA?AUrandom_access_iterator_tag@0@ABQAE@Z 00426a10 f i ClientConnection.obj
 0001:00025a30       ??$_Iter_cat@PAK@std@@YA?AUrandom_access_iterator_tag@0@ABQAK@Z 00426a30 f i ClientConnection.obj
 0001:00025a50       ??$_Iter_cat@V?$_Vector_iterator@V?$_Vector_val@U?$_Simple_types@E@std@@@std@@@std@@@std@@YA?AUrandom_access_iterator_tag@0@ABV?$_Vector_iterator@V?$_Vector_val@U?$_Simple_types@E@std@@@std@@@0@@Z 00426a50 f i ClientConnection.obj
 0001:00025a70       ??$_Iter_cat@V?$_Vector_iterator@V?$_Vector_val@U?$_Simple_types@K@std@@@std@@@std@@@std@@YA?AUrandom_access_iterator_tag@0@ABV?$_Vector_iterator@V?$_Vector_val@U?$_Simple_types@K@std@@@std@@@0@@Z 00426a70 f i ClientConnection.obj
 0001:00025a90       ??$_Move@AAD@std@@YA$$QADAAD@Z 00426a90 f i ClientConnection.obj
 0001:00025aa0       ??$_Ptr_cat@EE@std@@YA?AU_Scalar_ptr_iterator_tag@0@PAE0@Z 00426aa0 f i ClientConnection.obj
 0001:00025ab0       ??$_Ptr_cat@KK@std@@YA?AU_Scalar_ptr_iterator_tag@0@PAK0@Z 00426ab0 f i ClientConnection.obj
 0001:00025ac0       ??$_Rechecked@PAEPAE@std@@YAAAPAEAAPAEPAE@Z 00426ac0 f i ClientConnection.obj
 0001:00025ae0       ??$_Rechecked@PAKPAK@std@@YAAAPAKAAPAKPAK@Z 00426ae0 f i ClientConnection.obj
 0001:00025b00       ??$_Rechecked@V?$_Vector_val@U?$_Simple_types@E@std@@@std@@@std@@YAAAV?$_Vector_iterator@V?$_Vector_val@U?$_Simple_types@E@std@@@std@@@0@AAV10@PAE@Z 00426b00 f i ClientConnection.obj
 0001:00025b20       ??$_Rechecked@V?$_Vector_val@U?$_Simple_types@K@std@@@std@@@std@@YAAAV?$_Vector_iterator@V?$_Vector_val@U?$_Simple_types@K@std@@@std@@@0@AAV10@PAK@Z 00426b20 f i ClientConnection.obj
 0001:00025b40       ??$_Umove@PAE@?$vector@EV?$allocator@E@std@@@std@@IAEPAEPAE00@Z 00426b40 f i ClientConnection.obj
 0001:00025b80       ??$_Umove@PAK@?$vector@KV?$allocator@K@std@@@std@@IAEPAKPAK00@Z 00426b80 f i ClientConnection.obj
 0001:00025bc0       ??$_Unchecked@PAE@std@@YAPAEPAE@Z 00426bc0 f i ClientConnection.obj
 0001:00025bd0       ??$_Unchecked@PAK@std@@YAPAKPAK@Z 00426bd0 f i ClientConnection.obj
 0001:00025be0       ??$_Unchecked@V?$_Vector_val@U?$_Simple_types@E@std@@@std@@@std@@YAPAEV?$_Vector_iterator@V?$_Vector_val@U?$_Simple_types@E@std@@@std@@@0@@Z 00426be0 f i ClientConnection.obj
 0001:00025c50       ??$_Unchecked@V?$_Vector_val@U?$_Simple_types@K@std@@@std@@@std@@YAPAKV?$_Vector_iterator@V?$_Vector_val@U?$_Simple_types@K@std@@@std@@@0@@Z 00426c50 f i ClientConnection.obj
 0001:00025cc0       ??$_Uninit_move@EEE@std@@YAPAEPAE00AAU?$_Wrap_alloc@V?$allocator@E@std@@@0@0U_Scalar_ptr_iterator_tag@0@@Z 00426cc0 f i ClientConnection.obj
 0001:00025d30       ??$_Uninit_move@KKK@std@@YAPAKPAK00AAU?$_Wrap_alloc@V?$allocator@K@std@@@0@0U_Scalar_ptr_iterator_tag@0@@Z 00426d30 f i ClientConnection.obj
 0001:00025db0       ??$_Uninit_move@PAEPAEU?$_Wrap_alloc@V?$allocator@E@std@@@std@@@std@@YAPAEPAE00AAU?$_Wrap_alloc@V?$allocator@E@std@@@0@@Z 00426db0 f i ClientConnection.obj
 0001:00025e10       ??$_Uninit_move@PAKPAKU?$_Wrap_alloc@V?$allocator@K@std@@@std@@@std@@YAPAKPAK00AAU?$_Wrap_alloc@V?$allocator@K@std@@@0@@Z 00426e10 f i ClientConnection.obj
 0001:00025e70       ??$_Uninitialized_move@PAEPAEU?$_Wrap_alloc@V?$allocator@E@std@@@std@@@std@@YAPAEPAE00AAU?$_Wrap_alloc@V?$allocator@E@std@@@0@@Z 00426e70 f i ClientConnection.obj
 0001:00025ed0       ??$_Uninitialized_move@PAKPAKU?$_Wrap_alloc@V?$allocator@K@std@@@std@@@std@@YAPAKPAK00AAU?$_Wrap_alloc@V?$allocator@K@std@@@0@@Z 00426ed0 f i ClientConnection.obj
 0001:00025f30       ??$_Val_type@PAE@std@@YAPAEPAE@Z 00426f30 f i ClientConnection.obj
 0001:00025f40       ??$_Val_type@PAK@std@@YAPAKPAK@Z 00426f40 f i ClientConnection.obj
 0001:00025f50       ??$_Within_limits@KU?$integral_constant@_N$00@std@@@std@@YA_NABKU?$integral_constant@_N$0A@@0@1U?$integral_constant@_N$00@0@@Z 00426f50 f i ClientConnection.obj
 0001:00025f80       ??$_Within_limits@PAEK@std@@YA_NPAEABK@Z 00426f80 f i ClientConnection.obj
 0001:00025fc0       ??$addressof@$$CBE@std@@YAPBEABE@Z 00426fc0 f i ClientConnection.obj
 0001:00025fd0       ??$addressof@$$CBK@std@@YAPBKABK@Z 00426fd0 f i ClientConnection.obj
 0001:00025fe0       ??$addressof@E@std@@YAPAEAAE@Z 00426fe0 f i ClientConnection.obj
 0001:00025ff0       ??$addressof@PAU?$_Tree_node@U?$pair@$$CBK_W@std@@PAX@std@@@std@@YAPAPAU?$_Tree_node@U?$pair@$$CBK_W@std@@PAX@0@AAPAU10@@Z 00426ff0 f i ClientConnection.obj
 0001:00026000       ??$addressof@PAU?$_Tree_node@U?$pair@$$CB_WK@std@@PAX@std@@@std@@YAPAPAU?$_Tree_node@U?$pair@$$CB_WK@std@@PAX@0@AAPAU10@@Z 00427000 f i ClientConnection.obj
 0001:00026010       ??$addressof@U?$pair@$$CBK_W@std@@@std@@YAPAU?$pair@$$CBK_W@0@AAU10@@Z 00427010 f i ClientConnection.obj
 0001:00026020       ??$addressof@U?$pair@$$CB_WK@std@@@std@@YAPAU?$pair@$$CB_WK@0@AAU10@@Z 00427020 f i ClientConnection.obj
 0001:00026030       ??$construct@EAAE@?$_Wrap_alloc@V?$allocator@E@std@@@std@@QAEXPAEAAE@Z 00427030 f i ClientConnection.obj
 0001:00026070       ??$construct@EAAE@?$allocator@E@std@@QAEXPAEAAE@Z 00427070 f i ClientConnection.obj
 0001:00026120       ??$construct@EAAE@?$allocator_traits@V?$allocator@E@std@@@std@@SAXAAV?$allocator@E@1@PAEAAE@Z 00427120 f i ClientConnection.obj
 0001:00026150       ??$construct@EABE@?$_Wrap_alloc@V?$allocator@E@std@@@std@@QAEXPAEABE@Z 00427150 f i ClientConnection.obj
 0001:00026190       ??$construct@EABE@?$allocator_traits@V?$allocator@E@std@@@std@@SAXAAV?$allocator@E@1@PAEABE@Z 00427190 f i ClientConnection.obj
 0001:000261c0       ??$construct@EE@?$_Wrap_alloc@V?$allocator@E@std@@@std@@QAEXPAE$$QAE@Z 004271c0 f i ClientConnection.obj
 0001:00026200       ??$construct@EE@?$allocator@E@std@@QAEXPAE$$QAE@Z 00427200 f i ClientConnection.obj
 0001:000262b0       ??$construct@EE@?$allocator_traits@V?$allocator@E@std@@@std@@SAXAAV?$allocator@E@1@PAE$$QAE@Z 004272b0 f i ClientConnection.obj
 0001:000262e0       ??$construct@KAAK@?$_Wrap_alloc@V?$allocator@K@std@@@std@@QAEXPAKAAK@Z 004272e0 f i ClientConnection.obj
 0001:00026320       ??$construct@KAAK@?$allocator@K@std@@QAEXPAKAAK@Z 00427320 f i ClientConnection.obj
 0001:000263d0       ??$construct@KAAK@?$allocator_traits@V?$allocator@K@std@@@std@@SAXAAV?$allocator@K@1@PAKAAK@Z 004273d0 f i ClientConnection.obj
 0001:00026400       ??$construct@KABK@?$_Wrap_alloc@V?$allocator@K@std@@@std@@QAEXPAKABK@Z 00427400 f i ClientConnection.obj
 0001:00026440       ??$construct@KABK@?$allocator_traits@V?$allocator@K@std@@@std@@SAXAAV?$allocator@K@1@PAKABK@Z 00427440 f i ClientConnection.obj
 0001:00026470       ??$construct@U_Container_proxy@std@@U12@@?$_Wrap_alloc@V?$allocator@U_Container_proxy@std@@@std@@@std@@QAEXPAU_Container_proxy@1@$$QAU21@@Z 00427470 f i ClientConnection.obj
 0001:000264b0       ??$construct@U_Container_proxy@std@@U12@@?$allocator_traits@V?$allocator@U_Container_proxy@std@@@std@@@std@@SAXAAV?$allocator@U_Container_proxy@std@@@1@PAU_Container_proxy@1@$$QAU31@@Z 004274b0 f i ClientConnection.obj
 0001:000264e0       ??$destroy@PAU?$_Tree_node@U?$pair@$$CBK_W@std@@PAX@std@@@?$_Wrap_alloc@V?$allocator@U?$_Tree_node@U?$pair@$$CBK_W@std@@PAX@std@@@std@@@std@@QAEXPAPAU?$_Tree_node@U?$pair@$$CBK_W@std@@PAX@1@@Z 004274e0 f i ClientConnection.obj
 0001:00026510       ??$destroy@PAU?$_Tree_node@U?$pair@$$CBK_W@std@@PAX@std@@@?$allocator@U?$_Tree_node@U?$pair@$$CBK_W@std@@PAX@std@@@std@@QAEXPAPAU?$_Tree_node@U?$pair@$$CBK_W@std@@PAX@1@@Z 00427510 f i ClientConnection.obj
 0001:00026520       ??$destroy@PAU?$_Tree_node@U?$pair@$$CBK_W@std@@PAX@std@@@?$allocator_traits@V?$allocator@U?$_Tree_node@U?$pair@$$CBK_W@std@@PAX@std@@@std@@@std@@SAXAAV?$allocator@U?$_Tree_node@U?$pair@$$CBK_W@std@@PAX@std@@@1@PAPAU?$_Tree_node@U?$pair@$$CBK_W@std@@PAX@1@@Z 00427520 f i ClientConnection.obj
 0001:00026540       ??$destroy@PAU?$_Tree_node@U?$pair@$$CB_WK@std@@PAX@std@@@?$_Wrap_alloc@V?$allocator@U?$_Tree_node@U?$pair@$$CB_WK@std@@PAX@std@@@std@@@std@@QAEXPAPAU?$_Tree_node@U?$pair@$$CB_WK@std@@PAX@1@@Z 00427540 f i ClientConnection.obj
 0001:00026570       ??$destroy@PAU?$_Tree_node@U?$pair@$$CB_WK@std@@PAX@std@@@?$allocator@U?$_Tree_node@U?$pair@$$CB_WK@std@@PAX@std@@@std@@QAEXPAPAU?$_Tree_node@U?$pair@$$CB_WK@std@@PAX@1@@Z 00427570 f i ClientConnection.obj
 0001:00026580       ??$destroy@PAU?$_Tree_node@U?$pair@$$CB_WK@std@@PAX@std@@@?$allocator_traits@V?$allocator@U?$_Tree_node@U?$pair@$$CB_WK@std@@PAX@std@@@std@@@std@@SAXAAV?$allocator@U?$_Tree_node@U?$pair@$$CB_WK@std@@PAX@std@@@1@PAPAU?$_Tree_node@U?$pair@$$CB_WK@std@@PAX@1@@Z 00427580 f i ClientConnection.obj
 0001:000265a0       ??$destroy@U?$pair@$$CBK_W@std@@@?$_Wrap_alloc@V?$allocator@U?$_Tree_node@U?$pair@$$CBK_W@std@@PAX@std@@@std@@@std@@QAEXPAU?$pair@$$CBK_W@1@@Z 004275a0 f i ClientConnection.obj
 0001:000265d0       ??$destroy@U?$pair@$$CBK_W@std@@@?$allocator@U?$_Tree_node@U?$pair@$$CBK_W@std@@PAX@std@@@std@@QAEXPAU?$pair@$$CBK_W@1@@Z 004275d0 f i ClientConnection.obj
 0001:000265e0       ??$destroy@U?$pair@$$CBK_W@std@@@?$allocator_traits@V?$allocator@U?$_Tree_node@U?$pair@$$CBK_W@std@@PAX@std@@@std@@@std@@SAXAAV?$allocator@U?$_Tree_node@U?$pair@$$CBK_W@std@@PAX@std@@@1@PAU?$pair@$$CBK_W@1@@Z 004275e0 f i ClientConnection.obj
 0001:00026600       ??$destroy@U?$pair@$$CB_WK@std@@@?$_Wrap_alloc@V?$allocator@U?$_Tree_node@U?$pair@$$CB_WK@std@@PAX@std@@@std@@@std@@QAEXPAU?$pair@$$CB_WK@1@@Z 00427600 f i ClientConnection.obj
 0001:00026630       ??$destroy@U?$pair@$$CB_WK@std@@@?$allocator@U?$_Tree_node@U?$pair@$$CB_WK@std@@PAX@std@@@std@@QAEXPAU?$pair@$$CB_WK@1@@Z 00427630 f i ClientConnection.obj
 0001:00026640       ??$destroy@U?$pair@$$CB_WK@std@@@?$allocator_traits@V?$allocator@U?$_Tree_node@U?$pair@$$CB_WK@std@@PAX@std@@@std@@@std@@SAXAAV?$allocator@U?$_Tree_node@U?$pair@$$CB_WK@std@@PAX@std@@@1@PAU?$pair@$$CB_WK@1@@Z 00427640 f i ClientConnection.obj
 0001:00026660       ??$destroy@U_Container_proxy@std@@@?$_Wrap_alloc@V?$allocator@U_Container_proxy@std@@@std@@@std@@QAEXPAU_Container_proxy@1@@Z 00427660 f i ClientConnection.obj
 0001:00026690       ??$destroy@U_Container_proxy@std@@@?$allocator_traits@V?$allocator@U_Container_proxy@std@@@std@@@std@@SAXAAV?$allocator@U_Container_proxy@std@@@1@PAU_Container_proxy@1@@Z 00427690 f i ClientConnection.obj
 0001:000266b0       ??$find@V?$_Vector_iterator@V?$_Vector_val@U?$_Simple_types@E@std@@@std@@@std@@K@std@@YA?AV?$_Vector_iterator@V?$_Vector_val@U?$_Simple_types@E@std@@@std@@@0@V10@0ABK@Z 004276b0 f i ClientConnection.obj
 0001:00026820       ??$find@V?$_Vector_iterator@V?$_Vector_val@U?$_Simple_types@K@std@@@std@@@std@@H@std@@YA?AV?$_Vector_iterator@V?$_Vector_val@U?$_Simple_types@K@std@@@std@@@0@V10@0ABH@Z 00427820 f i ClientConnection.obj
 0001:00026990       ??$find@V?$_Vector_iterator@V?$_Vector_val@U?$_Simple_types@K@std@@@std@@@std@@K@std@@YA?AV?$_Vector_iterator@V?$_Vector_val@U?$_Simple_types@K@std@@@std@@@0@V10@0ABK@Z 00427990 f i ClientConnection.obj
 0001:00026b00       ??$forward@AAE@std@@YAAAEAAE@Z 00427b00 f i ClientConnection.obj
 0001:00026b10       ??$forward@AAK@std@@YAAAKAAK@Z 00427b10 f i ClientConnection.obj
 0001:00026b20       ??$forward@ABE@std@@YAABEABE@Z 00427b20 f i ClientConnection.obj
 0001:00026b30       ??$forward@ABK@std@@YAABKABK@Z 00427b30 f i ClientConnection.obj
 0001:00026b40       ??$forward@E@std@@YA$$QAEAAE@Z 00427b40 f i ClientConnection.obj
 0001:00026b50       ??$swap@D@std@@YAXAAD0@Z   00427b50 f i ClientConnection.obj
 0001:00026ba0       ??0?$_Iterator012@Ubidirectional_iterator_tag@std@@U?$pair@$$CBK_W@2@HPBU32@ABU32@U_Iterator_base12@2@@std@@QAE@ABU01@@Z 00427ba0 f i ClientConnection.obj
 0001:00026bd0       ??0?$_Iterator012@Ubidirectional_iterator_tag@std@@U?$pair@$$CBK_W@2@HPBU32@ABU32@U_Iterator_base12@2@@std@@QAE@XZ 00427bd0 f i ClientConnection.obj
 0001:00026bf0       ??0?$_Iterator012@Ubidirectional_iterator_tag@std@@U?$pair@$$CB_WK@2@HPBU32@ABU32@U_Iterator_base12@2@@std@@QAE@ABU01@@Z 00427bf0 f i ClientConnection.obj
 0001:00026c20       ??0?$_Iterator012@Ubidirectional_iterator_tag@std@@U?$pair@$$CB_WK@2@HPBU32@ABU32@U_Iterator_base12@2@@std@@QAE@XZ 00427c20 f i ClientConnection.obj
 0001:00026c40       ??0?$_Iterator012@Urandom_access_iterator_tag@std@@EHPBEABEU_Iterator_base12@2@@std@@QAE@ABU01@@Z 00427c40 f i ClientConnection.obj
 0001:00026c70       ??0?$_Iterator012@Urandom_access_iterator_tag@std@@EHPBEABEU_Iterator_base12@2@@std@@QAE@XZ 00427c70 f i ClientConnection.obj
 0001:00026c90       ??0?$_Iterator012@Urandom_access_iterator_tag@std@@KHPBKABKU_Iterator_base12@2@@std@@QAE@ABU01@@Z 00427c90 f i ClientConnection.obj
 0001:00026cc0       ??0?$_Iterator012@Urandom_access_iterator_tag@std@@KHPBKABKU_Iterator_base12@2@@std@@QAE@XZ 00427cc0 f i ClientConnection.obj
 0001:00026ce0       ??0?$_Tree_const_iterator@V?$_Tree_val@U?$_Tree_simple_types@U?$pair@$$CBK_W@std@@@std@@@std@@@std@@QAE@ABV01@@Z 00427ce0 f i ClientConnection.obj
 0001:00026d10       ??0?$_Tree_const_iterator@V?$_Tree_val@U?$_Tree_simple_types@U?$pair@$$CBK_W@std@@@std@@@std@@@std@@QAE@PAU?$_Tree_node@U?$pair@$$CBK_W@std@@PAX@1@PBV?$_Tree_val@U?$_Tree_simple_types@U?$pair@$$CBK_W@std@@@std@@@1@@Z 00427d10 f i ClientConnection.obj
 0001:00026d40       ??0?$_Tree_const_iterator@V?$_Tree_val@U?$_Tree_simple_types@U?$pair@$$CB_WK@std@@@std@@@std@@@std@@QAE@ABV01@@Z 00427d40 f i ClientConnection.obj
 0001:00026d70       ??0?$_Tree_const_iterator@V?$_Tree_val@U?$_Tree_simple_types@U?$pair@$$CB_WK@std@@@std@@@std@@@std@@QAE@PAU?$_Tree_node@U?$pair@$$CB_WK@std@@PAX@1@PBV?$_Tree_val@U?$_Tree_simple_types@U?$pair@$$CB_WK@std@@@std@@@1@@Z 00427d70 f i ClientConnection.obj
 0001:00026da0       ??0?$_Tree_iterator@V?$_Tree_val@U?$_Tree_simple_types@U?$pair@$$CBK_W@std@@@std@@@std@@@std@@QAE@PAU?$_Tree_node@U?$pair@$$CBK_W@std@@PAX@1@PBV?$_Tree_val@U?$_Tree_simple_types@U?$pair@$$CBK_W@std@@@std@@@1@@Z 00427da0 f i ClientConnection.obj
 0001:00026dd0       ??0?$_Tree_iterator@V?$_Tree_val@U?$_Tree_simple_types@U?$pair@$$CB_WK@std@@@std@@@std@@@std@@QAE@PAU?$_Tree_node@U?$pair@$$CB_WK@std@@PAX@1@PBV?$_Tree_val@U?$_Tree_simple_types@U?$pair@$$CB_WK@std@@@std@@@1@@Z 00427dd0 f i ClientConnection.obj
 0001:00026e00       ??0?$_Tree_unchecked_const_iterator@V?$_Tree_val@U?$_Tree_simple_types@U?$pair@$$CBK_W@std@@@std@@@std@@U_Iterator_base12@2@@std@@QAE@ABV01@@Z 00427e00 f i ClientConnection.obj
 0001:00026e40       ??0?$_Tree_unchecked_const_iterator@V?$_Tree_val@U?$_Tree_simple_types@U?$pair@$$CBK_W@std@@@std@@@std@@U_Iterator_base12@2@@std@@QAE@PAU?$_Tree_node@U?$pair@$$CBK_W@std@@PAX@1@PBV?$_Tree_val@U?$_Tree_simple_types@U?$pair@$$CBK_W@std@@@std@@@1@@Z 00427e40 f i ClientConnection.obj
 0001:00026ec0       ??0?$_Tree_unchecked_const_iterator@V?$_Tree_val@U?$_Tree_simple_types@U?$pair@$$CB_WK@std@@@std@@@std@@U_Iterator_base12@2@@std@@QAE@ABV01@@Z 00427ec0 f i ClientConnection.obj
 0001:00026f00       ??0?$_Tree_unchecked_const_iterator@V?$_Tree_val@U?$_Tree_simple_types@U?$pair@$$CB_WK@std@@@std@@@std@@U_Iterator_base12@2@@std@@QAE@PAU?$_Tree_node@U?$pair@$$CB_WK@std@@PAX@1@PBV?$_Tree_val@U?$_Tree_simple_types@U?$pair@$$CB_WK@std@@@std@@@1@@Z 00427f00 f i ClientConnection.obj
 0001:00026f80       ??0?$_Vector_alloc@$0A@U?$_Vec_base_types@EV?$allocator@E@std@@@std@@@std@@QAE@ABV?$allocator@E@1@@Z 00427f80 f i ClientConnection.obj
 0001:00026ff0       ??0?$_Vector_alloc@$0A@U?$_Vec_base_types@KV?$allocator@K@std@@@std@@@std@@QAE@ABV?$allocator@K@1@@Z 00427ff0 f i ClientConnection.obj
 0001:00027060       ??0?$_Vector_const_iterator@V?$_Vector_val@U?$_Simple_types@E@std@@@std@@@std@@QAE@ABV01@@Z 00428060 f i ClientConnection.obj
 0001:000270a0       ??0?$_Vector_const_iterator@V?$_Vector_val@U?$_Simple_types@E@std@@@std@@@std@@QAE@PAEPBU_Container_base12@1@@Z 004280a0 f i ClientConnection.obj
 0001:00027120       ??0?$_Vector_const_iterator@V?$_Vector_val@U?$_Simple_types@K@std@@@std@@@std@@QAE@ABV01@@Z 00428120 f i ClientConnection.obj
 0001:00027160       ??0?$_Vector_const_iterator@V?$_Vector_val@U?$_Simple_types@K@std@@@std@@@std@@QAE@PAKPBU_Container_base12@1@@Z 00428160 f i ClientConnection.obj
 0001:000271e0       ??0?$_Vector_iterator@V?$_Vector_val@U?$_Simple_types@E@std@@@std@@@std@@QAE@ABV01@@Z 004281e0 f i ClientConnection.obj
 0001:00027210       ??0?$_Vector_iterator@V?$_Vector_val@U?$_Simple_types@E@std@@@std@@@std@@QAE@PAEPBU_Container_base12@1@@Z 00428210 f i ClientConnection.obj
 0001:00027240       ??0?$_Vector_iterator@V?$_Vector_val@U?$_Simple_types@K@std@@@std@@@std@@QAE@ABV01@@Z 00428240 f i ClientConnection.obj
 0001:00027270       ??0?$_Vector_iterator@V?$_Vector_val@U?$_Simple_types@K@std@@@std@@@std@@QAE@PAKPBU_Container_base12@1@@Z 00428270 f i ClientConnection.obj
 0001:000272a0       ??0?$_Vector_val@U?$_Simple_types@E@std@@@std@@QAE@XZ 004282a0 f i ClientConnection.obj
 0001:000272f0       ??0?$_Vector_val@U?$_Simple_types@K@std@@@std@@QAE@XZ 004282f0 f i ClientConnection.obj
 0001:00027340       ??0?$_Wrap_alloc@V?$allocator@E@std@@@std@@QAE@XZ 00428340 f i ClientConnection.obj
 0001:00027360       ??0?$_Wrap_alloc@V?$allocator@K@std@@@std@@QAE@XZ 00428360 f i ClientConnection.obj
 0001:00027380       ??0?$_Wrap_alloc@V?$allocator@U?$_Tree_node@U?$pair@$$CBK_W@std@@PAX@std@@@std@@@std@@QAE@XZ 00428380 f i ClientConnection.obj
 0001:000273a0       ??0?$_Wrap_alloc@V?$allocator@U?$_Tree_node@U?$pair@$$CB_WK@std@@PAX@std@@@std@@@std@@QAE@XZ 004283a0 f i ClientConnection.obj
 0001:000273c0       ??0?$_Wrap_alloc@V?$allocator@U_Container_proxy@std@@@std@@@std@@QAE@XZ 004283c0 f i ClientConnection.obj
 0001:000273e0       ??0?$allocator@D@std@@QAE@ABV01@@Z 004283e0 f i ClientConnection.obj
 0001:00027400       ??0?$allocator@E@std@@QAE@XZ 00428400 f i ClientConnection.obj
 0001:00027420       ??0?$allocator@K@std@@QAE@XZ 00428420 f i ClientConnection.obj
 0001:00027440       ??0?$allocator@U?$_Tree_node@U?$pair@$$CBK_W@std@@PAX@std@@@std@@QAE@XZ 00428440 f i ClientConnection.obj
 0001:00027460       ??0?$allocator@U?$_Tree_node@U?$pair@$$CB_WK@std@@PAX@std@@@std@@QAE@XZ 00428460 f i ClientConnection.obj
 0001:00027480       ??0?$vector@EV?$allocator@E@std@@@std@@QAE@XZ 00428480 f i ClientConnection.obj
 0001:000274b0       ??0?$vector@KV?$allocator@K@std@@@std@@QAE@XZ 004284b0 f i ClientConnection.obj
 0001:000274e0       ??0EndOfStream@rdr@@QAE@ABU01@@Z 004284e0 f i ClientConnection.obj
 0001:00027510       ??0ErrorException@@QAE@ABV0@@Z 00428510 f i ClientConnection.obj
 0001:00027540       ??0Exception@@QAE@ABV0@@Z  00428540 f i ClientConnection.obj
 0001:00027580       ??0Exception@rdr@@QAE@ABU01@@Z 00428580 f i ClientConnection.obj
 0001:000275c0       ??0ObjectSelector@@QAE@PAUHDC__@@PAX@Z 004285c0 f i ClientConnection.obj
 0001:00027600       ??0PaletteSelector@@QAE@PAUHDC__@@PAUHPALETTE__@@@Z 00428600 f i ClientConnection.obj
 0001:00027670       ??0QuietException@@QAE@ABV0@@Z 00428670 f i ClientConnection.obj
 0001:000276a0       ??0TempDC@@QAE@PAUHWND__@@@Z 004286a0 f i ClientConnection.obj
 0001:000276e0       ??0WarningException@@QAE@ABV0@@Z 004286e0 f i ClientConnection.obj
 0001:00027720       ??0_Iterator_base12@std@@QAE@ABU01@@Z 00428720 f i ClientConnection.obj
 0001:00027760       ??0_Iterator_base12@std@@QAE@XZ 00428760 f i ClientConnection.obj
 0001:00027790       ??0omni_mutex_conditional_lock@@QAE@AAVomni_mutex@@_N@Z 00428790 f i ClientConnection.obj
 0001:000277e0       ??0omni_mutex_lock@@QAE@AAVomni_mutex@@@Z 004287e0 f i ClientConnection.obj
 0001:00027810       ??1?$_Iterator012@Ubidirectional_iterator_tag@std@@U?$pair@$$CBK_W@2@HPBU32@ABU32@U_Iterator_base12@2@@std@@QAE@XZ 00428810 f i ClientConnection.obj
 0001:00027830       ??1?$_Iterator012@Ubidirectional_iterator_tag@std@@U?$pair@$$CB_WK@2@HPBU32@ABU32@U_Iterator_base12@2@@std@@QAE@XZ 00428830 f i ClientConnection.obj
 0001:00027850       ??1?$_Iterator012@Urandom_access_iterator_tag@std@@EHPBEABEU_Iterator_base12@2@@std@@QAE@XZ 00428850 f i ClientConnection.obj
 0001:00027870       ??1?$_Iterator012@Urandom_access_iterator_tag@std@@KHPBKABKU_Iterator_base12@2@@std@@QAE@XZ 00428870 f i ClientConnection.obj
 0001:00027890       ??1?$_Tree@V?$_Tmap_traits@K_WU?$less@K@std@@V?$allocator@U?$pair@$$CBK_W@std@@@2@$0A@@std@@@std@@QAE@XZ 00428890 f i ClientConnection.obj
 0001:000278c0       ??1?$_Tree@V?$_Tmap_traits@_WKU?$less@_W@std@@V?$allocator@U?$pair@$$CB_WK@std@@@2@$0A@@std@@@std@@QAE@XZ 004288c0 f i ClientConnection.obj
 0001:000278f0       ??1?$_Tree_alloc@$0A@U?$_Tree_base_types@U?$pair@$$CBK_W@std@@V?$allocator@U?$pair@$$CBK_W@std@@@2@@std@@@std@@QAE@XZ 004288f0 f i ClientConnection.obj
 0001:00027930       ??1?$_Tree_alloc@$0A@U?$_Tree_base_types@U?$pair@$$CB_WK@std@@V?$allocator@U?$pair@$$CB_WK@std@@@2@@std@@@std@@QAE@XZ 00428930 f i ClientConnection.obj
 0001:00027970       ??1?$_Tree_buy@U?$pair@$$CBK_W@std@@V?$allocator@U?$pair@$$CBK_W@std@@@2@@std@@QAE@XZ 00428970 f i ClientConnection.obj
 0001:00027990       ??1?$_Tree_buy@U?$pair@$$CB_WK@std@@V?$allocator@U?$pair@$$CB_WK@std@@@2@@std@@QAE@XZ 00428990 f i ClientConnection.obj
 0001:000279b0       ??1?$_Tree_comp@$0A@V?$_Tmap_traits@K_WU?$less@K@std@@V?$allocator@U?$pair@$$CBK_W@std@@@2@$0A@@std@@@std@@QAE@XZ 004289b0 f i ClientConnection.obj
 0001:000279d0       ??1?$_Tree_comp@$0A@V?$_Tmap_traits@_WKU?$less@_W@std@@V?$allocator@U?$pair@$$CB_WK@std@@@2@$0A@@std@@@std@@QAE@XZ 004289d0 f i ClientConnection.obj
 0001:000279f0       ??1?$_Tree_const_iterator@V?$_Tree_val@U?$_Tree_simple_types@U?$pair@$$CBK_W@std@@@std@@@std@@@std@@QAE@XZ 004289f0 f i ClientConnection.obj
 0001:00027a10       ??1?$_Tree_const_iterator@V?$_Tree_val@U?$_Tree_simple_types@U?$pair@$$CB_WK@std@@@std@@@std@@@std@@QAE@XZ 00428a10 f i ClientConnection.obj
 0001:00027a30       ??1?$_Tree_iterator@V?$_Tree_val@U?$_Tree_simple_types@U?$pair@$$CBK_W@std@@@std@@@std@@@std@@QAE@XZ 00428a30 f i ClientConnection.obj
 0001:00027a50       ??1?$_Tree_iterator@V?$_Tree_val@U?$_Tree_simple_types@U?$pair@$$CB_WK@std@@@std@@@std@@@std@@QAE@XZ 00428a50 f i ClientConnection.obj
 0001:00027a70       ??1?$_Tree_unchecked_const_iterator@V?$_Tree_val@U?$_Tree_simple_types@U?$pair@$$CBK_W@std@@@std@@@std@@U_Iterator_base12@2@@std@@QAE@XZ 00428a70 f i ClientConnection.obj
 0001:00027a90       ??1?$_Tree_unchecked_const_iterator@V?$_Tree_val@U?$_Tree_simple_types@U?$pair@$$CB_WK@std@@@std@@@std@@U_Iterator_base12@2@@std@@QAE@XZ 00428a90 f i ClientConnection.obj
 0001:00027ab0       ??1?$_Tree_val@U?$_Tree_simple_types@U?$pair@$$CBK_W@std@@@std@@@std@@QAE@XZ 00428ab0 f i ClientConnection.obj
 0001:00027ad0       ??1?$_Tree_val@U?$_Tree_simple_types@U?$pair@$$CB_WK@std@@@std@@@std@@QAE@XZ 00428ad0 f i ClientConnection.obj
 0001:00027af0       ??1?$_Vector_alloc@$0A@U?$_Vec_base_types@EV?$allocator@E@std@@@std@@@std@@QAE@XZ 00428af0 f i ClientConnection.obj
 0001:00027b20       ??1?$_Vector_alloc@$0A@U?$_Vec_base_types@KV?$allocator@K@std@@@std@@@std@@QAE@XZ 00428b20 f i ClientConnection.obj
 0001:00027b50       ??1?$_Vector_const_iterator@V?$_Vector_val@U?$_Simple_types@E@std@@@std@@@std@@QAE@XZ 00428b50 f i ClientConnection.obj
 0001:00027b70       ??1?$_Vector_const_iterator@V?$_Vector_val@U?$_Simple_types@K@std@@@std@@@std@@QAE@XZ 00428b70 f i ClientConnection.obj
 0001:00027b90       ??1?$_Vector_iterator@V?$_Vector_val@U?$_Simple_types@E@std@@@std@@@std@@QAE@XZ 00428b90 f i ClientConnection.obj
 0001:00027bb0       ??1?$_Vector_iterator@V?$_Vector_val@U?$_Simple_types@K@std@@@std@@@std@@QAE@XZ 00428bb0 f i ClientConnection.obj
 0001:00027bd0       ??1?$_Vector_val@U?$_Simple_types@E@std@@@std@@QAE@XZ 00428bd0 f i ClientConnection.obj
 0001:00027bf0       ??1?$_Vector_val@U?$_Simple_types@K@std@@@std@@QAE@XZ 00428bf0 f i ClientConnection.obj
 0001:00027c10       ??1?$basic_string@DU?$char_traits@D@std@@V?$allocator@D@2@@std@@QAE@XZ 00428c10 f i ClientConnection.obj
 0001:00027c40       ??1?$map@K_WU?$less@K@std@@V?$allocator@U?$pair@$$CBK_W@std@@@2@@std@@QAE@XZ 00428c40 f i ClientConnection.obj
 0001:00027c60       ??1?$map@_WKU?$less@_W@std@@V?$allocator@U?$pair@$$CB_WK@std@@@2@@std@@QAE@XZ 00428c60 f i ClientConnection.obj
 0001:00027c80       ??1?$vector@EV?$allocator@E@std@@@std@@QAE@XZ 00428c80 f i ClientConnection.obj
 0001:00027cb0       ??1?$vector@KV?$allocator@K@std@@@std@@QAE@XZ 00428cb0 f i ClientConnection.obj
 0001:00027ce0       ??1Clipboard@@QAE@XZ       00428ce0 f i ClientConnection.obj
 0001:00027d70       ??1KeyMap@@QAE@XZ          00428d70 f i ClientConnection.obj
 0001:00027f70       ??1ObjectSelector@@QAE@XZ  00428f70 f i ClientConnection.obj
 0001:00027fa0       ??1PaletteSelector@@QAE@XZ 00428fa0 f i ClientConnection.obj
 0001:00027ff0       ??1TempDC@@QAE@XZ          00428ff0 f i ClientConnection.obj
 0001:00028020       ??1_Iterator_base12@std@@QAE@XZ 00429020 f i ClientConnection.obj
 0001:00028050       ??1omni_mutex_conditional_lock@@QAE@XZ 00429050 f i ClientConnection.obj
 0001:00028080       ??1omni_mutex_lock@@QAE@XZ 00429080 f i ClientConnection.obj
 0001:000280a0       ??4?$basic_string@DU?$char_traits@D@std@@V?$allocator@D@2@@std@@QAEAAV01@ABV01@@Z 004290a0 f i ClientConnection.obj
 0001:00028140       ??4?$basic_string@DU?$char_traits@D@std@@V?$allocator@D@2@@std@@QAEAAV01@PBD@Z 00429140 f i ClientConnection.obj
 0001:00028160       ??4_Iterator_base12@std@@QAEAAU01@ABU01@@Z 00429160 f i ClientConnection.obj
 0001:00028210       ??8?$_Tree_const_iterator@V?$_Tree_val@U?$_Tree_simple_types@U?$pair@$$CBK_W@std@@@std@@@std@@@std@@QBE_NABV01@@Z 00429210 f i ClientConnection.obj
 0001:00028300       ??8?$_Tree_const_iterator@V?$_Tree_val@U?$_Tree_simple_types@U?$pair@$$CB_WK@std@@@std@@@std@@@std@@QBE_NABV01@@Z 00429300 f i ClientConnection.obj
 0001:000283f0       ??8?$_Vector_const_iterator@V?$_Vector_val@U?$_Simple_types@E@std@@@std@@@std@@QBE_NABV01@@Z 004293f0 f i ClientConnection.obj
 0001:00028440       ??8?$_Vector_const_iterator@V?$_Vector_val@U?$_Simple_types@K@std@@@std@@@std@@QBE_NABV01@@Z 00429440 f i ClientConnection.obj
 0001:00028490       ??9?$_Tree_const_iterator@V?$_Tree_val@U?$_Tree_simple_types@U?$pair@$$CBK_W@std@@@std@@@std@@@std@@QBE_NABV01@@Z 00429490 f i ClientConnection.obj
 0001:000284e0       ??9?$_Tree_const_iterator@V?$_Tree_val@U?$_Tree_simple_types@U?$pair@$$CB_WK@std@@@std@@@std@@@std@@QBE_NABV01@@Z 004294e0 f i ClientConnection.obj
 0001:00028530       ??9?$_Vector_const_iterator@V?$_Vector_val@U?$_Simple_types@E@std@@@std@@@std@@QBE_NABV01@@Z 00429530 f i ClientConnection.obj
 0001:00028580       ??9?$_Vector_const_iterator@V?$_Vector_val@U?$_Simple_types@K@std@@@std@@@std@@QBE_NABV01@@Z 00429580 f i ClientConnection.obj
 0001:000285d0       ??BTempDC@@QAEPAUHDC__@@XZ 004295d0 f i ClientConnection.obj
 0001:000285f0       ??D?$_Vector_const_iterator@V?$_Vector_val@U?$_Simple_types@E@std@@@std@@@std@@QBEABEXZ 004295f0 f i ClientConnection.obj
 0001:000286d0       ??D?$_Vector_iterator@V?$_Vector_val@U?$_Simple_types@E@std@@@std@@@std@@QBEAAEXZ 004296d0 f i ClientConnection.obj
 0001:000286f0       ??E?$_Tree_const_iterator@V?$_Tree_val@U?$_Tree_simple_types@U?$pair@$$CBK_W@std@@@std@@@std@@@std@@QAE?AV01@H@Z 004296f0 f i ClientConnection.obj
 0001:000287a0       ??E?$_Tree_const_iterator@V?$_Tree_val@U?$_Tree_simple_types@U?$pair@$$CBK_W@std@@@std@@@std@@@std@@QAEAAV01@XZ 004297a0 f i ClientConnection.obj
 0001:00028880       ??E?$_Tree_const_iterator@V?$_Tree_val@U?$_Tree_simple_types@U?$pair@$$CB_WK@std@@@std@@@std@@@std@@QAE?AV01@H@Z 00429880 f i ClientConnection.obj
 0001:00028930       ??E?$_Tree_const_iterator@V?$_Tree_val@U?$_Tree_simple_types@U?$pair@$$CB_WK@std@@@std@@@std@@@std@@QAEAAV01@XZ 00429930 f i ClientConnection.obj
 0001:00028a10       ??E?$_Tree_unchecked_const_iterator@V?$_Tree_val@U?$_Tree_simple_types@U?$pair@$$CBK_W@std@@@std@@@std@@U_Iterator_base12@2@@std@@QAEAAV01@XZ 00429a10 f i ClientConnection.obj
 0001:00028b00       ??E?$_Tree_unchecked_const_iterator@V?$_Tree_val@U?$_Tree_simple_types@U?$pair@$$CB_WK@std@@@std@@@std@@U_Iterator_base12@2@@std@@QAEAAV01@XZ 00429b00 f i ClientConnection.obj
 0001:00028bf0       ??E?$_Vector_const_iterator@V?$_Vector_val@U?$_Simple_types@E@std@@@std@@@std@@QAEAAV01@XZ 00429bf0 f i ClientConnection.obj
 0001:00028cc0       ??E?$_Vector_iterator@V?$_Vector_val@U?$_Simple_types@E@std@@@std@@@std@@QAE?AV01@H@Z 00429cc0 f i ClientConnection.obj
 0001:00028d70       ??E?$_Vector_iterator@V?$_Vector_val@U?$_Simple_types@E@std@@@std@@@std@@QAEAAV01@XZ 00429d70 f i ClientConnection.obj
 0001:00028d90       ??M?$_Vector_const_iterator@V?$_Vector_val@U?$_Simple_types@E@std@@@std@@@std@@QBE_NABV01@@Z 00429d90 f i ClientConnection.obj
 0001:00028de0       ??M?$_Vector_const_iterator@V?$_Vector_val@U?$_Simple_types@K@std@@@std@@@std@@QBE_NABV01@@Z 00429de0 f i ClientConnection.obj
 0001:00028e30       ??_GClientConnection@@UAEPAXI@Z 00429e30 f i ClientConnection.obj
 0001:00028e30       ??_EClientConnection@@UAEPAXI@Z 00429e30 f i ClientConnection.obj
 0001:00028e70       ??_EErrorException@@UAEPAXI@Z 00429e70 f i ClientConnection.obj
 0001:00028e70       ??_GErrorException@@UAEPAXI@Z 00429e70 f i ClientConnection.obj
 0001:00028eb0       ??_EException@@UAEPAXI@Z   00429eb0 f i ClientConnection.obj
 0001:00028eb0       ??_GException@@UAEPAXI@Z   00429eb0 f i ClientConnection.obj
 0001:00028ef0       ??_GKeyMap@@QAEPAXI@Z      00429ef0 f i ClientConnection.obj
 0001:00028f30       ??_EQuietException@@UAEPAXI@Z 00429f30 f i ClientConnection.obj
 0001:00028f30       ??_GQuietException@@UAEPAXI@Z 00429f30 f i ClientConnection.obj
 0001:00028f70       ??_GWarningException@@UAEPAXI@Z 00429f70 f i ClientConnection.obj
 0001:00028f70       ??_EWarningException@@UAEPAXI@Z 00429f70 f i ClientConnection.obj
 0001:00028fb0       ?CheckNetRectBufferSize@ClientConnection@@AAEXH@Z 00429fb0 f i ClientConnection.obj
 0001:000290c0       ?CheckZRLENetRectBufferSize@ClientConnection@@AAEXH@Z 0042a0c0 f i ClientConnection.obj
 0001:000291d0       ?DoBlit@ClientConnection@@AAEXXZ 0042a1d0 f i ClientConnection.obj
 0001:00029480       ?GetBytesRead@FdInStream@rdr@@QAE_JXZ 0042a480 f i ClientConnection.obj
 0001:000294a0       ?GetPluginAuthor@CDSMPlugin@@QAEPADXZ 0042a4a0 f i ClientConnection.obj
 0001:000294c0       ?GetPluginName@CDSMPlugin@@QAEPADXZ 0042a4c0 f i ClientConnection.obj
 0001:000294e0       ?GetPluginVersion@CDSMPlugin@@QAEPADXZ 0042a4e0 f i ClientConnection.obj
 0001:00029500       ?GetReadFromMemoryBuffer@FdInStream@rdr@@QAE_NXZ 0042a500 f i ClientConnection.obj
 0001:00029520       ?GetSafeHwnd@CTitleBar@@QAEPAUHWND__@@XZ 0042a520 f i ClientConnection.obj
 0001:00029540       ?IsEnabled@CDSMPlugin@@QAE_NXZ 0042a540 f i ClientConnection.obj
 0001:00029560       ?IsLoaded@CDSMPlugin@@QAE_NXZ 0042a560 f i ClientConnection.obj
 0001:00029580       ?Print@Log@@QAAXHPADZZ     0042a580 f i ClientConnection.obj
 0001:000295c0       ?ProcessKeyEvent@ClientConnection@@AAEXHK@Z 0042a5c0 f i ClientConnection.obj
 0001:00029990       ?ProcessMouseWheel@ClientConnection@@AAEXH@Z 0042a990 f i ClientConnection.obj
 0001:00029a50       ?ProcessPointerEvent@ClientConnection@@AAE_NHHKI@Z 0042aa50 f i ClientConnection.obj
 0001:00029ee0       ?ReadScreenUpdate@ClientConnection@@AAEXXZ 0042aee0 f i ClientConnection.obj
 0001:0002b910       ?SendKeyEvent@ClientConnection@@QAEXK_N@Z 0042c910 f i ClientConnection.obj
 0001:0002ba30       ?SendPointerEvent@ClientConnection@@AAEXHHH@Z 0042ca30 f i ClientConnection.obj
 0001:0002bb90       ?SetDSMMode@FdInStream@rdr@@QAEX_N@Z 0042cb90 f i ClientConnection.obj
 0001:0002bbb0       ?SetWindowHandle@AccelKeys@@QAEXPAUHWND__@@@Z 0042cbb0 f i ClientConnection.obj
 0001:0002bbd0       ?ShouldThrottle@PendingMouseMove@ClientConnection@@QAE_N_N@Z 0042cbd0 f i ClientConnection.obj
 0001:0002bc40       ?SubProcessPointerEvent@ClientConnection@@AAEXHHK@Z 0042cc40 f i ClientConnection.obj
 0001:0002bf80       ?UpdateScrollbars@ClientConnection@@AAEXXZ 0042cf80 f i ClientConnection.obj
 0001:0002c0c0       ?UsingOldProtocol@FileTransfer@@QAE_NXZ 0042d0c0 f i ClientConnection.obj
 0001:0002c100       ?_Adopt@_Iterator_base12@std@@QAEXPBU_Container_base12@2@@Z 0042d100 f i ClientConnection.obj
 0001:0002c1f0       ?_Alloc_proxy@?$_Vector_alloc@$0A@U?$_Vec_base_types@EV?$allocator@E@std@@@std@@@std@@QAEXXZ 0042d1f0 f i ClientConnection.obj
 0001:0002c250       ?_Alloc_proxy@?$_Vector_alloc@$0A@U?$_Vec_base_types@KV?$allocator@K@std@@@std@@@std@@QAEXXZ 0042d250 f i ClientConnection.obj
 0001:0002c2b0       ?_Change_alloc@?$_String_alloc@$0A@U?$_String_base_types@DV?$allocator@D@std@@@std@@@std@@QAEXABU?$_Wrap_alloc@V?$allocator@D@std@@@2@@Z 0042d2b0 f i ClientConnection.obj
 0001:0002c2c0       ?_Clrcont@_Iterator_base12@std@@QAEXXZ 0042d2c0 f i ClientConnection.obj
 0001:0002c2e0       ?_Color@?$_Tree_val@U?$_Tree_simple_types@U?$pair@$$CBK_W@std@@@std@@@std@@SAAADPAU?$_Tree_node@U?$pair@$$CBK_W@std@@PAX@2@@Z 0042d2e0 f i ClientConnection.obj
 0001:0002c2f0       ?_Color@?$_Tree_val@U?$_Tree_simple_types@U?$pair@$$CB_WK@std@@@std@@@std@@SAAADPAU?$_Tree_node@U?$pair@$$CB_WK@std@@PAX@2@@Z 0042d2f0 f i ClientConnection.obj
 0001:0002c300       ?_Compat@?$_Vector_const_iterator@V?$_Vector_val@U?$_Simple_types@E@std@@@std@@@std@@QBEXABV12@@Z 0042d300 f i ClientConnection.obj
 0001:0002c3c0       ?_Compat@?$_Vector_const_iterator@V?$_Vector_val@U?$_Simple_types@K@std@@@std@@@std@@QBEXABV12@@Z 0042d3c0 f i ClientConnection.obj
 0001:0002c480       ?_Destroy@?$vector@EV?$allocator@E@std@@@std@@IAEXPAE0@Z 0042d480 f i ClientConnection.obj
 0001:0002c4c0       ?_Destroy@?$vector@KV?$allocator@K@std@@@std@@IAEXPAK0@Z 0042d4c0 f i ClientConnection.obj
 0001:0002c500       ?_Erase@?$_Tree@V?$_Tmap_traits@K_WU?$less@K@std@@V?$allocator@U?$pair@$$CBK_W@std@@@2@$0A@@std@@@std@@IAEXPAU?$_Tree_node@U?$pair@$$CBK_W@std@@PAX@2@@Z 0042d500 f i ClientConnection.obj
 0001:0002c5d0       ?_Erase@?$_Tree@V?$_Tmap_traits@_WKU?$less@_W@std@@V?$allocator@U?$pair@$$CB_WK@std@@@2@$0A@@std@@@std@@IAEXPAU?$_Tree_node@U?$pair@$$CB_WK@std@@PAX@2@@Z 0042d5d0 f i ClientConnection.obj
 0001:0002c6a0       ?_Free_proxy@?$_Tree_alloc@$0A@U?$_Tree_base_types@U?$pair@$$CBK_W@std@@V?$allocator@U?$pair@$$CBK_W@std@@@2@@std@@@std@@QAEXXZ 0042d6a0 f i ClientConnection.obj
 0001:0002c710       ?_Free_proxy@?$_Tree_alloc@$0A@U?$_Tree_base_types@U?$pair@$$CB_WK@std@@V?$allocator@U?$pair@$$CB_WK@std@@@2@@std@@@std@@QAEXXZ 0042d710 f i ClientConnection.obj
 0001:0002c780       ?_Free_proxy@?$_Vector_alloc@$0A@U?$_Vec_base_types@EV?$allocator@E@std@@@std@@@std@@QAEXXZ 0042d780 f i ClientConnection.obj
 0001:0002c7e0       ?_Free_proxy@?$_Vector_alloc@$0A@U?$_Vec_base_types@KV?$allocator@K@std@@@std@@@std@@QAEXXZ 0042d7e0 f i ClientConnection.obj
 0001:0002c840       ?_Freeheadnode@?$_Tree_alloc@$0A@U?$_Tree_base_types@U?$pair@$$CBK_W@std@@V?$allocator@U?$pair@$$CBK_W@std@@@2@@std@@@std@@QAEXPAU?$_Tree_node@U?$pair@$$CBK_W@std@@PAX@2@@Z 0042d840 f i ClientConnection.obj
 0001:0002c910       ?_Freeheadnode@?$_Tree_alloc@$0A@U?$_Tree_base_types@U?$pair@$$CB_WK@std@@V?$allocator@U?$pair@$$CB_WK@std@@@2@@std@@@std@@QAEXPAU?$_Tree_node@U?$pair@$$CB_WK@std@@PAX@2@@Z 0042d910 f i ClientConnection.obj
 0001:0002c9e0       ?_Getal@?$_Tree_alloc@$0A@U?$_Tree_base_types@U?$pair@$$CBK_W@std@@V?$allocator@U?$pair@$$CBK_W@std@@@2@@std@@@std@@QBE?AU?$_Wrap_alloc@V?$allocator@U?$_Tree_node@U?$pair@$$CBK_W@std@@PAX@std@@@std@@@2@XZ 0042d9e0 f i ClientConnection.obj
 0001:0002ca00       ?_Getal@?$_Tree_alloc@$0A@U?$_Tree_base_types@U?$pair@$$CB_WK@std@@V?$allocator@U?$pair@$$CB_WK@std@@@2@@std@@@std@@QBE?AU?$_Wrap_alloc@V?$allocator@U?$_Tree_node@U?$pair@$$CB_WK@std@@PAX@std@@@std@@@2@XZ 0042da00 f i ClientConnection.obj
 0001:0002ca20       ?_Getal@?$_Vector_alloc@$0A@U?$_Vec_base_types@EV?$allocator@E@std@@@std@@@std@@QBE?AU?$_Wrap_alloc@V?$allocator@E@std@@@2@XZ 0042da20 f i ClientConnection.obj
 0001:0002ca40       ?_Getal@?$_Vector_alloc@$0A@U?$_Vec_base_types@KV?$allocator@K@std@@@std@@@std@@QBE?AU?$_Wrap_alloc@V?$allocator@K@std@@@2@XZ 0042da40 f i ClientConnection.obj
 0001:0002ca60       ?_Getcont@_Iterator_base12@std@@QBEPBU_Container_base12@2@XZ 0042da60 f i ClientConnection.obj
 0001:0002caa0       ?_Getpfirst@_Container_base12@std@@QBEPAPAU_Iterator_base12@2@XZ 0042daa0 f i ClientConnection.obj
 0001:0002cae0       ?_Getpnext@_Iterator_base12@std@@QAEPAPAU12@XZ 0042dae0 f i ClientConnection.obj
 0001:0002cb00       ?_Grow_to@?$vector@EV?$allocator@E@std@@@std@@IBEII@Z 0042db00 f i ClientConnection.obj
 0001:0002cb70       ?_Grow_to@?$vector@KV?$allocator@K@std@@@std@@IBEII@Z 0042db70 f i ClientConnection.obj
 0001:0002cbe0       ?_Inside@?$vector@EV?$allocator@E@std@@@std@@IBE_NPBE@Z 0042dbe0 f i ClientConnection.obj
 0001:0002cc30       ?_Inside@?$vector@KV?$allocator@K@std@@@std@@IBE_NPBK@Z 0042dc30 f i ClientConnection.obj
 0001:0002cc80       ?_Isnil@?$_Tree_val@U?$_Tree_simple_types@U?$pair@$$CBK_W@std@@@std@@@std@@SAAADPAU?$_Tree_node@U?$pair@$$CBK_W@std@@PAX@2@@Z 0042dc80 f i ClientConnection.obj
 0001:0002cc90       ?_Isnil@?$_Tree_val@U?$_Tree_simple_types@U?$pair@$$CB_WK@std@@@std@@@std@@SAAADPAU?$_Tree_node@U?$pair@$$CB_WK@std@@PAX@2@@Z 0042dc90 f i ClientConnection.obj
 0001:0002cca0       ?_Left@?$_Tree_val@U?$_Tree_simple_types@U?$pair@$$CBK_W@std@@@std@@@std@@SAAAPAU?$_Tree_node@U?$pair@$$CBK_W@std@@PAX@2@PAU32@@Z 0042dca0 f i ClientConnection.obj
 0001:0002ccb0       ?_Left@?$_Tree_val@U?$_Tree_simple_types@U?$pair@$$CB_WK@std@@@std@@@std@@SAAAPAU?$_Tree_node@U?$pair@$$CB_WK@std@@PAX@2@PAU32@@Z 0042dcb0 f i ClientConnection.obj
 0001:0002ccc0       ?_Lmost@?$_Tree@V?$_Tmap_traits@K_WU?$less@K@std@@V?$allocator@U?$pair@$$CBK_W@std@@@2@$0A@@std@@@std@@IBEAAPAU?$_Tree_node@U?$pair@$$CBK_W@std@@PAX@2@XZ 0042dcc0 f i ClientConnection.obj
 0001:0002cce0       ?_Lmost@?$_Tree@V?$_Tmap_traits@_WKU?$less@_W@std@@V?$allocator@U?$pair@$$CB_WK@std@@@2@$0A@@std@@@std@@IBEAAPAU?$_Tree_node@U?$pair@$$CB_WK@std@@PAX@2@XZ 0042dce0 f i ClientConnection.obj
 0001:0002cd00       ?_Lrotate@?$_Tree@V?$_Tmap_traits@K_WU?$less@K@std@@V?$allocator@U?$pair@$$CBK_W@std@@@2@$0A@@std@@@std@@IAEXPAU?$_Tree_node@U?$pair@$$CBK_W@std@@PAX@2@@Z 0042dd00 f i ClientConnection.obj
 0001:0002ce80       ?_Lrotate@?$_Tree@V?$_Tmap_traits@_WKU?$less@_W@std@@V?$allocator@U?$pair@$$CB_WK@std@@@2@$0A@@std@@@std@@IAEXPAU?$_Tree_node@U?$pair@$$CB_WK@std@@PAX@2@@Z 0042de80 f i ClientConnection.obj
 0001:0002d000       ?_Max@?$_Tree_val@U?$_Tree_simple_types@U?$pair@$$CBK_W@std@@@std@@@std@@SAPAU?$_Tree_node@U?$pair@$$CBK_W@std@@PAX@2@PAU32@@Z 0042e000 f i ClientConnection.obj
 0001:0002d050       ?_Max@?$_Tree_val@U?$_Tree_simple_types@U?$pair@$$CB_WK@std@@@std@@@std@@SAPAU?$_Tree_node@U?$pair@$$CB_WK@std@@PAX@2@PAU32@@Z 0042e050 f i ClientConnection.obj
 0001:0002d0a0       ?_Min@?$_Tree_val@U?$_Tree_simple_types@U?$pair@$$CBK_W@std@@@std@@@std@@SAPAU?$_Tree_node@U?$pair@$$CBK_W@std@@PAX@2@PAU32@@Z 0042e0a0 f i ClientConnection.obj
 0001:0002d0f0       ?_Min@?$_Tree_val@U?$_Tree_simple_types@U?$pair@$$CB_WK@std@@@std@@@std@@SAPAU?$_Tree_node@U?$pair@$$CB_WK@std@@PAX@2@PAU32@@Z 0042e0f0 f i ClientConnection.obj
 0001:0002d140       ?_Mynode@?$_Tree_unchecked_const_iterator@V?$_Tree_val@U?$_Tree_simple_types@U?$pair@$$CBK_W@std@@@std@@@std@@U_Iterator_base12@2@@std@@QBEPAU?$_Tree_node@U?$pair@$$CBK_W@std@@PAX@2@XZ 0042e140 f i ClientConnection.obj
 0001:0002d160       ?_Mynode@?$_Tree_unchecked_const_iterator@V?$_Tree_val@U?$_Tree_simple_types@U?$pair@$$CB_WK@std@@@std@@@std@@U_Iterator_base12@2@@std@@QBEPAU?$_Tree_node@U?$pair@$$CB_WK@std@@PAX@2@XZ 0042e160 f i ClientConnection.obj
 0001:0002d180       ?_Myval@?$_Tree_val@U?$_Tree_simple_types@U?$pair@$$CBK_W@std@@@std@@@std@@SAAAU?$pair@$$CBK_W@2@PAU?$_Tree_node@U?$pair@$$CBK_W@std@@PAX@2@@Z 0042e180 f i ClientConnection.obj
 0001:0002d190       ?_Myval@?$_Tree_val@U?$_Tree_simple_types@U?$pair@$$CB_WK@std@@@std@@@std@@SAAAU?$pair@$$CB_WK@2@PAU?$_Tree_node@U?$pair@$$CB_WK@std@@PAX@2@@Z 0042e190 f i ClientConnection.obj
 0001:0002d1a0       ?_Orphan_me@_Iterator_base12@std@@QAEXXZ 0042e1a0 f i ClientConnection.obj
 0001:0002d230       ?_Orphan_ptr@?$_Tree@V?$_Tmap_traits@K_WU?$less@K@std@@V?$allocator@U?$pair@$$CBK_W@std@@@2@$0A@@std@@@std@@IBEXAAV12@PAU?$_Tree_node@U?$pair@$$CBK_W@std@@PAX@2@@Z 0042e230 f i ClientConnection.obj
 0001:0002d330       ?_Orphan_ptr@?$_Tree@V?$_Tmap_traits@_WKU?$less@_W@std@@V?$allocator@U?$pair@$$CB_WK@std@@@2@$0A@@std@@@std@@IBEXAAV12@PAU?$_Tree_node@U?$pair@$$CB_WK@std@@PAX@2@@Z 0042e330 f i ClientConnection.obj
 0001:0002d430       ?_Orphan_range@?$vector@EV?$allocator@E@std@@@std@@IBEXPAE0@Z 0042e430 f i ClientConnection.obj
 0001:0002d520       ?_Orphan_range@?$vector@KV?$allocator@K@std@@@std@@IBEXPAK0@Z 0042e520 f i ClientConnection.obj
 0001:0002d610       ?_Parent@?$_Tree_val@U?$_Tree_simple_types@U?$pair@$$CBK_W@std@@@std@@@std@@SAAAPAU?$_Tree_node@U?$pair@$$CBK_W@std@@PAX@2@PAU32@@Z 0042e610 f i ClientConnection.obj
 0001:0002d620       ?_Parent@?$_Tree_val@U?$_Tree_simple_types@U?$pair@$$CB_WK@std@@@std@@@std@@SAAAPAU?$_Tree_node@U?$pair@$$CB_WK@std@@PAX@2@PAU32@@Z 0042e620 f i ClientConnection.obj
 0001:0002d630       ?_Reallocate@?$vector@EV?$allocator@E@std@@@std@@IAEXI@Z 0042e630 f i ClientConnection.obj
 0001:0002d7c0       ?_Reallocate@?$vector@KV?$allocator@K@std@@@std@@IAEXI@Z 0042e7c0 f i ClientConnection.obj
 0001:0002d950       ?_Rechecked@?$_Vector_iterator@V?$_Vector_val@U?$_Simple_types@E@std@@@std@@@std@@QAEAAV12@PAE@Z 0042e950 f i ClientConnection.obj
 0001:0002d970       ?_Rechecked@?$_Vector_iterator@V?$_Vector_val@U?$_Simple_types@K@std@@@std@@@std@@QAEAAV12@PAK@Z 0042e970 f i ClientConnection.obj
 0001:0002d990       ?_Reserve@?$vector@EV?$allocator@E@std@@@std@@IAEXI@Z 0042e990 f i ClientConnection.obj
 0001:0002da00       ?_Reserve@?$vector@KV?$allocator@K@std@@@std@@IAEXI@Z 0042ea00 f i ClientConnection.obj
 0001:0002da70       ?_Right@?$_Tree_val@U?$_Tree_simple_types@U?$pair@$$CBK_W@std@@@std@@@std@@SAAAPAU?$_Tree_node@U?$pair@$$CBK_W@std@@PAX@2@PAU32@@Z 0042ea70 f i ClientConnection.obj
 0001:0002da80       ?_Right@?$_Tree_val@U?$_Tree_simple_types@U?$pair@$$CB_WK@std@@@std@@@std@@SAAAPAU?$_Tree_node@U?$pair@$$CB_WK@std@@PAX@2@PAU32@@Z 0042ea80 f i ClientConnection.obj
 0001:0002da90       ?_Rmost@?$_Tree@V?$_Tmap_traits@K_WU?$less@K@std@@V?$allocator@U?$pair@$$CBK_W@std@@@2@$0A@@std@@@std@@IBEAAPAU?$_Tree_node@U?$pair@$$CBK_W@std@@PAX@2@XZ 0042ea90 f i ClientConnection.obj
 0001:0002dab0       ?_Rmost@?$_Tree@V?$_Tmap_traits@_WKU?$less@_W@std@@V?$allocator@U?$pair@$$CB_WK@std@@@2@$0A@@std@@@std@@IBEAAPAU?$_Tree_node@U?$pair@$$CB_WK@std@@PAX@2@XZ 0042eab0 f i ClientConnection.obj
 0001:0002dad0       ?_Root@?$_Tree@V?$_Tmap_traits@K_WU?$less@K@std@@V?$allocator@U?$pair@$$CBK_W@std@@@2@$0A@@std@@@std@@IBEAAPAU?$_Tree_node@U?$pair@$$CBK_W@std@@PAX@2@XZ 0042ead0 f i ClientConnection.obj
 0001:0002daf0       ?_Root@?$_Tree@V?$_Tmap_traits@_WKU?$less@_W@std@@V?$allocator@U?$pair@$$CB_WK@std@@@2@$0A@@std@@@std@@IBEAAPAU?$_Tree_node@U?$pair@$$CB_WK@std@@PAX@2@XZ 0042eaf0 f i ClientConnection.obj
 0001:0002db10       ?_Rrotate@?$_Tree@V?$_Tmap_traits@K_WU?$less@K@std@@V?$allocator@U?$pair@$$CBK_W@std@@@2@$0A@@std@@@std@@IAEXPAU?$_Tree_node@U?$pair@$$CBK_W@std@@PAX@2@@Z 0042eb10 f i ClientConnection.obj
 0001:0002dc90       ?_Rrotate@?$_Tree@V?$_Tmap_traits@_WKU?$less@_W@std@@V?$allocator@U?$pair@$$CB_WK@std@@@2@$0A@@std@@@std@@IAEXPAU?$_Tree_node@U?$pair@$$CB_WK@std@@PAX@2@@Z 0042ec90 f i ClientConnection.obj
 0001:0002de10       ?_Tidy@?$_Tree@V?$_Tmap_traits@K_WU?$less@K@std@@V?$allocator@U?$pair@$$CBK_W@std@@@2@$0A@@std@@@std@@IAEXXZ 0042ee10 f i ClientConnection.obj
 0001:0002df20       ?_Tidy@?$_Tree@V?$_Tmap_traits@_WKU?$less@_W@std@@V?$allocator@U?$pair@$$CB_WK@std@@@2@$0A@@std@@@std@@IAEXXZ 0042ef20 f i ClientConnection.obj
 0001:0002e030       ?_Tidy@?$vector@EV?$allocator@E@std@@@std@@IAEXXZ 0042f030 f i ClientConnection.obj
 0001:0002e0d0       ?_Tidy@?$vector@KV?$allocator@K@std@@@std@@IAEXXZ 0042f0d0 f i ClientConnection.obj
 0001:0002e170       ?_Unchecked@?$_Vector_iterator@V?$_Vector_val@U?$_Simple_types@E@std@@@std@@@std@@QBEPAEXZ 0042f170 f i ClientConnection.obj
 0001:0002e190       ?_Unchecked@?$_Vector_iterator@V?$_Vector_val@U?$_Simple_types@K@std@@@std@@@std@@QBEPAKXZ 0042f190 f i ClientConnection.obj
 0001:0002e1b0       ?_Unused_capacity@?$vector@EV?$allocator@E@std@@@std@@QBEIXZ 0042f1b0 f i ClientConnection.obj
 0001:0002e1d0       ?_Unused_capacity@?$vector@KV?$allocator@K@std@@@std@@QBEIXZ 0042f1d0 f i ClientConnection.obj
 0001:0002e1f0       ?_Xlen@?$vector@EV?$allocator@E@std@@@std@@IBEXXZ 0042f1f0 f i ClientConnection.obj
 0001:0002e210       ?_Xlen@?$vector@KV?$allocator@K@std@@@std@@IBEXXZ 0042f210 f i ClientConnection.obj
 0001:0002e230       ?allocate@?$_Wrap_alloc@V?$allocator@E@std@@@std@@QAEPAEI@Z 0042f230 f i ClientConnection.obj
 0001:0002e250       ?allocate@?$_Wrap_alloc@V?$allocator@K@std@@@std@@QAEPAKI@Z 0042f250 f i ClientConnection.obj
 0001:0002e270       ?allocate@?$_Wrap_alloc@V?$allocator@U_Container_proxy@std@@@std@@@std@@QAEPAU_Container_proxy@2@I@Z 0042f270 f i ClientConnection.obj
 0001:0002e290       ?allocate@?$allocator@E@std@@QAEPAEI@Z 0042f290 f i ClientConnection.obj
 0001:0002e2c0       ?allocate@?$allocator@K@std@@QAEPAKI@Z 0042f2c0 f i ClientConnection.obj
 0001:0002e2f0       ?assign@?$basic_string@DU?$char_traits@D@std@@V?$allocator@D@2@@std@@QAEAAV12@ABV12@@Z 0042f2f0 f i ClientConnection.obj
 0001:0002e320       ?begin@?$_Tree@V?$_Tmap_traits@K_WU?$less@K@std@@V?$allocator@U?$pair@$$CBK_W@std@@@2@$0A@@std@@@std@@QAE?AV?$_Tree_iterator@V?$_Tree_val@U?$_Tree_simple_types@U?$pair@$$CBK_W@std@@@std@@@std@@@2@XZ 0042f320 f i ClientConnection.obj
 0001:0002e350       ?begin@?$_Tree@V?$_Tmap_traits@_WKU?$less@_W@std@@V?$allocator@U?$pair@$$CB_WK@std@@@2@$0A@@std@@@std@@QAE?AV?$_Tree_iterator@V?$_Tree_val@U?$_Tree_simple_types@U?$pair@$$CB_WK@std@@@std@@@std@@@2@XZ 0042f350 f i ClientConnection.obj
 0001:0002e380       ?begin@?$vector@EV?$allocator@E@std@@@std@@QAE?AV?$_Vector_iterator@V?$_Vector_val@U?$_Simple_types@E@std@@@std@@@2@XZ 0042f380 f i ClientConnection.obj
 0001:0002e3b0       ?begin@?$vector@KV?$allocator@K@std@@@std@@QAE?AV?$_Vector_iterator@V?$_Vector_val@U?$_Simple_types@K@std@@@std@@@2@XZ 0042f3b0 f i ClientConnection.obj
 0001:0002e3e0       ?capacity@?$vector@EV?$allocator@E@std@@@std@@QBEIXZ 0042f3e0 f i ClientConnection.obj
 0001:0002e400       ?capacity@?$vector@KV?$allocator@K@std@@@std@@QBEIXZ 0042f400 f i ClientConnection.obj
 0001:0002e420       ?check@InStream@rdr@@QAEHHH@Z 0042f420 f i ClientConnection.obj
 0001:0002e4a0       ?clear@?$_Tree@V?$_Tmap_traits@K_WU?$less@K@std@@V?$allocator@U?$pair@$$CBK_W@std@@@2@$0A@@std@@@std@@QAEXXZ 0042f4a0 f i ClientConnection.obj
 0001:0002e520       ?clear@?$_Tree@V?$_Tmap_traits@_WKU?$less@_W@std@@V?$allocator@U?$pair@$$CB_WK@std@@@2@$0A@@std@@@std@@QAEXXZ 0042f520 f i ClientConnection.obj
 0001:0002e5a0       ?compare@?$basic_string@DU?$char_traits@D@std@@V?$allocator@D@2@@std@@QBEHABV12@@Z 0042f5a0 f i ClientConnection.obj
 0001:0002e5e0       ?compare@?$basic_string@DU?$char_traits@D@std@@V?$allocator@D@2@@std@@QBEHIIPBDI@Z 0042f5e0 f i ClientConnection.obj
 0001:0002e6f0       ?compare@?$char_traits@D@std@@SAHPBD0I@Z 0042f6f0 f i ClientConnection.obj
 0001:0002e730       ?construct@?$allocator@E@std@@QAEXPAEABE@Z 0042f730 f i ClientConnection.obj
 0001:0002e780       ?construct@?$allocator@K@std@@QAEXPAKABK@Z 0042f780 f i ClientConnection.obj
 0001:0002e7d0       ?deallocate@?$_Wrap_alloc@V?$allocator@E@std@@@std@@QAEXPAEI@Z 0042f7d0 f i ClientConnection.obj
 0001:0002e800       ?deallocate@?$_Wrap_alloc@V?$allocator@K@std@@@std@@QAEXPAKI@Z 0042f800 f i ClientConnection.obj
 0001:0002e830       ?deallocate@?$_Wrap_alloc@V?$allocator@U?$_Tree_node@U?$pair@$$CBK_W@std@@PAX@std@@@std@@@std@@QAEXPAU?$_Tree_node@U?$pair@$$CBK_W@std@@PAX@2@I@Z 0042f830 f i ClientConnection.obj
 0001:0002e860       ?deallocate@?$_Wrap_alloc@V?$allocator@U?$_Tree_node@U?$pair@$$CB_WK@std@@PAX@std@@@std@@@std@@QAEXPAU?$_Tree_node@U?$pair@$$CB_WK@std@@PAX@2@I@Z 0042f860 f i ClientConnection.obj
 0001:0002e890       ?deallocate@?$_Wrap_alloc@V?$allocator@U_Container_proxy@std@@@std@@@std@@QAEXPAU_Container_proxy@2@I@Z 0042f890 f i ClientConnection.obj
 0001:0002e8c0       ?deallocate@?$allocator@E@std@@QAEXPAEI@Z 0042f8c0 f i ClientConnection.obj
 0001:0002e8e0       ?deallocate@?$allocator@K@std@@QAEXPAKI@Z 0042f8e0 f i ClientConnection.obj
 0001:0002e900       ?deallocate@?$allocator@U?$_Tree_node@U?$pair@$$CBK_W@std@@PAX@std@@@std@@QAEXPAU?$_Tree_node@U?$pair@$$CBK_W@std@@PAX@2@I@Z 0042f900 f i ClientConnection.obj
 0001:0002e920       ?deallocate@?$allocator@U?$_Tree_node@U?$pair@$$CB_WK@std@@PAX@std@@@std@@QAEXPAU?$_Tree_node@U?$pair@$$CB_WK@std@@PAX@2@I@Z 0042f920 f i ClientConnection.obj
 0001:0002e940       ?empty@?$basic_string@DU?$char_traits@D@std@@V?$allocator@D@2@@std@@QBE_NXZ 0042f940 f i ClientConnection.obj
 0001:0002e980       ?empty@?$vector@EV?$allocator@E@std@@@std@@QBE_NXZ 0042f980 f i ClientConnection.obj
 0001:0002e9c0       ?end@?$_Tree@V?$_Tmap_traits@K_WU?$less@K@std@@V?$allocator@U?$pair@$$CBK_W@std@@@2@$0A@@std@@@std@@QAE?AV?$_Tree_iterator@V?$_Tree_val@U?$_Tree_simple_types@U?$pair@$$CBK_W@std@@@std@@@std@@@2@XZ 0042f9c0 f i ClientConnection.obj
 0001:0002e9f0       ?end@?$_Tree@V?$_Tmap_traits@_WKU?$less@_W@std@@V?$allocator@U?$pair@$$CB_WK@std@@@2@$0A@@std@@@std@@QAE?AV?$_Tree_iterator@V?$_Tree_val@U?$_Tree_simple_types@U?$pair@$$CB_WK@std@@@std@@@std@@@2@XZ 0042f9f0 f i ClientConnection.obj
 0001:0002ea20       ?end@?$vector@EV?$allocator@E@std@@@std@@QAE?AV?$_Vector_iterator@V?$_Vector_val@U?$_Simple_types@E@std@@@std@@@2@XZ 0042fa20 f i ClientConnection.obj
 0001:0002ea50       ?end@?$vector@KV?$allocator@K@std@@@std@@QAE?AV?$_Vector_iterator@V?$_Vector_val@U?$_Simple_types@K@std@@@std@@@2@XZ 0042fa50 f i ClientConnection.obj
 0001:0002ea80       ?erase@?$_Tree@V?$_Tmap_traits@K_WU?$less@K@std@@V?$allocator@U?$pair@$$CBK_W@std@@@2@$0A@@std@@@std@@QAE?AV?$_Tree_iterator@V?$_Tree_val@U?$_Tree_simple_types@U?$pair@$$CBK_W@std@@@std@@@std@@@2@V?$_Tree_const_iterator@V?$_Tree_val@U?$_Tree_simple_types@U?$pair@$$CBK_W@std@@@std@@@std@@@2@0@Z 0042fa80 f i ClientConnection.obj
 0001:0002ece0       ?erase@?$_Tree@V?$_Tmap_traits@K_WU?$less@K@std@@V?$allocator@U?$pair@$$CBK_W@std@@@2@$0A@@std@@@std@@QAE?AV?$_Tree_iterator@V?$_Tree_val@U?$_Tree_simple_types@U?$pair@$$CBK_W@std@@@std@@@std@@@2@V?$_Tree_const_iterator@V?$_Tree_val@U?$_Tree_simple_types@U?$pair@$$CBK_W@std@@@std@@@std@@@2@@Z 0042fce0 f i ClientConnection.obj
 0001:0002f6f0       ?erase@?$_Tree@V?$_Tmap_traits@_WKU?$less@_W@std@@V?$allocator@U?$pair@$$CB_WK@std@@@2@$0A@@std@@@std@@QAE?AV?$_Tree_iterator@V?$_Tree_val@U?$_Tree_simple_types@U?$pair@$$CB_WK@std@@@std@@@std@@@2@V?$_Tree_const_iterator@V?$_Tree_val@U?$_Tree_simple_types@U?$pair@$$CB_WK@std@@@std@@@std@@@2@0@Z 004306f0 f i ClientConnection.obj
 0001:0002f950       ?erase@?$_Tree@V?$_Tmap_traits@_WKU?$less@_W@std@@V?$allocator@U?$pair@$$CB_WK@std@@@2@$0A@@std@@@std@@QAE?AV?$_Tree_iterator@V?$_Tree_val@U?$_Tree_simple_types@U?$pair@$$CB_WK@std@@@std@@@std@@@2@V?$_Tree_const_iterator@V?$_Tree_val@U?$_Tree_simple_types@U?$pair@$$CB_WK@std@@@std@@@std@@@2@@Z 00430950 f i ClientConnection.obj
 0001:00030360       ?max_size@?$_Wrap_alloc@V?$allocator@E@std@@@std@@QBEIXZ 00431360 f i ClientConnection.obj
 0001:00030380       ?max_size@?$_Wrap_alloc@V?$allocator@K@std@@@std@@QBEIXZ 00431380 f i ClientConnection.obj
 0001:000303a0       ?max_size@?$allocator@E@std@@QBEIXZ 004313a0 f i ClientConnection.obj
 0001:000303c0       ?max_size@?$allocator@K@std@@QBEIXZ 004313c0 f i ClientConnection.obj
 0001:000303e0       ?max_size@?$allocator_traits@V?$allocator@E@std@@@std@@SAIABV?$allocator@E@2@@Z 004313e0 f i ClientConnection.obj
 0001:000303f0       ?max_size@?$allocator_traits@V?$allocator@K@std@@@std@@SAIABV?$allocator@K@2@@Z 004313f0 f i ClientConnection.obj
 0001:00030400       ?max_size@?$vector@EV?$allocator@E@std@@@std@@QBEIXZ 00431400 f i ClientConnection.obj
 0001:00030430       ?max_size@?$vector@KV?$allocator@K@std@@@std@@QBEIXZ 00431430 f i ClientConnection.obj
 0001:00030460       ?memchr@@YAPAXPAXHI@Z      00431460 f i ClientConnection.obj
 0001:00030480       ?push_back@?$vector@EV?$allocator@E@std@@@std@@QAEX$$QAE@Z 00431480 f i ClientConnection.obj
 0001:000305e0       ?push_back@?$vector@EV?$allocator@E@std@@@std@@QAEXABE@Z 004315e0 f i ClientConnection.obj
 0001:00030720       ?push_back@?$vector@KV?$allocator@K@std@@@std@@QAEXABK@Z 00431720 f i ClientConnection.obj
 0001:00030870       ?readU8@InStream@rdr@@QAEEXZ 00431870 f i ClientConnection.obj
 0001:000308c0       ?run@omni_thread@@EAEXPAX@Z 004318c0 f i ClientConnection.obj
 0001:000308d0       ?size@?$vector@EV?$allocator@E@std@@@std@@QBEIXZ 004318d0 f i ClientConnection.obj
 0001:000308f0       ?size@?$vector@KV?$allocator@K@std@@@std@@QBEIXZ 004318f0 f i ClientConnection.obj
 0001:00030910       ?str@Exception@rdr@@UBEPBDXZ 00431910 f i ClientConnection.obj
 0001:00030930       ?SaveArea@ClientConnection@@AAEXAAUtagRECT@@@Z 00431930 f   ClientConnectionCacheRect.obj
 0001:00030a40       ?RestoreArea@ClientConnection@@AAEXAAUtagRECT@@@Z 00431a40 f   ClientConnectionCacheRect.obj
 0001:00030b40       ?ReadCacheRect@ClientConnection@@AAEXPAUrfbFramebufferUpdateRectHeader@@@Z 00431b40 f   ClientConnectionCacheRect.obj
 0001:00030be0       ?ClearCache@ClientConnection@@AAEXXZ 00431be0 f   ClientConnectionCacheRect.obj
 0001:00030c50       ?ReadCacheZip@ClientConnection@@AAEXPAUrfbFramebufferUpdateRectHeader@@PAPAUHRGN__@@@Z 00431c50 f   ClientConnectionCacheRect.obj
 0001:00030ff0       ?ProcessLocalClipboardChange@ClientConnection@@AAEXXZ 00431ff0 f   ClientConnectionClipboard.obj
 0001:00031170       ?UpdateRemoteClipboard@ClientConnection@@AAEXK@Z 00432170 f   ClientConnectionClipboard.obj
 0001:00031560       ?UpdateRemoteClipboardCaps@ClientConnection@@AAEX_N@Z 00432560 f   ClientConnectionClipboard.obj
 0001:000316f0       ?RequestRemoteClipboard@ClientConnection@@AAEXXZ 004326f0 f   ClientConnectionClipboard.obj
 0001:000317f0       ?UpdateLocalClipboard@ClientConnection@@AAEXPADH@Z 004327f0 f   ClientConnectionClipboard.obj
 0001:00031a60       ?SaveClipboardPreferences@ClientConnection@@AAEXXZ 00432a60 f   ClientConnectionClipboard.obj
 0001:00031bc0       ?LoadClipboardPreferences@ClientConnection@@AAE_NXZ 00432bc0 f   ClientConnectionClipboard.obj
 0001:00032050       ?ReadCopyRect@ClientConnection@@AAEXPAUrfbFramebufferUpdateRectHeader@@@Z 00433050 f   ClientConnectionCopyRect.obj
 0001:00032440       ?ReadCoRRERect@ClientConnection@@AAEXPAUrfbFramebufferUpdateRectHeader@@@Z 00433440 f   ClientConnectionCoRRE.obj
 0001:00032b80       ?FillSolidRect_ultra@ClientConnection@@AAEXHHHHHPAE@Z 00433b80 f i ClientConnectionCoRRE.obj
 0001:00032bf0       ?ReadCursorShape@ClientConnection@@AAEXPAUrfbFramebufferUpdateRectHeader@@@Z 00433bf0 f   ClientConnectionCursor.obj
 0001:00033550       ?ReadCursorPos@ClientConnection@@AAEXPAUrfbFramebufferUpdateRectHeader@@@Z 00434550 f   ClientConnectionCursor.obj
 0001:000335e0       ?SoftCursorLockArea@ClientConnection@@AAEXHHHH@Z 004345e0 f   ClientConnectionCursor.obj
 0001:000337f0       ?SoftCursorUnlockScreen@ClientConnection@@AAEXXZ 004347f0 f   ClientConnectionCursor.obj
 0001:000338a0       ?SoftCursorMove@ClientConnection@@AAEXHH@Z 004348a0 f   ClientConnectionCursor.obj
 0001:00033990       ?SoftCursorFree@ClientConnection@@AAEXXZ 00434990 f   ClientConnectionCursor.obj
 0001:00033ac0       ?SoftCursorInLockedArea@ClientConnection@@AAE_NXZ 00434ac0 f   ClientConnectionCursor.obj
 0001:00033b80       ?SoftCursorSaveArea@ClientConnection@@AAEXXZ 00434b80 f   ClientConnectionCursor.obj
 0001:00033c80       ?SoftCursorRestoreArea@ClientConnection@@AAEXXZ 00434c80 f   ClientConnectionCursor.obj
 0001:00033d90       ?SoftCursorDraw@ClientConnection@@AAEXXZ 00434d90 f   ClientConnectionCursor.obj
 0001:00033f90       ?SoftCursorToScreen@ClientConnection@@AAEXPAUtagRECT@@PAUtagPOINT@@@Z 00434f90 f   ClientConnectionCursor.obj
 0001:000340f0       ?InvalidateScreenRect@ClientConnection@@AAEXPBUtagRECT@@@Z 004350f0 f   ClientConnectionCursor.obj
 0001:00034250       ?InvalidateRegion@ClientConnection@@AAEXPBUtagRECT@@PAPAUHRGN__@@@Z 00435250 f   ClientConnectionCursor.obj
 0001:000349c0       ?LoadConnection@ClientConnection@@QAEHPAD_N@Z 004359c0 f   ClientConnectionFile.obj
 0001:00034e10       ?SaveConnection@ClientConnection@@AAEXXZ 00435e10 f   ClientConnectionFile.obj
 0001:00035140       ?Save_Latest_Connection@ClientConnection@@AAEXXZ 00436140 f   ClientConnectionFile.obj
 0001:000352d0       ?ofnInit@@YAXXZ            004362d0 f   ClientConnectionFile.obj
 0001:00035570       ?SetFullScreenMode@ClientConnection@@AAEX_N@Z 00436570 f   ClientConnectionFullScreen.obj
 0001:000355e0       ?InFullScreenMode@ClientConnection@@AAE_NXZ 004365e0 f   ClientConnectionFullScreen.obj
 0001:00035600       ?RealiseFullScreenMode@ClientConnection@@AAEXXZ 00436600 f   ClientConnectionFullScreen.obj
 0001:00035a50       ?BumpScroll@ClientConnection@@AAE_NHH@Z 00436a50 f   ClientConnectionFullScreen.obj
 0001:00035cf0       ?ReadHextileRect@ClientConnection@@AAEXPAUrfbFramebufferUpdateRectHeader@@@Z 00436cf0 f   ClientConnectionHextile.obj
 0001:00035da0       ?HandleHextileEncoding8@ClientConnection@@AAEXHHHH@Z 00436da0 f   ClientConnectionHextile.obj
 0001:000362e0       ?HandleHextileEncoding16@ClientConnection@@AAEXHHHH@Z 004372e0 f   ClientConnectionHextile.obj
 0001:00036820       ?HandleHextileEncoding32@ClientConnection@@AAEXHHHH@Z 00437820 f   ClientConnectionHextile.obj
 0001:00037180       ?ReadRawRect@ClientConnection@@AAEXPAUrfbFramebufferUpdateRectHeader@@@Z 00438180 f   ClientConnectionRaw.obj
 0001:000372e0       ?ReadRRERect@ClientConnection@@AAEXPAUrfbFramebufferUpdateRectHeader@@@Z 004382e0 f   ClientConnectionRRE.obj
 0001:00037ab0       ?ReadTightRect@ClientConnection@@AAEXPAUrfbFramebufferUpdateRectHeader@@@Z 00438ab0 f   ClientConnectionTight.obj
 0001:000385c0       ?ReadCompactLen@ClientConnection@@AAEHXZ 004395c0 f   ClientConnectionTight.obj
 0001:00038640       ?InitFilterCopy@ClientConnection@@AAEHHH@Z 00439640 f   ClientConnectionTight.obj
 0001:00038710       ?InitFilterGradient@ClientConnection@@AAEHHH@Z 00439710 f   ClientConnectionTight.obj
 0001:000387c0       ?InitFilterPalette@ClientConnection@@AAEHHH@Z 004397c0 f   ClientConnectionTight.obj
 0001:00038ca0       ?FilterCopy8@ClientConnection@@AAEXH@Z 00439ca0 f   ClientConnectionTight.obj
 0001:00038e30       ?FilterCopy16@ClientConnection@@AAEXH@Z 00439e30 f   ClientConnectionTight.obj
 0001:00038fc0       ?FilterCopy24@ClientConnection@@AAEXH@Z 00439fc0 f   ClientConnectionTight.obj
 0001:00039120       ?FilterCopy32@ClientConnection@@AAEXH@Z 0043a120 f   ClientConnectionTight.obj
 0001:000392b0       ?FilterGradient8@ClientConnection@@AAEXH@Z 0043a2b0 f   ClientConnectionTight.obj
 0001:00039770       ?FilterGradient16@ClientConnection@@AAEXH@Z 0043a770 f   ClientConnectionTight.obj
 0001:00039c30       ?FilterGradient24@ClientConnection@@AAEXH@Z 0043ac30 f   ClientConnectionTight.obj
 0001:00039f90       ?FilterGradient32@ClientConnection@@AAEXH@Z 0043af90 f   ClientConnectionTight.obj
 0001:0003a450       ?FilterPalette@ClientConnection@@AAEXH@Z 0043b450 f   ClientConnectionTight.obj
 0001:0003a640       ?DecompressJpegRect@ClientConnection@@AAEXHHHH@Z 0043b640 f   ClientConnectionTight.obj
 0001:0003b7b0       ?ReadUltraRect@ClientConnection@@AAEXPAUrfbFramebufferUpdateRectHeader@@@Z 0043c7b0 f   ClientConnectionUltra.obj
 0001:0003b9a0       ?ReadUltraZip@ClientConnection@@AAEXPAUrfbFramebufferUpdateRectHeader@@PAPAUHRGN__@@@Z 0043c9a0 f   ClientConnectionUltra.obj
 0001:0003be40       ?ReadUltra2Rect@ClientConnection@@AAEXPAUrfbFramebufferUpdateRectHeader@@@Z 0043ce40 f   ClientConnectionUltra2.obj
 0001:0003c060       ?DecompressJpegRect@ClientConnection@@AAEXPAEH0HHHUrfbPixelFormat@@@Z 0043d060 f   ClientConnectionUltra2.obj
 0001:0003c6a0       ?ReadZlibRect@ClientConnection@@AAEXPAUrfbFramebufferUpdateRectHeader@@H@Z 0043d6a0 f   ClientConnectionZlib.obj
 0001:0003e210       ?ReadSolidRect@ClientConnection@@AAEXPAUrfbFramebufferUpdateRectHeader@@@Z 0043f210 f   ClientConnectionZlib.obj
 0001:0003e5b0       ?ReadSolMonoZip@ClientConnection@@AAEXPAUrfbFramebufferUpdateRectHeader@@PAPAUHRGN__@@@Z 0043f5b0 f   ClientConnectionZlib.obj
 0001:0003fe20       ?CheckZlibBufferSize@ClientConnection@@AAEXH@Z 00440e20 f   ClientConnectionZlib.obj
 0001:00040d30       ?HandleZlibHexEncoding8@ClientConnection@@AAEXHHHH@Z 00441d30 f   ClientConnectionZlibHex.obj
 0001:000410b0       ?HandleZlibHexEncoding16@ClientConnection@@AAEXHHHH@Z 004420b0 f   ClientConnectionZlibHex.obj
 0001:00041440       ?HandleZlibHexEncoding32@ClientConnection@@AAEXHHHH@Z 00442440 f   ClientConnectionZlibHex.obj
 0001:000417d0       ?HandleZlibHexSubencodingStream8@ClientConnection@@AAEXHHHHH@Z 004427d0 f   ClientConnectionZlibHex.obj
 0001:00041bd0       ?HandleZlibHexSubencodingStream16@ClientConnection@@AAEXHHHHH@Z 00442bd0 f   ClientConnectionZlibHex.obj
 0001:00041fd0       ?HandleZlibHexSubencodingStream32@ClientConnection@@AAEXHHHHH@Z 00442fd0 f   ClientConnectionZlibHex.obj
 0001:000423d0       ?HandleZlibHexSubencodingBuf8@ClientConnection@@AAEXHHHHHPAE@Z 004433d0 f   ClientConnectionZlibHex.obj
 0001:000427c0       ?HandleZlibHexSubencodingBuf16@ClientConnection@@AAEXHHHHHPAE@Z 004437c0 f   ClientConnectionZlibHex.obj
 0001:00042bb0       ?HandleZlibHexSubencodingBuf32@ClientConnection@@AAEXHHHHHPAE@Z 00443bb0 f   ClientConnectionZlibHex.obj
 0001:00042fa0       ?ReadZlibHexRect@ClientConnection@@AAEXPAUrfbFramebufferUpdateRectHeader@@@Z 00443fa0 f   ClientConnectionZlibHex.obj
 0001:00043050       ?zlibDecompress@ClientConnection@@AAE_NPAE0IIPAUz_stream_s@@@Z 00444050 f   ClientConnectionZlibHex.obj
 0001:00043a40       ??0ExtendedClipboardDataMessage@@QAE@XZ 00444a40 f   Clipboard.obj
 0001:00043a90       ??1ExtendedClipboardDataMessage@@QAE@XZ 00444a90 f   Clipboard.obj
 0001:00043ac0       ?Reset@ExtendedClipboardDataMessage@@QAEXXZ 00444ac0 f   Clipboard.obj
 0001:00043b30       ?AddFlag@ExtendedClipboardDataMessage@@QAEXK@Z 00444b30 f   Clipboard.obj
 0001:00043b80       ?HasFlag@ExtendedClipboardDataMessage@@QAE_NK@Z 00444b80 f   Clipboard.obj
 0001:00043be0       ?GetMessageLength@ExtendedClipboardDataMessage@@QAEHXZ 00444be0 f   Clipboard.obj
 0001:00043c00       ?GetDataLength@ExtendedClipboardDataMessage@@QAEHXZ 00444c00 f   Clipboard.obj
 0001:00043c20       ?GetData@ExtendedClipboardDataMessage@@QAEPBEXZ 00444c20 f   Clipboard.obj
 0001:00043c40       ?GetBuffer@ExtendedClipboardDataMessage@@QAEPAEXZ 00444c40 f   Clipboard.obj
 0001:00043c60       ?GetBufferLength@ExtendedClipboardDataMessage@@QAEHXZ 00444c60 f   Clipboard.obj
 0001:00043c80       ?GetCurrentPos@ExtendedClipboardDataMessage@@QAEPBEXZ 00444c80 f   Clipboard.obj
 0001:00043ca0       ?AppendInt@ExtendedClipboardDataMessage@@QAEXK@Z 00444ca0 f   Clipboard.obj
 0001:00043d20       ?AppendBytes@ExtendedClipboardDataMessage@@QAEXPAEH@Z 00444d20 f   Clipboard.obj
 0001:00043d70       ?Advance@ExtendedClipboardDataMessage@@QAEXH@Z 00444d70 f   Clipboard.obj
 0001:00043db0       ?ReadInt@ExtendedClipboardDataMessage@@QAEKXZ 00444db0 f   Clipboard.obj
 0001:00043e20       ?EnsureBufferLength@ExtendedClipboardDataMessage@@QAEXH_N@Z 00444e20 f   Clipboard.obj
 0001:00043f00       ?CountFormats@ExtendedClipboardDataMessage@@QAEHXZ 00444f00 f   Clipboard.obj
 0001:00043f60       ?GetFlags@ExtendedClipboardDataMessage@@QAEKXZ 00444f60 f   Clipboard.obj
 0001:00043fb0       ??0ClipboardSettings@@QAE@K@Z 00444fb0 f   Clipboard.obj
 0001:00044040       ?PrepareCapsPacket@ClipboardSettings@@QAEXAAUExtendedClipboardDataMessage@@@Z 00445040 f   Clipboard.obj
 0001:000440d0       ?HandleCapsPacket@ClipboardSettings@@QAEXAAUExtendedClipboardDataMessage@@_N@Z 004450d0 f   Clipboard.obj
 0001:00044210       ??0ClipboardHolder@@QAE@PAUHWND__@@@Z 00445210 f   Clipboard.obj
 0001:00044250       ??1ClipboardHolder@@QAE@XZ 00445250 f   Clipboard.obj
 0001:00044270       ??0ClipboardData@@QAE@XZ   00445270 f   Clipboard.obj
 0001:000442e0       ??1ClipboardData@@QAE@XZ   004452e0 f   Clipboard.obj
 0001:00044300       ?FreeData@ClipboardData@@QAEXXZ 00445300 f   Clipboard.obj
 0001:00044390       ?Load@ClipboardData@@QAE_NPAUHWND__@@@Z 00445390 f   Clipboard.obj
 0001:00044750       ?Restore@ClipboardData@@QAE_NPAUHWND__@@AAUExtendedClipboardDataMessage@@@Z 00445750 f   Clipboard.obj
 0001:00044d10       ??0Clipboard@@QAE@K@Z      00445d10 f   Clipboard.obj
 0001:00044db0       ?UpdateClipTextEx@Clipboard@@QAE_NAAUClipboardData@@K@Z 00445db0 f   Clipboard.obj
 0001:000458a0       ??$?0V?$_String_iterator@V?$_String_val@U?$_Simple_types@_W@std@@@std@@@std@@X@?$basic_string@DU?$char_traits@D@std@@V?$allocator@D@2@@std@@QAE@V?$_String_iterator@V?$_String_val@U?$_Simple_types@_W@std@@@std@@@1@0@Z 004468a0 f i Clipboard.obj
 0001:000459b0       ??$_Allocate@_W@std@@YAPA_WIPA_W@Z 004469b0 f i Clipboard.obj
 0001:00045a00       ??$_Construct@V?$_String_iterator@V?$_String_val@U?$_Simple_types@_W@std@@@std@@@std@@@?$basic_string@DU?$char_traits@D@std@@V?$allocator@D@2@@std@@QAEXV?$_String_iterator@V?$_String_val@U?$_Simple_types@_W@std@@@std@@@1@0Uforward_iterator_tag@1@@Z 00446a00 f i Clipboard.obj
 0001:00045bd0       ??$_Debug_pointer@V?$_String_iterator@V?$_String_val@U?$_Simple_types@_W@std@@@std@@@std@@@std@@YAXAAV?$_String_iterator@V?$_String_val@U?$_Simple_types@_W@std@@@std@@@0@PB_WI@Z 00446bd0 f i Clipboard.obj
 0001:00045be0       ??$_Debug_pointer@_W@std@@YAXPB_W0I@Z 00446be0 f i Clipboard.obj
 0001:00045c10       ??$_Debug_range2@V?$_String_iterator@V?$_String_val@U?$_Simple_types@_W@std@@@std@@@std@@@std@@YAXV?$_String_iterator@V?$_String_val@U?$_Simple_types@_W@std@@@std@@@0@0PB_WIUrandom_access_iterator_tag@0@@Z 00446c10 f i Clipboard.obj
 0001:00045d00       ??$_Debug_range@V?$_String_iterator@V?$_String_val@U?$_Simple_types@_W@std@@@std@@@std@@@std@@YAXV?$_String_iterator@V?$_String_val@U?$_Simple_types@_W@std@@@std@@@0@0PB_WI@Z 00446d00 f i Clipboard.obj
 0001:00045de0       ??$_Distance2@V?$_String_iterator@V?$_String_val@U?$_Simple_types@_W@std@@@std@@@std@@I@std@@YAXV?$_String_iterator@V?$_String_val@U?$_Simple_types@_W@std@@@std@@@0@0AAIUrandom_access_iterator_tag@0@@Z 00446de0 f i Clipboard.obj
 0001:00045ec0       ??$_Distance@V?$_String_iterator@V?$_String_val@U?$_Simple_types@_W@std@@@std@@@std@@I@std@@YAXV?$_String_iterator@V?$_String_val@U?$_Simple_types@_W@std@@@std@@@0@0AAI@Z 00446ec0 f i Clipboard.obj
 0001:00045fa0       ??$_Iter_cat@V?$_String_iterator@V?$_String_val@U?$_Simple_types@_W@std@@@std@@@std@@@std@@YA?AUrandom_access_iterator_tag@0@ABV?$_String_iterator@V?$_String_val@U?$_Simple_types@_W@std@@@std@@@0@@Z 00446fa0 f i Clipboard.obj
 0001:00045fc0       ??$addressof@_W@std@@YAPA_WAA_W@Z 00446fc0 f i Clipboard.obj
 0001:00045fd0       ??$assign@V?$_String_iterator@V?$_String_val@U?$_Simple_types@_W@std@@@std@@@std@@@?$basic_string@DU?$char_traits@D@std@@V?$allocator@D@2@@std@@QAEAAV01@V?$_String_iterator@V?$_String_val@U?$_Simple_types@_W@std@@@std@@@1@0@Z 00446fd0 f i Clipboard.obj
 0001:00046150       ??$construct@PA_WAAPA_W@?$_Wrap_alloc@V?$allocator@_W@std@@@std@@QAEXPAPA_WAAPA_W@Z 00447150 f i Clipboard.obj
 0001:00046190       ??$construct@PA_WAAPA_W@?$allocator@_W@std@@QAEXPAPA_WAAPA_W@Z 00447190 f i Clipboard.obj
 0001:00046240       ??$construct@PA_WAAPA_W@?$allocator_traits@V?$allocator@_W@std@@@std@@SAXAAV?$allocator@_W@1@PAPA_WAAPA_W@Z 00447240 f i Clipboard.obj
 0001:00046270       ??$destroy@PA_W@?$_Wrap_alloc@V?$allocator@_W@std@@@std@@QAEXPAPA_W@Z 00447270 f i Clipboard.obj
 0001:000462a0       ??$destroy@PA_W@?$allocator@_W@std@@QAEXPAPA_W@Z 004472a0 f i Clipboard.obj
 0001:000462b0       ??$destroy@PA_W@?$allocator_traits@V?$allocator@_W@std@@@std@@SAXAAV?$allocator@_W@1@PAPA_W@Z 004472b0 f i Clipboard.obj
 0001:000462d0       ??$forward@AAPA_W@std@@YAAAPA_WAAPA_W@Z 004472d0 f i Clipboard.obj
 0001:000462e0       ??$replace@V?$_String_iterator@V?$_String_val@U?$_Simple_types@_W@std@@@std@@@std@@@?$basic_string@DU?$char_traits@D@std@@V?$allocator@D@2@@std@@QAEAAV01@V?$_String_const_iterator@V?$_String_val@U?$_Simple_types@D@std@@@std@@@1@0V?$_String_iterator@V?$_String_val@U?$_Simple_types@_W@std@@@std@@@1@1@Z 004472e0 f i Clipboard.obj
 0001:00046450       ??0?$_Iterator012@Urandom_access_iterator_tag@std@@DHPBDABDU_Iterator_base12@2@@std@@QAE@ABU01@@Z 00447450 f i Clipboard.obj
 0001:00046480       ??0?$_Iterator012@Urandom_access_iterator_tag@std@@DHPBDABDU_Iterator_base12@2@@std@@QAE@XZ 00447480 f i Clipboard.obj
 0001:000464a0       ??0?$_Iterator012@Urandom_access_iterator_tag@std@@_WHPB_WAB_WU_Iterator_base12@2@@std@@QAE@ABU01@@Z 004474a0 f i Clipboard.obj
 0001:000464d0       ??0?$_Iterator012@Urandom_access_iterator_tag@std@@_WHPB_WAB_WU_Iterator_base12@2@@std@@QAE@XZ 004474d0 f i Clipboard.obj
 0001:000464f0       ??0?$_String_alloc@$0A@U?$_String_base_types@_WV?$allocator@_W@std@@@std@@@std@@QAE@ABV?$allocator@_W@1@@Z 004474f0 f i Clipboard.obj
 0001:00046560       ??0?$_String_const_iterator@V?$_String_val@U?$_Simple_types@D@std@@@std@@@std@@QAE@ABV01@@Z 00447560 f i Clipboard.obj
 0001:000465a0       ??0?$_String_const_iterator@V?$_String_val@U?$_Simple_types@D@std@@@std@@@std@@QAE@PBDPBU_Container_base12@1@@Z 004475a0 f i Clipboard.obj
 0001:00046620       ??0?$_String_const_iterator@V?$_String_val@U?$_Simple_types@_W@std@@@std@@@std@@QAE@ABV01@@Z 00447620 f i Clipboard.obj
 0001:00046660       ??0?$_String_const_iterator@V?$_String_val@U?$_Simple_types@_W@std@@@std@@@std@@QAE@PB_WPBU_Container_base12@1@@Z 00447660 f i Clipboard.obj
 0001:000466e0       ??0?$_String_iterator@V?$_String_val@U?$_Simple_types@D@std@@@std@@@std@@QAE@PADPBU_Container_base12@1@@Z 004476e0 f i Clipboard.obj
 0001:00046710       ??0?$_String_iterator@V?$_String_val@U?$_Simple_types@_W@std@@@std@@@std@@QAE@ABV01@@Z 00447710 f i Clipboard.obj
 0001:00046740       ??0?$_String_iterator@V?$_String_val@U?$_Simple_types@_W@std@@@std@@@std@@QAE@PA_WPBU_Container_base12@1@@Z 00447740 f i Clipboard.obj
 0001:00046770       ??0?$_String_val@U?$_Simple_types@_W@std@@@std@@QAE@XZ 00447770 f i Clipboard.obj
 0001:000467b0       ??0?$_Wrap_alloc@V?$allocator@_W@std@@@std@@QAE@XZ 004477b0 f i Clipboard.obj
 0001:000467d0       ??0?$allocator@_W@std@@QAE@XZ 004477d0 f i Clipboard.obj
 0001:000467f0       ??0?$basic_string@DU?$char_traits@D@std@@V?$allocator@D@2@@std@@QAE@XZ 004477f0 f i Clipboard.obj
 0001:00046870       ??0?$basic_string@_WU?$char_traits@_W@std@@V?$allocator@_W@2@@std@@QAE@PB_W@Z 00447870 f i Clipboard.obj
 0001:00046900       ??0EndOfStream@rdr@@QAE@PBD@Z 00447900 f i Clipboard.obj
 0001:00046940       ??0Exception@rdr@@QAE@PBD0@Z 00447940 f i Clipboard.obj
 0001:00046a10       ??0InStream@rdr@@IAE@XZ    00447a10 f i Clipboard.obj
 0001:00046a30       ??0MemInStream@rdr@@QAE@PBXH@Z 00447a30 f i Clipboard.obj
 0001:00046a90       ??0MemOutStream@rdr@@QAE@H@Z 00447a90 f i Clipboard.obj
 0001:00046b40       ??0OutStream@rdr@@IAE@XZ   00447b40 f i Clipboard.obj
 0001:00046b60       ??1?$_Iterator012@Urandom_access_iterator_tag@std@@DHPBDABDU_Iterator_base12@2@@std@@QAE@XZ 00447b60 f i Clipboard.obj
 0001:00046b80       ??1?$_Iterator012@Urandom_access_iterator_tag@std@@_WHPB_WAB_WU_Iterator_base12@2@@std@@QAE@XZ 00447b80 f i Clipboard.obj
 0001:00046ba0       ??1?$_String_alloc@$0A@U?$_String_base_types@_WV?$allocator@_W@std@@@std@@@std@@QAE@XZ 00447ba0 f i Clipboard.obj
 0001:00046bd0       ??1?$_String_const_iterator@V?$_String_val@U?$_Simple_types@D@std@@@std@@@std@@QAE@XZ 00447bd0 f i Clipboard.obj
 0001:00046bf0       ??1?$_String_const_iterator@V?$_String_val@U?$_Simple_types@_W@std@@@std@@@std@@QAE@XZ 00447bf0 f i Clipboard.obj
 0001:00046c10       ??1?$_String_iterator@V?$_String_val@U?$_Simple_types@D@std@@@std@@@std@@QAE@XZ 00447c10 f i Clipboard.obj
 0001:00046c30       ??1?$_String_iterator@V?$_String_val@U?$_Simple_types@_W@std@@@std@@@std@@QAE@XZ 00447c30 f i Clipboard.obj
 0001:00046c50       ??1?$_String_val@U?$_Simple_types@_W@std@@@std@@QAE@XZ 00447c50 f i Clipboard.obj
 0001:00046c70       ??1?$basic_string@_WU?$char_traits@_W@std@@V?$allocator@_W@2@@std@@QAE@XZ 00447c70 f i Clipboard.obj
 0001:00046ca0       ??1InStream@rdr@@UAE@XZ    00447ca0 f i Clipboard.obj
 0001:00046cc0       ??1MemInStream@rdr@@UAE@XZ 00447cc0 f i Clipboard.obj
 0001:00046ce0       ??1MemOutStream@rdr@@UAE@XZ 00447ce0 f i Clipboard.obj
 0001:00046d20       ??1OutStream@rdr@@UAE@XZ   00447d20 f i Clipboard.obj
 0001:00046d40       ??8?$_String_const_iterator@V?$_String_val@U?$_Simple_types@_W@std@@@std@@@std@@QBE_NABV01@@Z 00447d40 f i Clipboard.obj
 0001:00046d90       ??9?$_String_const_iterator@V?$_String_val@U?$_Simple_types@_W@std@@@std@@@std@@QBE_NABV01@@Z 00447d90 f i Clipboard.obj
 0001:00046de0       ??D?$_String_const_iterator@V?$_String_val@U?$_Simple_types@_W@std@@@std@@@std@@QBEAB_WXZ 00447de0 f i Clipboard.obj
 0001:00046ee0       ??D?$_String_iterator@V?$_String_val@U?$_Simple_types@_W@std@@@std@@@std@@QBEAA_WXZ 00447ee0 f i Clipboard.obj
 0001:00046f00       ??E?$_String_const_iterator@V?$_String_val@U?$_Simple_types@_W@std@@@std@@@std@@QAEAAV01@XZ 00447f00 f i Clipboard.obj
 0001:00046ff0       ??E?$_String_iterator@V?$_String_val@U?$_Simple_types@_W@std@@@std@@@std@@QAEAAV01@XZ 00447ff0 f i Clipboard.obj
 0001:00047010       ??G?$_String_const_iterator@V?$_String_val@U?$_Simple_types@D@std@@@std@@@std@@QBEHABV01@@Z 00448010 f i Clipboard.obj
 0001:00047040       ??G?$_String_const_iterator@V?$_String_val@U?$_Simple_types@_W@std@@@std@@@std@@QBEHABV01@@Z 00448040 f i Clipboard.obj
 0001:00047070       ??G?$_String_iterator@V?$_String_val@U?$_Simple_types@_W@std@@@std@@@std@@QBEHABV?$_String_const_iterator@V?$_String_val@U?$_Simple_types@_W@std@@@std@@@1@@Z 00448070 f i Clipboard.obj
 0001:00047110       ??M?$_String_const_iterator@V?$_String_val@U?$_Simple_types@_W@std@@@std@@@std@@QBE_NABV01@@Z 00448110 f i Clipboard.obj
 0001:00047160       ??_GInStream@rdr@@UAEPAXI@Z 00448160 f i Clipboard.obj
 0001:00047160       ??_EInStream@rdr@@UAEPAXI@Z 00448160 f i Clipboard.obj
 0001:000471a0       ??_GMemInStream@rdr@@UAEPAXI@Z 004481a0 f i Clipboard.obj
 0001:000471a0       ??_EMemInStream@rdr@@UAEPAXI@Z 004481a0 f i Clipboard.obj
 0001:000471e0       ??_EMemOutStream@rdr@@UAEPAXI@Z 004481e0 f i Clipboard.obj
 0001:000471e0       ??_GMemOutStream@rdr@@UAEPAXI@Z 004481e0 f i Clipboard.obj
 0001:00047220       ??_GOutStream@rdr@@UAEPAXI@Z 00448220 f i Clipboard.obj
 0001:00047220       ??_EOutStream@rdr@@UAEPAXI@Z 00448220 f i Clipboard.obj
 0001:00047260       ?_Alloc_proxy@?$_String_alloc@$0A@U?$_String_base_types@_WV?$allocator@_W@std@@@std@@@std@@QAEXXZ 00448260 f i Clipboard.obj
 0001:000472c0       ?_Chassign@?$basic_string@DU?$char_traits@D@std@@V?$allocator@D@2@@std@@QAEXIID@Z 004482c0 f i Clipboard.obj
 0001:00047320       ?_Compat@?$_String_const_iterator@V?$_String_val@U?$_Simple_types@D@std@@@std@@@std@@QBEXABV12@@Z 00448320 f i Clipboard.obj
 0001:000473e0       ?_Compat@?$_String_const_iterator@V?$_String_val@U?$_Simple_types@_W@std@@@std@@@std@@QBEXABV12@@Z 004483e0 f i Clipboard.obj
 0001:000474a0       ?_Copy@?$basic_string@_WU?$char_traits@_W@std@@V?$allocator@_W@2@@std@@QAEXII@Z 004484a0 f i Clipboard.obj
 0001:000476d0       ?_Eos@?$basic_string@_WU?$char_traits@_W@std@@V?$allocator@_W@2@@std@@QAEXI@Z 004486d0 f i Clipboard.obj
 0001:00047720       ?_Free_proxy@?$_String_alloc@$0A@U?$_String_base_types@_WV?$allocator@_W@std@@@std@@@std@@QAEXXZ 00448720 f i Clipboard.obj
 0001:00047780       ?_Getal@?$_String_alloc@$0A@U?$_String_base_types@_WV?$allocator@_W@std@@@std@@@std@@QBE?AU?$_Wrap_alloc@V?$allocator@_W@std@@@2@XZ 00448780 f i Clipboard.obj
 0001:000477a0       ?_Grow@?$basic_string@_WU?$char_traits@_W@std@@V?$allocator@_W@2@@std@@QAE_NI_N@Z 004487a0 f i Clipboard.obj
 0001:00047870       ?_Inside@?$basic_string@_WU?$char_traits@_W@std@@V?$allocator@_W@2@@std@@QAE_NPB_W@Z 00448870 f i Clipboard.obj
 0001:000478c0       ?_Myptr@?$_String_val@U?$_Simple_types@_W@std@@@std@@QAEPA_WXZ 004488c0 f i Clipboard.obj
 0001:00047910       ?_Myptr@?$_String_val@U?$_Simple_types@_W@std@@@std@@QBEPB_WXZ 00448910 f i Clipboard.obj
 0001:00047960       ?_Pdif@?$basic_string@DU?$char_traits@D@std@@V?$allocator@D@2@@std@@SAIV?$_String_const_iterator@V?$_String_val@U?$_Simple_types@D@std@@@std@@@2@0@Z 00448960 f i Clipboard.obj
 0001:00047a00       ?_Tidy@?$basic_string@_WU?$char_traits@_W@std@@V?$allocator@_W@2@@std@@QAEX_NI@Z 00448a00 f i Clipboard.obj
 0001:00047ad0       ?_Xlen@?$basic_string@_WU?$char_traits@_W@std@@V?$allocator@_W@2@@std@@QBEXXZ 00448ad0 f i Clipboard.obj
 0001:00047af0       ?_Xran@?$basic_string@_WU?$char_traits@_W@std@@V?$allocator@_W@2@@std@@QBEXXZ 00448af0 f i Clipboard.obj
 0001:00047b10       ?allocate@?$_Wrap_alloc@V?$allocator@_W@std@@@std@@QAEPA_WI@Z 00448b10 f i Clipboard.obj
 0001:00047b30       ?allocate@?$allocator@_W@std@@QAEPA_WI@Z 00448b30 f i Clipboard.obj
 0001:00047b60       ?append@?$basic_string@DU?$char_traits@D@std@@V?$allocator@D@2@@std@@QAEAAV12@ID@Z 00448b60 f i Clipboard.obj
 0001:00047bf0       ?assign@?$basic_string@_WU?$char_traits@_W@std@@V?$allocator@_W@2@@std@@QAEAAV12@ABV12@II@Z 00448bf0 f i Clipboard.obj
 0001:00047cd0       ?assign@?$basic_string@_WU?$char_traits@_W@std@@V?$allocator@_W@2@@std@@QAEAAV12@PB_W@Z 00448cd0 f i Clipboard.obj
 0001:00047d20       ?assign@?$basic_string@_WU?$char_traits@_W@std@@V?$allocator@_W@2@@std@@QAEAAV12@PB_WI@Z 00448d20 f i Clipboard.obj
 0001:00047df0       ?assign@?$char_traits@D@std@@SAPADPADID@Z 00448df0 f i Clipboard.obj
 0001:00047e10       ?assign@?$char_traits@_W@std@@SAXAA_WAB_W@Z 00448e10 f i Clipboard.obj
 0001:00047e30       ?begin@?$basic_string@DU?$char_traits@D@std@@V?$allocator@D@2@@std@@QAE?AV?$_String_iterator@V?$_String_val@U?$_Simple_types@D@std@@@std@@@2@XZ 00448e30 f i Clipboard.obj
 0001:00047e60       ?begin@?$basic_string@_WU?$char_traits@_W@std@@V?$allocator@_W@2@@std@@QAE?AV?$_String_iterator@V?$_String_val@U?$_Simple_types@_W@std@@@std@@@2@XZ 00448e60 f i Clipboard.obj
 0001:00047e90       ?check@OutStream@rdr@@QAEHHH@Z 00448e90 f i Clipboard.obj
 0001:00047f10       ?clear@MemOutStream@rdr@@QAEXXZ 00448f10 f i Clipboard.obj
 0001:00047f30       ?copy@?$char_traits@_W@std@@SAPA_WPA_WPB_WI@Z 00448f30 f i Clipboard.obj
 0001:00047f70       ?data@MemOutStream@rdr@@QAEPBXXZ 00448f70 f i Clipboard.obj
 0001:00047f90       ?deallocate@?$_Wrap_alloc@V?$allocator@_W@std@@@std@@QAEXPA_WI@Z 00448f90 f i Clipboard.obj
 0001:00047fc0       ?deallocate@?$allocator@_W@std@@QAEXPA_WI@Z 00448fc0 f i Clipboard.obj
 0001:00047fe0       ?end@?$basic_string@DU?$char_traits@D@std@@V?$allocator@D@2@@std@@QAE?AV?$_String_iterator@V?$_String_val@U?$_Simple_types@D@std@@@std@@@2@XZ 00448fe0 f i Clipboard.obj
 0001:00048020       ?end@?$basic_string@_WU?$char_traits@_W@std@@V?$allocator@_W@2@@std@@QAE?AV?$_String_iterator@V?$_String_val@U?$_Simple_types@_W@std@@@std@@@2@XZ 00449020 f i Clipboard.obj
 0001:00048060       ?erase@?$basic_string@_WU?$char_traits@_W@std@@V?$allocator@_W@2@@std@@QAEAAV12@I@Z 00449060 f i Clipboard.obj
 0001:000480a0       ?erase@?$basic_string@_WU?$char_traits@_W@std@@V?$allocator@_W@2@@std@@QAEAAV12@II@Z 004490a0 f i Clipboard.obj
 0001:00048150       ?flush@OutStream@rdr@@UAEXXZ 00449150 f i Clipboard.obj
 0001:00048160       ?length@?$char_traits@_W@std@@SAIPB_W@Z 00449160 f i Clipboard.obj
 0001:000481a0       ?length@MemOutStream@rdr@@UAEHXZ 004491a0 f i Clipboard.obj
 0001:000481c0       ?max_size@?$_Wrap_alloc@V?$allocator@_W@std@@@std@@QBEIXZ 004491c0 f i Clipboard.obj
 0001:000481e0       ?max_size@?$allocator@_W@std@@QBEIXZ 004491e0 f i Clipboard.obj
 0001:00048200       ?max_size@?$allocator_traits@V?$allocator@_W@std@@@std@@SAIABV?$allocator@_W@2@@Z 00449200 f i Clipboard.obj
 0001:00048210       ?max_size@?$basic_string@_WU?$char_traits@_W@std@@V?$allocator@_W@2@@std@@QBEIXZ 00449210 f i Clipboard.obj
 0001:00048260       ?move@?$char_traits@_W@std@@SAPA_WPA_WPB_WI@Z 00449260 f i Clipboard.obj
 0001:000482a0       ?overrun@MemInStream@rdr@@EAEHHH@Z 004492a0 f i Clipboard.obj
 0001:00048300       ?overrun@MemOutStream@rdr@@EAEHHH@Z 00449300 f i Clipboard.obj
 0001:00048400       ?pos@MemInStream@rdr@@UAEHXZ 00449400 f i Clipboard.obj
 0001:00048420       ?readBytes@InStream@rdr@@UAEXPAXH@Z 00449420 f i Clipboard.obj
 0001:000484b0       ?readU32@InStream@rdr@@QAEIXZ 004494b0 f i Clipboard.obj
 0001:00048580       ?replace@?$basic_string@DU?$char_traits@D@std@@V?$allocator@D@2@@std@@QAEAAV12@IIABV12@@Z 00449580 f i Clipboard.obj
 0001:000485b0       ?replace@?$basic_string@DU?$char_traits@D@std@@V?$allocator@D@2@@std@@QAEAAV12@IIABV12@II@Z 004495b0 f i Clipboard.obj
 0001:00048920       ?replace@?$basic_string@DU?$char_traits@D@std@@V?$allocator@D@2@@std@@QAEAAV12@V?$_String_const_iterator@V?$_String_val@U?$_Simple_types@D@std@@@std@@@2@0ABV12@@Z 00449920 f i Clipboard.obj
 0001:00048a90       ?reserve@?$basic_string@DU?$char_traits@D@std@@V?$allocator@D@2@@std@@QAEXI@Z 00449a90 f i Clipboard.obj
 0001:00048b00       ?size@?$basic_string@_WU?$char_traits@_W@std@@V?$allocator@_W@2@@std@@QBEIXZ 00449b00 f i Clipboard.obj
 0001:00048b20       ?writeBytes@MemOutStream@rdr@@UAEXPBXH@Z 00449b20 f i Clipboard.obj
 0001:00048b80       ?writeBytes@OutStream@rdr@@UAEXPBXH@Z 00449b80 f i Clipboard.obj
 0001:00048c10       ?writeU32@OutStream@rdr@@QAEXI@Z 00449c10 f i Clipboard.obj
 0001:00048cc0       _wmemcpy                   00449cc0 f i Clipboard.obj
 0001:00048cf0       _wmemmove                  00449cf0 f i Clipboard.obj
 0001:00048d20       _deskey                    00449d20 f   d3des.obj
 0001:00049000       _usekey                    0044a000 f   d3des.obj
 0001:00049050       _cpkey                     0044a050 f   d3des.obj
 0001:000490a0       _des                       0044a0a0 f   d3des.obj
 0001:00049b20       ?SetListenMode@@YAX_N@Z    0044ab20 f   Daemon.obj
 0001:00049b30       ?GetListenMode@@YA_NXZ     0044ab30 f   Daemon.obj
 0001:00049b40       ??0Daemon@@QAE@H@Z         0044ab40 f   Daemon.obj
 0001:00049e00       ??1Daemon@@UAE@XZ          0044ae00 f   Daemon.obj
 0001:00049e70       ?WndProc@Daemon@@SGJPAUHWND__@@IIJ@Z 0044ae70 f   Daemon.obj
 0001:0004a1e0       ?AddTrayIcon@Daemon@@IAEXXZ 0044b1e0 f   Daemon.obj
 0001:0004a210       ?CheckTrayIcon@Daemon@@IAEXXZ 0044b210 f   Daemon.obj
 0001:0004a260       ?RemoveTrayIcon@Daemon@@IAEXXZ 0044b260 f   Daemon.obj
 0001:0004a290       ?SendTrayMsg@Daemon@@IAE_NK@Z 0044b290 f   Daemon.obj
 0001:0004a5f0       ??$SafeGetWindowUserData@VDaemon@@@helper@@YAPAVDaemon@@PAUHWND__@@@Z 0044b5f0 f i Daemon.obj
 0001:0004a610       ??_GDaemon@@UAEPAXI@Z      0044b610 f i Daemon.obj
 0001:0004a610       ??_EDaemon@@UAEPAXI@Z      0044b610 f i Daemon.obj
 0001:0004a670       ??0DH@@QAE@XZ              0044b670 f   dh.obj
 0001:0004a6b0       ??0DH@@QAE@_K0@Z           0044b6b0 f   dh.obj
 0001:0004a7c0       ??1DH@@QAE@XZ              0044b7c0 f   dh.obj
 0001:0004a7e0       ?createKeys@DH@@QAEXXZ     0044b7e0 f   dh.obj
 0001:0004a870       ?createInterKey@DH@@QAE_KXZ 0044b870 f   dh.obj
 0001:0004a8e0       ?createEncryptionKey@DH@@QAE_K_K@Z 0044b8e0 f   dh.obj
 0001:0004a970       ?getValue@DH@@QAE_KK@Z     0044b970 f   dh.obj
 0001:0004a9f0       ?XpowYmodN@DH@@AAE_K_K00@Z 0044b9f0 f   dh.obj
 0001:0004aad0       ?generatePrime@DH@@AAE_KXZ 0044bad0 f   dh.obj
 0001:0004ab30       ?tryToGeneratePrime@DH@@AAE_K_K@Z 0044bb30 f   dh.obj
 0001:0004ac70       ?millerRabin@DH@@AAE_N_KI@Z 0044bc70 f   dh.obj
 0001:0004ad10       ?cleanMem@DH@@AAEXK@Z      0044bd10 f   dh.obj
 0001:0004ad80       ?bits@@YAH_J@Z             0044bd80 f   dh.obj
 0001:0004add0       ?int64ToBytes@@YA_N_KQAD@Z 0044bdd0 f   dh.obj
 0001:0004ae20       ?bytesToInt64@@YA_KQBD@Z   0044be20 f   dh.obj
 0001:0004ae80       ?vncWc2Mb@@YA_NPADPA_WH@Z  0044be80 f   dh.obj
 0001:0004af00       ??0Except@@QAE@PBD@Z       0044bf00 f   dh.obj
 0001:0004af60       ?rng@@YA_K_K@Z             0044bf60 f   dh.obj
 0001:0004b200       ??0Except@@QAE@ABV0@@Z     0044c200 f i dh.obj
 0001:0004b230       ??1Except@@UAE@XZ          0044c230 f i dh.obj
 0001:0004b280       ??_EExcept@@UAEPAXI@Z      0044c280 f i dh.obj
 0001:0004b280       ??_GExcept@@UAEPAXI@Z      0044c280 f i dh.obj
 0001:0004b2c0       ?SetLoaded@CDSMPlugin@@QAEX_N@Z 0044c2c0 f   DSMPlugin.obj
 0001:0004b2e0       ?SetEnabled@CDSMPlugin@@QAEX_N@Z 0044c2e0 f   DSMPlugin.obj
 0001:0004b300       ?InitPlugin@CDSMPlugin@@QAE_NXZ 0044c300 f   DSMPlugin.obj
 0001:0004b330       ?SetPluginParams@CDSMPlugin@@QAE_NPAUHWND__@@PAD1PAPAD@Z 0044c330 f   DSMPlugin.obj
 0001:0004b3b0       ?GetPluginParams@CDSMPlugin@@QAEPADXZ 0044c3b0 f   DSMPlugin.obj
 0001:0004b3d0       ?DescribePlugin@CDSMPlugin@@QAEPADXZ 0044c3d0 f   DSMPlugin.obj
 0001:0004b4a0       ?ListPlugins@CDSMPlugin@@QAEHPAUHWND__@@@Z 0044c4a0 f   DSMPlugin.obj
 0001:0004b600       ?LoadPlugin@CDSMPlugin@@QAE_NPAD_N@Z 0044c600 f   DSMPlugin.obj
 0001:0004bc10       ?UnloadPlugin@CDSMPlugin@@QAE_NXZ 0044cc10 f   DSMPlugin.obj
 0001:0004bd00       ?TransformBuffer@CDSMPlugin@@QAEPAEPAEHPAH@Z 0044cd00 f   DSMPlugin.obj
 0001:0004bda0       ?RestoreBufferStep1@CDSMPlugin@@QAEPAEPAEHPAH@Z 0044cda0 f   DSMPlugin.obj
 0001:0004bde0       ?RestoreBufferStep2@CDSMPlugin@@QAEPAEPAEHPAH@Z 0044cde0 f   DSMPlugin.obj
 0001:0004be20       ?RestoreBufferUnlock@CDSMPlugin@@QAEXXZ 0044ce20 f   DSMPlugin.obj
 0001:0004be30       ?CreatePluginInterface@CDSMPlugin@@QAEPAVIPlugin@@XZ 0044ce30 f   DSMPlugin.obj
 0001:0004be60       ?SupportsMultithreaded@CDSMPlugin@@QAE_NXZ 0044ce60 f   DSMPlugin.obj
 0001:0004bea0       ?CreateIntegratedPluginInterface@CDSMPlugin@@QAEPAVIIntegratedPlugin@@XZ 0044cea0 f   DSMPlugin.obj
 0001:0004bed0       ?SupportsIntegrated@CDSMPlugin@@QAE_NXZ 0044ced0 f   DSMPlugin.obj
 0001:0004bf00       ??0CDSMPlugin@@QAE@XZ      0044cf00 f   DSMPlugin.obj
 0001:0004c0c0       ??1CDSMPlugin@@UAE@XZ      0044d0c0 f   DSMPlugin.obj
 0001:0004c140       ?ResetPlugin@CDSMPlugin@@QAE_NXZ 0044d140 f   DSMPlugin.obj
 0001:0004c170       ?SetConfigHelper@ConfigHelper@@QAEXKPAD@Z 0044d170 f   DSMPlugin.obj
 0001:0004c250       ??0ConfigHelper@@QAE@PBD@Z 0044d250 f   DSMPlugin.obj
 0001:0004c410       ??1ConfigHelper@@QAE@XZ    0044d410 f   DSMPlugin.obj
 0001:0004c470       ?encode@Base64@@SAXPBDPAD@Z 0044d470 f   DSMPlugin.obj
 0001:0004c560       ?decode@Base64@@SAXPBDPAD@Z 0044d560 f   DSMPlugin.obj
 0001:0004c6f0       ?encodeblock@Base64@@KAXQAE0H@Z 0044d6f0 f   DSMPlugin.obj
 0001:0004c7f0       ?decodeblock@Base64@@KAXQAE0@Z 0044d7f0 f   DSMPlugin.obj
 0001:0004c890       ?MyStrToken@@YAHPAD0HD@Z   0044d890 f   DSMPlugin.obj
 0001:0004cee0       ??_GCDSMPlugin@@UAEPAXI@Z  0044dee0 f i DSMPlugin.obj
 0001:0004cee0       ??_ECDSMPlugin@@UAEPAXI@Z  0044dee0 f i DSMPlugin.obj
 0001:0004cf20       ?strrchr@@YAPADPADH@Z      0044df20 f i DSMPlugin.obj
 0001:0004cf40       ??0ViewerDirectxClass@@QAE@XZ 0044df40 f   directxviewer.obj
 0001:0004d010       ??1ViewerDirectxClass@@UAE@XZ 0044e010 f   directxviewer.obj
 0001:0004d050       ?InitD3D@ViewerDirectxClass@@QAEJPAUHWND__@@0HH_NHH@Z 0044e050 f   directxviewer.obj
 0001:0004d4d0       ?ReInitD3D@ViewerDirectxClass@@QAEJXZ 0044e4d0 f   directxviewer.obj
 0001:0004d940       ?DestroyD3D@ViewerDirectxClass@@QAEXXZ 0044e940 f   directxviewer.obj
 0001:0004d9e0       ?Preupdate@ViewerDirectxClass@@QAEPAEPAE@Z 0044e9e0 f   directxviewer.obj
 0001:0004db20       ?Preupdate2@ViewerDirectxClass@@QAEPAEPAE@Z 0044eb20 f   directxviewer.obj
 0001:0004dc30       ?Afterupdate@ViewerDirectxClass@@QAE_NXZ 0044ec30 f   directxviewer.obj
 0001:0004dd00       ?paint@ViewerDirectxClass@@QAE_NXZ 0044ed00 f   directxviewer.obj
 0001:0004ddf0       ?paintdevice@ViewerDirectxClass@@AAE_NXZ 0044edf0 f   directxviewer.obj
 0001:0004dfd0       ?valid@ViewerDirectxClass@@AAE_NXZ 0044efd0 f   directxviewer.obj
 0001:0004e490       ??_GViewerDirectxClass@@UAEPAXI@Z 0044f490 f i directxviewer.obj
 0001:0004e490       ??_EViewerDirectxClass@@UAEPAXI@Z 0044f490 f i directxviewer.obj
 0001:0004e4d0       ??0tempdisplayclass@@QAE@XZ 0044f4d0 f   display.obj
 0001:0004e500       ??1tempdisplayclass@@QAE@XZ 0044f500 f   display.obj
 0001:0004e520       ?Init@tempdisplayclass@@QAEXXZ 0044f520 f   display.obj
 0001:0004e550       ?checkmonitors@tempdisplayclass@@QAEXXZ 0044f550 f   display.obj
 0001:0004edb0       ??0Exception@@QAE@PBDH@Z   0044fdb0 f   Exception.obj
 0001:0004ee40       ??1Exception@@UAE@XZ       0044fe40 f   Exception.obj
 0001:0004ee70       ??0QuietException@@QAE@PBDH@Z 0044fe70 f   Exception.obj
 0001:0004eea0       ?Report@QuietException@@UAEXXZ 0044fea0 f   Exception.obj
 0001:0004eed0       ??1QuietException@@UAE@XZ  0044fed0 f   Exception.obj
 0001:0004eef0       ??0WarningException@@QAE@PBDH_N@Z 0044fef0 f   Exception.obj
 0001:0004ef30       ?Report@WarningException@@UAEXXZ 0044ff30 f   Exception.obj
 0001:0004ef80       ??1WarningException@@UAE@XZ 0044ff80 f   Exception.obj
 0001:0004efa0       ??0ErrorException@@QAE@PBDH@Z 0044ffa0 f   Exception.obj
 0001:0004efd0       ?Report@ErrorException@@UAEXXZ 0044ffd0 f   Exception.obj
 0001:0004f020       ??1ErrorException@@UAE@XZ  00450020 f   Exception.obj
 0001:0004f0e0       ??0FileTransfer@@QAE@PAVVNCviewerApp@@PAVClientConnection@@@Z 004500e0 f   FileTransfer.obj
 0001:0004f5b0       ?DoDialog@FileTransfer@@QAEHXZ 004505b0 f   FileTransfer.obj
 0001:0004f5e0       ??1FileTransfer@@UAE@XZ    004505e0 f   FileTransfer.obj
 0001:0004f720       ?FileTransferDlgProc@FileTransfer@@SGHPAUHWND__@@IIJ@Z 00450720 f   FileTransfer.obj
 0001:00052f80       ?DoFTParamDialog@FileTransfer@@QAEHPAD0@Z 00453f80 f   FileTransfer.obj
 0001:00052fe0       ?FTParamDlgProc@FileTransfer@@SGHPAUHWND__@@IIJ@Z 00453fe0 f   FileTransfer.obj
 0001:00053280       ?DoFTConfirmDialog@FileTransfer@@QAEHPAD0@Z 00454280 f   FileTransfer.obj
 0001:000532e0       ?FTConfirmDlgProc@FileTransfer@@SGHPAUHWND__@@IIJ@Z 004542e0 f   FileTransfer.obj
 0001:00053490       ?ListViewLocalCompareProc@FileTransfer@@SGHJJJ@Z 00454490 f   FileTransfer.obj
 0001:00053730       ?DisableButtons@FileTransfer@@QAEXPAUHWND__@@@Z 00454730 f   FileTransfer.obj
 0001:00053900       ?EnableButtons@FileTransfer@@QAEXPAUHWND__@@@Z 00454900 f   FileTransfer.obj
 0001:00053ae0       ?CheckButtonState@FileTransfer@@QAEXPAUHWND__@@@Z 00454ae0 f   FileTransfer.obj
 0001:00053c40       ?SendFile@FileTransfer@@QAE_NJH@Z 00454c40 f   FileTransfer.obj
 0001:00053f90       ?SendFileChunk@FileTransfer@@QAE_NXZ 00454f90 f   FileTransfer.obj
 0001:00054420       ?FinishFileReception@FileTransfer@@QAE_NXZ 00455420 f   FileTransfer.obj
 0001:000547d0       ?UnzipPossibleDirectory@FileTransfer@@QAE_NPAD@Z 004557d0 f   FileTransfer.obj
 0001:000549c0       ?SendFiles@FileTransfer@@QAE_NJH@Z 004559c0 f   FileTransfer.obj
 0001:00054a10       ?OfferNextFile@FileTransfer@@QAE_NXZ 00455a10 f   FileTransfer.obj
 0001:00054d30       ?ListRemoteDrives@FileTransfer@@QAEXPAUHWND__@@H@Z 00455d30 f   FileTransfer.obj
 0001:000551f0       ?ProcessFileTransferMsg@FileTransfer@@QAEXXZ 004561f0 f   FileTransfer.obj
 0001:00055890       ?RequestPermission@FileTransfer@@QAEXXZ 00456890 f   FileTransfer.obj
 0001:000558f0       ?TestPermission@FileTransfer@@QAE_NJH@Z 004568f0 f   FileTransfer.obj
 0001:000559e0       ?AddFileToFileList@FileTransfer@@QAEXPAUHWND__@@HAAU_WIN32_FIND_DATAA@@_N@Z 004569e0 f   FileTransfer.obj
 0001:00055d30       ?RequestRemoteDirectoryContent@FileTransfer@@QAEXPAUHWND__@@PAD@Z 00456d30 f   FileTransfer.obj
 0001:000562d0       ?RequestRemoteDrives@FileTransfer@@QAEXXZ 004572d0 f   FileTransfer.obj
 0001:00056330       ?RequestRemoteFile@FileTransfer@@QAEXPAD@Z 00457330 f   FileTransfer.obj
 0001:00056600       ?OfferLocalFile@FileTransfer@@QAE_NPAD@Z 00457600 f   FileTransfer.obj
 0001:00056c30       ?ZipPossibleDirectory@FileTransfer@@QAEHPAD@Z 00457c30 f   FileTransfer.obj
 0001:00056ff0       ?ReceiveFile@FileTransfer@@QAE_NKH@Z 00457ff0 f   FileTransfer.obj
 0001:00057b40       ?ReceiveFileChunk@FileTransfer@@QAE_NHH@Z 00458b40 f   FileTransfer.obj
 0001:00057f30       ?FinishFileSending@FileTransfer@@QAE_NXZ 00458f30 f   FileTransfer.obj
 0001:00058250       ?AbortFileReception@FileTransfer@@QAE_NXZ 00459250 f   FileTransfer.obj
 0001:000582f0       ?ReceiveFiles@FileTransfer@@QAE_NKH@Z 004592f0 f   FileTransfer.obj
 0001:00058340       ?RequestNextFile@FileTransfer@@QAE_NXZ 00459340 f   FileTransfer.obj
 0001:00058650       ?ReceiveDestinationFileChecksums@FileTransfer@@QAE_NHH@Z 00459650 f   FileTransfer.obj
 0001:000586d0       ?HighlightTransferedFiles@FileTransfer@@QAEXPAUHWND__@@0@Z 004596d0 f   FileTransfer.obj
 0001:00058910       ?PopulateRemoteListBox@FileTransfer@@QAEXPAUHWND__@@H@Z 00459910 f   FileTransfer.obj
 0001:00058a80       ?ReceiveDirectoryItem@FileTransfer@@QAEXPAUHWND__@@H@Z 00459a80 f   FileTransfer.obj
 0001:00058ba0       ?FinishDirectoryReception@FileTransfer@@QAEXXZ 00459ba0 f   FileTransfer.obj
 0001:00058cb0       ?IsShortcutFolder@FileTransfer@@QAE_NPAD@Z 00459cb0 f   FileTransfer.obj
 0001:00058db0       ?ResolvePossibleShortcutFolder@FileTransfer@@QAE_NPAUHWND__@@PAD@Z 00459db0 f   FileTransfer.obj
 0001:00058fc0       ?PopulateLocalListBox@FileTransfer@@QAEXPAUHWND__@@PAD@Z 00459fc0 f   FileTransfer.obj
 0001:000596d0       ?ListDrives@FileTransfer@@QAEXPAUHWND__@@@Z 0045a6d0 f   FileTransfer.obj
 0001:00059be0       ?CreateRemoteDirectory@FileTransfer@@QAEXPAD@Z 0045abe0 f   FileTransfer.obj
 0001:00059cb0       ?DeleteRemoteFile@FileTransfer@@QAEXV?$basic_string@DU?$char_traits@D@std@@V?$allocator@D@2@@std@@@Z 0045acb0 f   FileTransfer.obj
 0001:00059db0       ?CreateRemoteDirectoryFeedback@FileTransfer@@QAE_NJH@Z 0045adb0 f   FileTransfer.obj
 0001:00059f60       ?DeleteRemoteFileFeedback@FileTransfer@@QAE_NJH@Z 0045af60 f   FileTransfer.obj
 0001:0005a1a0       ?RenameRemoteFileOrDirectory@FileTransfer@@QAEXPAD0@Z 0045b1a0 f   FileTransfer.obj
 0001:0005a2e0       ?RenameRemoteFileOrDirectoryFeedback@FileTransfer@@QAE_NJH@Z 0045b2e0 f   FileTransfer.obj
 0001:0005a540       ?GenerateFileChecksums@FileTransfer@@QAEHPAXPADH@Z 0045b540 f   FileTransfer.obj
 0001:0005a660       ?SetTotalSize@FileTransfer@@QAEXPAUHWND__@@K@Z 0045b660 f   FileTransfer.obj
 0001:0005a6c0       ?SetGauge@FileTransfer@@QAEXPAUHWND__@@_J@Z 0045b6c0 f   FileTransfer.obj
 0001:0005a8e0       ?SetGlobalCount@FileTransfer@@QAEXXZ 0045b8e0 f   FileTransfer.obj
 0001:0005a940       ?SetStatus@FileTransfer@@QAEXPAD@Z 0045b940 f   FileTransfer.obj
 0001:0005ab60       ?ShowFileTransferWindow@FileTransfer@@QAEX_N@Z 0045bb60 f   FileTransfer.obj
 0001:0005ac50       ?IsDirectoryGetIt@FileTransfer@@QAE_NPAD@Z 0045bc50 f   FileTransfer.obj
 0001:0005ad20       ?GetSpecialFolderPath@FileTransfer@@QAE_NHPAD@Z 0045bd20 f   FileTransfer.obj
 0001:0005ad60       ?GetFriendlyFileSizeString@FileTransfer@@QAEX_JPAD@Z 0045bd60 f   FileTransfer.obj
 0001:0005af00       ?MyGetFileSize@FileTransfer@@QAE_NPADPAT_ULARGE_INTEGER@@@Z 0045bf00 f   FileTransfer.obj
 0001:0005afb0       ?InitListViewImagesList@FileTransfer@@QAEXPAUHWND__@@@Z 0045bfb0 f   FileTransfer.obj
 0001:0005b090       ?DeleteFileOrDirectory@FileTransfer@@QAE_NPAD@Z 0045c090 f   FileTransfer.obj
 0001:0005b170       ?FileOrFolderExists@FileTransfer@@QAE_NPAUHWND__@@V?$basic_string@DU?$char_traits@D@std@@V?$allocator@D@2@@std@@@Z 0045c170 f   FileTransfer.obj
 0001:0005b1d0       ?StartFTSession@FileTransfer@@QAEXXZ 0045c1d0 f   FileTransfer.obj
 0001:0005b230       ?EndFTSession@FileTransfer@@QAEXXZ 0045c230 f   FileTransfer.obj
 0001:0005b2a0       ?InitFTTimer@FileTransfer@@QAEXXZ 0045c2a0 f   FileTransfer.obj
 0001:0005b2f0       ?KillFTTimer@FileTransfer@@QAEXXZ 0045c2f0 f   FileTransfer.obj
 0001:0005b330       ?fpTimer@FileTransfer@@SGXIIKKK@Z 0045c330 f   FileTransfer.obj
 0001:0005b350       ?fpTimerProc@FileTransfer@@SGXPAUHWND__@@IIK@Z 0045c350 f   FileTransfer.obj
 0001:0005b370       ?TimerCallback@FileTransfer@@SAXPAV1@@Z 0045c370 f   FileTransfer.obj
 0001:0005b480       ?GetFileSizeFromString@FileTransfer@@SA_JPAD@Z 0045c480 f   FileTransfer.obj
 0001:0005b600       ?GetFileTimeFromString@FileTransfer@@SA?AU_FILETIME@@PAD@Z 0045c600 f   FileTransfer.obj
 0001:0005b880       ?PseudoYield@@YA_NPAUHWND__@@@Z 0045c880 f   FileTransfer.obj
 0001:0005b8d0       ?FTAdjustLeft@@YAXPAUtagRECT@@@Z 0045c8d0 f   FileTransfer.obj
 0001:0005b920       ?FTAdjustTop@@YAXPAUtagRECT@@@Z 0045c920 f   FileTransfer.obj
 0001:0005b970       ?FTAdjustRight@@YAXPAUtagRECT@@@Z 0045c970 f   FileTransfer.obj
 0001:0005b9c0       ?FTAdjustBottom@@YAXPAUtagRECT@@@Z 0045c9c0 f   FileTransfer.obj
 0001:0005ba10       ?FTAdjustFileNameColumns@@YAXPAUHWND__@@@Z 0045ca10 f   FileTransfer.obj
 0001:0005ed60       ??$SafeGetWindowUserData@VFileTransfer@@@helper@@YAPAVFileTransfer@@PAUHWND__@@@Z 0045fd60 f i FileTransfer.obj
 0001:0005ed80       ??$_Allocate@U?$_List_node@HPAX@std@@@std@@YAPAU?$_List_node@HPAX@0@IPAU10@@Z 0045fd80 f i FileTransfer.obj
 0001:0005edd0       ??$_Allocate@V?$basic_string@DU?$char_traits@D@std@@V?$allocator@D@2@@std@@@std@@YAPAV?$basic_string@DU?$char_traits@D@std@@V?$allocator@D@2@@0@IPAV10@@Z 0045fdd0 f i FileTransfer.obj
 0001:0005ee20       ??$_Buynode@ABH@?$_List_buy@HV?$allocator@H@std@@@std@@QAEPAU?$_List_node@HPAX@1@PAU21@0ABH@Z 0045fe20 f i FileTransfer.obj
 0001:0005ef40       ??$_Debug_pointer@V?$basic_string@DU?$char_traits@D@std@@V?$allocator@D@2@@std@@@std@@YAXPAV?$basic_string@DU?$char_traits@D@std@@V?$allocator@D@2@@0@PB_WI@Z 0045ff40 f i FileTransfer.obj
 0001:0005ef70       ??$_Debug_range2@PAV?$basic_string@DU?$char_traits@D@std@@V?$allocator@D@2@@std@@@std@@YAXPAV?$basic_string@DU?$char_traits@D@std@@V?$allocator@D@2@@0@0PB_WIUrandom_access_iterator_tag@0@@Z 0045ff70 f i FileTransfer.obj
 0001:0005efe0       ??$_Debug_range@PAV?$basic_string@DU?$char_traits@D@std@@V?$allocator@D@2@@std@@@std@@YAXPAV?$basic_string@DU?$char_traits@D@std@@V?$allocator@D@2@@0@0PB_WI@Z 0045ffe0 f i FileTransfer.obj
 0001:0005f030       ??$_Destroy_range@U?$_Wrap_alloc@V?$allocator@V?$basic_string@DU?$char_traits@D@std@@V?$allocator@D@2@@std@@@std@@@std@@@std@@YAXPAV?$basic_string@DU?$char_traits@D@std@@V?$allocator@D@2@@0@0AAU?$_Wrap_alloc@V?$allocator@V?$basic_string@DU?$char_traits@D@std@@V?$allocator@D@2@@std@@@std@@@0@@Z 00460030 f i FileTransfer.obj
 0001:0005f080       ??$_Destroy_range@U?$_Wrap_alloc@V?$allocator@V?$basic_string@DU?$char_traits@D@std@@V?$allocator@D@2@@std@@@std@@@std@@@std@@YAXPAV?$basic_string@DU?$char_traits@D@std@@V?$allocator@D@2@@0@0AAU?$_Wrap_alloc@V?$allocator@V?$basic_string@DU?$char_traits@D@std@@V?$allocator@D@2@@std@@@std@@@0@U_Nonscalar_ptr_iterator_tag@0@@Z 00460080 f i FileTransfer.obj
 0001:0005f0b0       ??$_Insert@ABH@?$list@HV?$allocator@H@std@@@std@@QAEXV?$_List_unchecked_const_iterator@V?$_List_val@U?$_List_simple_types@H@std@@@std@@U_Iterator_base0@2@@1@ABH@Z 004600b0 f i FileTransfer.obj
 0001:0005f150       ??$_Iter_cat@PAV?$basic_string@DU?$char_traits@D@std@@V?$allocator@D@2@@std@@@std@@YA?AUrandom_access_iterator_tag@0@ABQAV?$basic_string@DU?$char_traits@D@std@@V?$allocator@D@2@@0@@Z 00460150 f i FileTransfer.obj
 0001:0005f170       ??$_Ptr_cat@V?$basic_string@DU?$char_traits@D@std@@V?$allocator@D@2@@std@@V12@@std@@YA?AU_Nonscalar_ptr_iterator_tag@0@PAV?$basic_string@DU?$char_traits@D@std@@V?$allocator@D@2@@0@0@Z 00460170 f i FileTransfer.obj
 0001:0005f180       ??$_Rechecked@PAV?$basic_string@DU?$char_traits@D@std@@V?$allocator@D@2@@std@@PAV12@@std@@YAAAPAV?$basic_string@DU?$char_traits@D@std@@V?$allocator@D@2@@0@AAPAV10@PAV10@@Z 00460180 f i FileTransfer.obj
 0001:0005f1a0       ??$_Umove@PAV?$basic_string@DU?$char_traits@D@std@@V?$allocator@D@2@@std@@@?$vector@V?$basic_string@DU?$char_traits@D@std@@V?$allocator@D@2@@std@@V?$allocator@V?$basic_string@DU?$char_traits@D@std@@V?$allocator@D@2@@std@@@2@@std@@IAEPAV?$basic_string@DU?$char_traits@D@std@@V?$allocator@D@2@@1@PAV21@00@Z 004601a0 f i FileTransfer.obj
 0001:0005f1e0       ??$_Unchecked@PAV?$basic_string@DU?$char_traits@D@std@@V?$allocator@D@2@@std@@@std@@YAPAV?$basic_string@DU?$char_traits@D@std@@V?$allocator@D@2@@0@PAV10@@Z 004601e0 f i FileTransfer.obj
 0001:0005f1f0       ??$_Uninit_move@PAV?$basic_string@DU?$char_traits@D@std@@V?$allocator@D@2@@std@@PAV12@U?$_Wrap_alloc@V?$allocator@V?$basic_string@DU?$char_traits@D@std@@V?$allocator@D@2@@std@@@std@@@2@@std@@YAPAV?$basic_string@DU?$char_traits@D@std@@V?$allocator@D@2@@0@PAV10@00AAU?$_Wrap_alloc@V?$allocator@V?$basic_string@DU?$char_traits@D@std@@V?$allocator@D@2@@std@@@std@@@0@@Z 004601f0 f i FileTransfer.obj
 0001:0005f250       ??$_Uninit_move@PAV?$basic_string@DU?$char_traits@D@std@@V?$allocator@D@2@@std@@PAV12@V?$allocator@V?$basic_string@DU?$char_traits@D@std@@V?$allocator@D@2@@std@@@2@V12@@std@@YAPAV?$basic_string@DU?$char_traits@D@std@@V?$allocator@D@2@@0@PAV10@00AAU?$_Wrap_alloc@V?$allocator@V?$basic_string@DU?$char_traits@D@std@@V?$allocator@D@2@@std@@@std@@@0@0U_Nonscalar_ptr_iterator_tag@0@@Z 00460250 f i FileTransfer.obj
 0001:0005f380       ??$_Uninitialized_move@PAV?$basic_string@DU?$char_traits@D@std@@V?$allocator@D@2@@std@@PAV12@U?$_Wrap_alloc@V?$allocator@V?$basic_string@DU?$char_traits@D@std@@V?$allocator@D@2@@std@@@std@@@2@@std@@YAPAV?$basic_string@DU?$char_traits@D@std@@V?$allocator@D@2@@0@PAV10@00AAU?$_Wrap_alloc@V?$allocator@V?$basic_string@DU?$char_traits@D@std@@V?$allocator@D@2@@std@@@std@@@0@@Z 00460380 f i FileTransfer.obj
 0001:0005f3e0       ??$_Val_type@PAV?$basic_string@DU?$char_traits@D@std@@V?$allocator@D@2@@std@@@std@@YAPAV?$basic_string@DU?$char_traits@D@std@@V?$allocator@D@2@@0@PAV10@@Z 004603e0 f i FileTransfer.obj
 0001:0005f3f0       ??$addressof@H@std@@YAPAHAAH@Z 004603f0 f i FileTransfer.obj
 0001:0005f400       ??$addressof@PAU?$_List_node@HPAX@std@@@std@@YAPAPAU?$_List_node@HPAX@0@AAPAU10@@Z 00460400 f i FileTransfer.obj
 0001:0005f410       ??$addressof@V?$basic_string@DU?$char_traits@D@std@@V?$allocator@D@2@@std@@@std@@YAPAV?$basic_string@DU?$char_traits@D@std@@V?$allocator@D@2@@0@AAV10@@Z 00460410 f i FileTransfer.obj
 0001:0005f420       ??$construct@HABH@?$_Wrap_alloc@V?$allocator@U?$_List_node@HPAX@std@@@std@@@std@@QAEXPAHABH@Z 00460420 f i FileTransfer.obj
 0001:0005f460       ??$construct@HABH@?$allocator@U?$_List_node@HPAX@std@@@std@@QAEXPAHABH@Z 00460460 f i FileTransfer.obj
 0001:0005f510       ??$construct@HABH@?$allocator_traits@V?$allocator@U?$_List_node@HPAX@std@@@std@@@std@@SAXAAV?$allocator@U?$_List_node@HPAX@std@@@1@PAHABH@Z 00460510 f i FileTransfer.obj
 0001:0005f540       ??$construct@PAU?$_List_node@HPAX@std@@AAPAU12@@?$_Wrap_alloc@V?$allocator@U?$_List_node@HPAX@std@@@std@@@std@@QAEXPAPAU?$_List_node@HPAX@1@AAPAU21@@Z 00460540 f i FileTransfer.obj
 0001:0005f580       ??$construct@PAU?$_List_node@HPAX@std@@AAPAU12@@?$allocator@U?$_List_node@HPAX@std@@@std@@QAEXPAPAU?$_List_node@HPAX@1@AAPAU21@@Z 00460580 f i FileTransfer.obj
 0001:0005f630       ??$construct@PAU?$_List_node@HPAX@std@@AAPAU12@@?$allocator_traits@V?$allocator@U?$_List_node@HPAX@std@@@std@@@std@@SAXAAV?$allocator@U?$_List_node@HPAX@std@@@1@PAPAU?$_List_node@HPAX@1@AAPAU31@@Z 00460630 f i FileTransfer.obj
 0001:0005f660       ??$construct@V?$basic_string@DU?$char_traits@D@std@@V?$allocator@D@2@@std@@V12@@?$_Wrap_alloc@V?$allocator@V?$basic_string@DU?$char_traits@D@std@@V?$allocator@D@2@@std@@@std@@@std@@QAEXPAV?$basic_string@DU?$char_traits@D@std@@V?$allocator@D@2@@1@$$QAV21@@Z 00460660 f i FileTransfer.obj
 0001:0005f6a0       ??$construct@V?$basic_string@DU?$char_traits@D@std@@V?$allocator@D@2@@std@@V12@@?$allocator@V?$basic_string@DU?$char_traits@D@std@@V?$allocator@D@2@@std@@@std@@QAEXPAV?$basic_string@DU?$char_traits@D@std@@V?$allocator@D@2@@1@$$QAV21@@Z 004606a0 f i FileTransfer.obj
 0001:0005f750       ??$construct@V?$basic_string@DU?$char_traits@D@std@@V?$allocator@D@2@@std@@V12@@?$allocator_traits@V?$allocator@V?$basic_string@DU?$char_traits@D@std@@V?$allocator@D@2@@std@@@std@@@std@@SAXAAV?$allocator@V?$basic_string@DU?$char_traits@D@std@@V?$allocator@D@2@@std@@@1@PAV?$basic_string@DU?$char_traits@D@std@@V?$allocator@D@2@@1@$$QAV31@@Z 00460750 f i FileTransfer.obj
 0001:0005f780       ??$destroy@H@?$_Wrap_alloc@V?$allocator@U?$_List_node@HPAX@std@@@std@@@std@@QAEXPAH@Z 00460780 f i FileTransfer.obj
 0001:0005f7b0       ??$destroy@H@?$allocator@U?$_List_node@HPAX@std@@@std@@QAEXPAH@Z 004607b0 f i FileTransfer.obj
 0001:0005f7c0       ??$destroy@H@?$allocator_traits@V?$allocator@U?$_List_node@HPAX@std@@@std@@@std@@SAXAAV?$allocator@U?$_List_node@HPAX@std@@@1@PAH@Z 004607c0 f i FileTransfer.obj
 0001:0005f7e0       ??$destroy@PAU?$_List_node@HPAX@std@@@?$_Wrap_alloc@V?$allocator@U?$_List_node@HPAX@std@@@std@@@std@@QAEXPAPAU?$_List_node@HPAX@1@@Z 004607e0 f i FileTransfer.obj
 0001:0005f810       ??$destroy@PAU?$_List_node@HPAX@std@@@?$allocator@U?$_List_node@HPAX@std@@@std@@QAEXPAPAU?$_List_node@HPAX@1@@Z 00460810 f i FileTransfer.obj
 0001:0005f820       ??$destroy@PAU?$_List_node@HPAX@std@@@?$allocator_traits@V?$allocator@U?$_List_node@HPAX@std@@@std@@@std@@SAXAAV?$allocator@U?$_List_node@HPAX@std@@@1@PAPAU?$_List_node@HPAX@1@@Z 00460820 f i FileTransfer.obj
 0001:0005f840       ??$destroy@V?$basic_string@DU?$char_traits@D@std@@V?$allocator@D@2@@std@@@?$_Wrap_alloc@V?$allocator@V?$basic_string@DU?$char_traits@D@std@@V?$allocator@D@2@@std@@@std@@@std@@QAEXPAV?$basic_string@DU?$char_traits@D@std@@V?$allocator@D@2@@1@@Z 00460840 f i FileTransfer.obj
 0001:0005f870       ??$destroy@V?$basic_string@DU?$char_traits@D@std@@V?$allocator@D@2@@std@@@?$allocator@V?$basic_string@DU?$char_traits@D@std@@V?$allocator@D@2@@std@@@std@@QAEXPAV?$basic_string@DU?$char_traits@D@std@@V?$allocator@D@2@@1@@Z 00460870 f i FileTransfer.obj
 0001:0005f890       ??$destroy@V?$basic_string@DU?$char_traits@D@std@@V?$allocator@D@2@@std@@@?$allocator_traits@V?$allocator@V?$basic_string@DU?$char_traits@D@std@@V?$allocator@D@2@@std@@@std@@@std@@SAXAAV?$allocator@V?$basic_string@DU?$char_traits@D@std@@V?$allocator@D@2@@std@@@1@PAV?$basic_string@DU?$char_traits@D@std@@V?$allocator@D@2@@1@@Z 00460890 f i FileTransfer.obj
 0001:0005f8b0       ??$forward@AAPAU?$_List_node@HPAX@std@@@std@@YAAAPAU?$_List_node@HPAX@0@AAPAU10@@Z 004608b0 f i FileTransfer.obj
 0001:0005f8c0       ??$forward@ABH@std@@YAABHABH@Z 004608c0 f i FileTransfer.obj
 0001:0005f8d0       ??$forward@V?$basic_string@DU?$char_traits@D@std@@V?$allocator@D@2@@std@@@std@@YA$$QAV?$basic_string@DU?$char_traits@D@std@@V?$allocator@D@2@@0@AAV10@@Z 004608d0 f i FileTransfer.obj
 0001:0005f8e0       ??$strncpy_s@$0EA@@@YAHAAY0EA@DPBDI@Z 004608e0 f i FileTransfer.obj
 0001:0005f910       ??0?$_Iterator012@Ubidirectional_iterator_tag@std@@HHPBHABHU_Iterator_base12@2@@std@@QAE@ABU01@@Z 00460910 f i FileTransfer.obj
 0001:0005f940       ??0?$_Iterator012@Ubidirectional_iterator_tag@std@@HHPBHABHU_Iterator_base12@2@@std@@QAE@XZ 00460940 f i FileTransfer.obj
 0001:0005f960       ??0?$_Iterator012@Urandom_access_iterator_tag@std@@V?$basic_string@DU?$char_traits@D@std@@V?$allocator@D@2@@2@HPBV32@ABV32@U_Iterator_base12@2@@std@@QAE@XZ 00460960 f i FileTransfer.obj
 0001:0005f980       ??0?$_List_alloc@$0A@U?$_List_base_types@HV?$allocator@H@std@@@std@@@std@@QAE@ABV?$allocator@H@1@@Z 00460980 f i FileTransfer.obj
 0001:0005fa50       ??0?$_List_buy@HV?$allocator@H@std@@@std@@QAE@ABV?$allocator@H@1@@Z 00460a50 f i FileTransfer.obj
 0001:0005fa80       ??0?$_List_const_iterator@V?$_List_val@U?$_List_simple_types@H@std@@@std@@@std@@QAE@ABV01@@Z 00460a80 f i FileTransfer.obj
 0001:0005fab0       ??0?$_List_const_iterator@V?$_List_val@U?$_List_simple_types@H@std@@@std@@@std@@QAE@PAU?$_List_node@HPAX@1@PBV?$_List_val@U?$_List_simple_types@H@std@@@1@@Z 00460ab0 f i FileTransfer.obj
 0001:0005fae0       ??0?$_List_const_iterator@V?$_List_val@U?$_List_simple_types@H@std@@@std@@@std@@QAE@XZ 00460ae0 f i FileTransfer.obj
 0001:0005fb00       ??0?$_List_iterator@V?$_List_val@U?$_List_simple_types@H@std@@@std@@@std@@QAE@ABV01@@Z 00460b00 f i FileTransfer.obj
 0001:0005fb30       ??0?$_List_iterator@V?$_List_val@U?$_List_simple_types@H@std@@@std@@@std@@QAE@PAU?$_List_node@HPAX@1@PBV?$_List_val@U?$_List_simple_types@H@std@@@1@@Z 00460b30 f i FileTransfer.obj
 0001:0005fb60       ??0?$_List_iterator@V?$_List_val@U?$_List_simple_types@H@std@@@std@@@std@@QAE@XZ 00460b60 f i FileTransfer.obj
 0001:0005fb80       ??0?$_List_unchecked_const_iterator@V?$_List_val@U?$_List_simple_types@H@std@@@std@@U_Iterator_base0@2@@std@@QAE@PAU?$_List_node@HPAX@1@PBV?$_List_val@U?$_List_simple_types@H@std@@@1@@Z 00460b80 f i FileTransfer.obj
 0001:0005fbb0       ??0?$_List_unchecked_const_iterator@V?$_List_val@U?$_List_simple_types@H@std@@@std@@U_Iterator_base12@2@@std@@QAE@ABV01@@Z 00460bb0 f i FileTransfer.obj
 0001:0005fbf0       ??0?$_List_unchecked_const_iterator@V?$_List_val@U?$_List_simple_types@H@std@@@std@@U_Iterator_base12@2@@std@@QAE@PAU?$_List_node@HPAX@1@PBV?$_List_val@U?$_List_simple_types@H@std@@@1@@Z 00460bf0 f i FileTransfer.obj
 0001:0005fc70       ??0?$_List_unchecked_const_iterator@V?$_List_val@U?$_List_simple_types@H@std@@@std@@U_Iterator_base12@2@@std@@QAE@XZ 00460c70 f i FileTransfer.obj
 0001:0005fca0       ??0?$_List_unchecked_iterator@V?$_List_val@U?$_List_simple_types@H@std@@@std@@@std@@QAE@PAU?$_List_node@HPAX@1@PBV?$_List_val@U?$_List_simple_types@H@std@@@1@@Z 00460ca0 f i FileTransfer.obj
 0001:0005fcd0       ??0?$_List_val@U?$_List_simple_types@H@std@@@std@@QAE@XZ 00460cd0 f i FileTransfer.obj
 0001:0005fd10       ??0?$_Vector_alloc@$0A@U?$_Vec_base_types@V?$basic_string@DU?$char_traits@D@std@@V?$allocator@D@2@@std@@V?$allocator@V?$basic_string@DU?$char_traits@D@std@@V?$allocator@D@2@@std@@@2@@std@@@std@@QAE@ABV?$allocator@V?$basic_string@DU?$char_traits@D@std@@V?$allocator@D@2@@std@@@1@@Z 00460d10 f i FileTransfer.obj
 0001:0005fd80       ??0?$_Vector_const_iterator@V?$_Vector_val@U?$_Simple_types@V?$basic_string@DU?$char_traits@D@std@@V?$allocator@D@2@@std@@@std@@@std@@@std@@QAE@PAV?$basic_string@DU?$char_traits@D@std@@V?$allocator@D@2@@1@PBU_Container_base12@1@@Z 00460d80 f i FileTransfer.obj
 0001:0005fe00       ??0?$_Vector_iterator@V?$_Vector_val@U?$_Simple_types@V?$basic_string@DU?$char_traits@D@std@@V?$allocator@D@2@@std@@@std@@@std@@@std@@QAE@PAV?$basic_string@DU?$char_traits@D@std@@V?$allocator@D@2@@1@PBU_Container_base12@1@@Z 00460e00 f i FileTransfer.obj
 0001:0005fe30       ??0?$_Vector_val@U?$_Simple_types@V?$basic_string@DU?$char_traits@D@std@@V?$allocator@D@2@@std@@@std@@@std@@QAE@XZ 00460e30 f i FileTransfer.obj
 0001:0005fe80       ??0?$_Wrap_alloc@V?$allocator@U?$_List_node@HPAX@std@@@std@@@std@@QAE@XZ 00460e80 f i FileTransfer.obj
 0001:0005fea0       ??0?$_Wrap_alloc@V?$allocator@V?$basic_string@DU?$char_traits@D@std@@V?$allocator@D@2@@std@@@std@@@std@@QAE@XZ 00460ea0 f i FileTransfer.obj
 0001:0005fec0       ??0?$allocator@H@std@@QAE@XZ 00460ec0 f i FileTransfer.obj
 0001:0005fee0       ??0?$allocator@U?$_List_node@HPAX@std@@@std@@QAE@XZ 00460ee0 f i FileTransfer.obj
 0001:0005ff00       ??0?$allocator@V?$basic_string@DU?$char_traits@D@std@@V?$allocator@D@2@@std@@@std@@QAE@XZ 00460f00 f i FileTransfer.obj
 0001:0005ff20       ??0?$basic_string@DU?$char_traits@D@std@@V?$allocator@D@2@@std@@QAE@$$QAV01@@Z 00460f20 f i FileTransfer.obj
 0001:0005ff80       ??0?$list@HV?$allocator@H@std@@@std@@QAE@XZ 00460f80 f i FileTransfer.obj
 0001:0005ffb0       ??0?$vector@V?$basic_string@DU?$char_traits@D@std@@V?$allocator@D@2@@std@@V?$allocator@V?$basic_string@DU?$char_traits@D@std@@V?$allocator@D@2@@std@@@2@@std@@QAE@XZ 00460fb0 f i FileTransfer.obj
 0001:0005ffe0       ??1?$_Iterator012@Ubidirectional_iterator_tag@std@@HHPBHABHU_Iterator_base12@2@@std@@QAE@XZ 00460fe0 f i FileTransfer.obj
 0001:00060000       ??1?$_Iterator012@Urandom_access_iterator_tag@std@@V?$basic_string@DU?$char_traits@D@std@@V?$allocator@D@2@@2@HPBV32@ABV32@U_Iterator_base12@2@@std@@QAE@XZ 00461000 f i FileTransfer.obj
 0001:00060020       ??1?$_List_alloc@$0A@U?$_List_base_types@HV?$allocator@H@std@@@std@@@std@@QAE@XZ 00461020 f i FileTransfer.obj
 0001:00060060       ??1?$_List_buy@HV?$allocator@H@std@@@std@@QAE@XZ 00461060 f i FileTransfer.obj
 0001:00060080       ??1?$_List_const_iterator@V?$_List_val@U?$_List_simple_types@H@std@@@std@@@std@@QAE@XZ 00461080 f i FileTransfer.obj
 0001:000600a0       ??1?$_List_iterator@V?$_List_val@U?$_List_simple_types@H@std@@@std@@@std@@QAE@XZ 004610a0 f i FileTransfer.obj
 0001:000600c0       ??1?$_List_unchecked_const_iterator@V?$_List_val@U?$_List_simple_types@H@std@@@std@@U_Iterator_base12@2@@std@@QAE@XZ 004610c0 f i FileTransfer.obj
 0001:000600e0       ??1?$_List_val@U?$_List_simple_types@H@std@@@std@@QAE@XZ 004610e0 f i FileTransfer.obj
 0001:00060100       ??1?$_Vector_alloc@$0A@U?$_Vec_base_types@V?$basic_string@DU?$char_traits@D@std@@V?$allocator@D@2@@std@@V?$allocator@V?$basic_string@DU?$char_traits@D@std@@V?$allocator@D@2@@std@@@2@@std@@@std@@QAE@XZ 00461100 f i FileTransfer.obj
 0001:00060130       ??1?$_Vector_const_iterator@V?$_Vector_val@U?$_Simple_types@V?$basic_string@DU?$char_traits@D@std@@V?$allocator@D@2@@std@@@std@@@std@@@std@@QAE@XZ 00461130 f i FileTransfer.obj
 0001:00060150       ??1?$_Vector_iterator@V?$_Vector_val@U?$_Simple_types@V?$basic_string@DU?$char_traits@D@std@@V?$allocator@D@2@@std@@@std@@@std@@@std@@QAE@XZ 00461150 f i FileTransfer.obj
 0001:00060170       ??1?$_Vector_val@U?$_Simple_types@V?$basic_string@DU?$char_traits@D@std@@V?$allocator@D@2@@std@@@std@@@std@@QAE@XZ 00461170 f i FileTransfer.obj
 0001:00060190       ??1?$list@HV?$allocator@H@std@@@std@@QAE@XZ 00461190 f i FileTransfer.obj
 0001:000601c0       ??1?$vector@V?$basic_string@DU?$char_traits@D@std@@V?$allocator@D@2@@std@@V?$allocator@V?$basic_string@DU?$char_traits@D@std@@V?$allocator@D@2@@std@@@2@@std@@QAE@XZ 004611c0 f i FileTransfer.obj
 0001:000601f0       ??4?$_Iterator012@Ubidirectional_iterator_tag@std@@HHPBHABHU_Iterator_base12@2@@std@@QAEAAU01@ABU01@@Z 004611f0 f i FileTransfer.obj
 0001:00060220       ??4?$_List_const_iterator@V?$_List_val@U?$_List_simple_types@H@std@@@std@@@std@@QAEAAV01@ABV01@@Z 00461220 f i FileTransfer.obj
 0001:00060250       ??4?$_List_iterator@V?$_List_val@U?$_List_simple_types@H@std@@@std@@@std@@QAEAAV01@ABV01@@Z 00461250 f i FileTransfer.obj
 0001:00060280       ??4?$_List_unchecked_const_iterator@V?$_List_val@U?$_List_simple_types@H@std@@@std@@U_Iterator_base12@2@@std@@QAEAAV01@ABV01@@Z 00461280 f i FileTransfer.obj
 0001:000602c0       ??8?$_List_const_iterator@V?$_List_val@U?$_List_simple_types@H@std@@@std@@@std@@QBE_NABV01@@Z 004612c0 f i FileTransfer.obj
 0001:000603b0       ??8?$_Vector_const_iterator@V?$_Vector_val@U?$_Simple_types@V?$basic_string@DU?$char_traits@D@std@@V?$allocator@D@2@@std@@@std@@@std@@@std@@QBE_NABV01@@Z 004613b0 f i FileTransfer.obj
 0001:00060400       ??9?$_List_const_iterator@V?$_List_val@U?$_List_simple_types@H@std@@@std@@@std@@QBE_NABV01@@Z 00461400 f i FileTransfer.obj
 0001:00060450       ??9?$_Vector_const_iterator@V?$_Vector_val@U?$_Simple_types@V?$basic_string@DU?$char_traits@D@std@@V?$allocator@D@2@@std@@@std@@@std@@@std@@QBE_NABV01@@Z 00461450 f i FileTransfer.obj
 0001:000604a0       ??C?$_Vector_iterator@V?$_Vector_val@U?$_Simple_types@V?$basic_string@DU?$char_traits@D@std@@V?$allocator@D@2@@std@@@std@@@std@@@std@@QBEPAV?$basic_string@DU?$char_traits@D@std@@V?$allocator@D@2@@1@XZ 004614a0 f i FileTransfer.obj
 0001:000604d0       ??D?$_List_const_iterator@V?$_List_val@U?$_List_simple_types@H@std@@@std@@@std@@QBEABHXZ 004614d0 f i FileTransfer.obj
 0001:000605b0       ??D?$_List_iterator@V?$_List_val@U?$_List_simple_types@H@std@@@std@@@std@@QBEAAHXZ 004615b0 f i FileTransfer.obj
 0001:000605d0       ??D?$_String_const_iterator@V?$_String_val@U?$_Simple_types@D@std@@@std@@@std@@QBEABDXZ 004615d0 f i FileTransfer.obj
 0001:000606d0       ??D?$_String_iterator@V?$_String_val@U?$_Simple_types@D@std@@@std@@@std@@QBEAADXZ 004616d0 f i FileTransfer.obj
 0001:000606f0       ??D?$_Vector_const_iterator@V?$_Vector_val@U?$_Simple_types@V?$basic_string@DU?$char_traits@D@std@@V?$allocator@D@2@@std@@@std@@@std@@@std@@QBEABV?$basic_string@DU?$char_traits@D@std@@V?$allocator@D@2@@1@XZ 004616f0 f i FileTransfer.obj
 0001:000607d0       ??D?$_Vector_iterator@V?$_Vector_val@U?$_Simple_types@V?$basic_string@DU?$char_traits@D@std@@V?$allocator@D@2@@std@@@std@@@std@@@std@@QBEAAV?$basic_string@DU?$char_traits@D@std@@V?$allocator@D@2@@1@XZ 004617d0 f i FileTransfer.obj
 0001:000607f0       ??E?$_List_const_iterator@V?$_List_val@U?$_List_simple_types@H@std@@@std@@@std@@QAEAAV01@XZ 004617f0 f i FileTransfer.obj
 0001:000608e0       ??E?$_List_iterator@V?$_List_val@U?$_List_simple_types@H@std@@@std@@@std@@QAE?AV01@H@Z 004618e0 f i FileTransfer.obj
 0001:00060990       ??E?$_List_iterator@V?$_List_val@U?$_List_simple_types@H@std@@@std@@@std@@QAEAAV01@XZ 00461990 f i FileTransfer.obj
 0001:000609b0       ??E?$_Vector_const_iterator@V?$_Vector_val@U?$_Simple_types@V?$basic_string@DU?$char_traits@D@std@@V?$allocator@D@2@@std@@@std@@@std@@@std@@QAEAAV01@XZ 004619b0 f i FileTransfer.obj
 0001:00060a80       ??E?$_Vector_iterator@V?$_Vector_val@U?$_Simple_types@V?$basic_string@DU?$char_traits@D@std@@V?$allocator@D@2@@std@@@std@@@std@@@std@@QAEAAV01@XZ 00461a80 f i FileTransfer.obj
 0001:00060aa0       ??Y?$basic_string@DU?$char_traits@D@std@@V?$allocator@D@2@@std@@QAEAAV01@PBD@Z 00461aa0 f i FileTransfer.obj
 0001:00060ac0       ??_G?$basic_string@DU?$char_traits@D@std@@V?$allocator@D@2@@std@@QAEPAXI@Z 00461ac0 f i FileTransfer.obj
 0001:00060b00       ??_EFileTransfer@@UAEPAXI@Z 00461b00 f i FileTransfer.obj
 0001:00060b00       ??_GFileTransfer@@UAEPAXI@Z 00461b00 f i FileTransfer.obj
 0001:00060b40       ?IsDormant@ClientConnection@@QAEHXZ 00461b40 f i FileTransfer.obj
 0001:00060b60       ?_Adopt@_Iterator_base0@std@@QAEXPBX@Z 00461b60 f i FileTransfer.obj
 0001:00060b70       ?_Alloc_proxy@?$_List_alloc@$0A@U?$_List_base_types@HV?$allocator@H@std@@@std@@@std@@QAEXXZ 00461b70 f i FileTransfer.obj
 0001:00060bd0       ?_Alloc_proxy@?$_Vector_alloc@$0A@U?$_Vec_base_types@V?$basic_string@DU?$char_traits@D@std@@V?$allocator@D@2@@std@@V?$allocator@V?$basic_string@DU?$char_traits@D@std@@V?$allocator@D@2@@std@@@2@@std@@@std@@QAEXXZ 00461bd0 f i FileTransfer.obj
 0001:00060c30       ?_Assign_rv@?$basic_string@DU?$char_traits@D@std@@V?$allocator@D@2@@std@@QAEX$$QAV12@@Z 00461c30 f i FileTransfer.obj
 0001:00060ce0       ?_Buyheadnode@?$_List_alloc@$0A@U?$_List_base_types@HV?$allocator@H@std@@@std@@@std@@QAEPAU?$_List_node@HPAX@2@XZ 00461ce0 f i FileTransfer.obj
 0001:00060d00       ?_Buynode0@?$_List_alloc@$0A@U?$_List_base_types@HV?$allocator@H@std@@@std@@@std@@QAEPAU?$_List_node@HPAX@2@PAU32@0@Z 00461d00 f i FileTransfer.obj
 0001:00060e70       ?_Compat@?$_Vector_const_iterator@V?$_Vector_val@U?$_Simple_types@V?$basic_string@DU?$char_traits@D@std@@V?$allocator@D@2@@std@@@std@@@std@@@std@@QBEXABV12@@Z 00461e70 f i FileTransfer.obj
 0001:00060f30       ?_Destroy@?$vector@V?$basic_string@DU?$char_traits@D@std@@V?$allocator@D@2@@std@@V?$allocator@V?$basic_string@DU?$char_traits@D@std@@V?$allocator@D@2@@std@@@2@@std@@IAEXPAV?$basic_string@DU?$char_traits@D@std@@V?$allocator@D@2@@2@0@Z 00461f30 f i FileTransfer.obj
 0001:00060f70       ?_Free_proxy@?$_List_alloc@$0A@U?$_List_base_types@HV?$allocator@H@std@@@std@@@std@@QAEXXZ 00461f70 f i FileTransfer.obj
 0001:00060fd0       ?_Free_proxy@?$_Vector_alloc@$0A@U?$_Vec_base_types@V?$basic_string@DU?$char_traits@D@std@@V?$allocator@D@2@@std@@V?$allocator@V?$basic_string@DU?$char_traits@D@std@@V?$allocator@D@2@@std@@@2@@std@@@std@@QAEXXZ 00461fd0 f i FileTransfer.obj
 0001:00061030       ?_Freeheadnode@?$_List_alloc@$0A@U?$_List_base_types@HV?$allocator@H@std@@@std@@@std@@QAEXPAU?$_List_node@HPAX@2@@Z 00462030 f i FileTransfer.obj
 0001:000610d0       ?_Freenode@?$_List_buy@HV?$allocator@H@std@@@std@@QAEXPAU?$_List_node@HPAX@2@@Z 004620d0 f i FileTransfer.obj
 0001:000611a0       ?_Getal@?$_List_alloc@$0A@U?$_List_base_types@HV?$allocator@H@std@@@std@@@std@@QBE?AU?$_Wrap_alloc@V?$allocator@U?$_List_node@HPAX@std@@@std@@@2@XZ 004621a0 f i FileTransfer.obj
 0001:000611c0       ?_Getal@?$_Vector_alloc@$0A@U?$_Vec_base_types@V?$basic_string@DU?$char_traits@D@std@@V?$allocator@D@2@@std@@V?$allocator@V?$basic_string@DU?$char_traits@D@std@@V?$allocator@D@2@@std@@@2@@std@@@std@@QBE?AU?$_Wrap_alloc@V?$allocator@V?$basic_string@DU?$char_traits@D@std@@V?$allocator@D@2@@std@@@std@@@2@XZ 004621c0 f i FileTransfer.obj
 0001:000611e0       ?_Grow_to@?$vector@V?$basic_string@DU?$char_traits@D@std@@V?$allocator@D@2@@std@@V?$allocator@V?$basic_string@DU?$char_traits@D@std@@V?$allocator@D@2@@std@@@2@@std@@IBEII@Z 004621e0 f i FileTransfer.obj
 0001:00061250       ?_Incsize@?$list@HV?$allocator@H@std@@@std@@QAEXI@Z 00462250 f i FileTransfer.obj
 0001:000612a0       ?_Inside@?$vector@V?$basic_string@DU?$char_traits@D@std@@V?$allocator@D@2@@std@@V?$allocator@V?$basic_string@DU?$char_traits@D@std@@V?$allocator@D@2@@std@@@2@@std@@IBE_NPBV?$basic_string@DU?$char_traits@D@std@@V?$allocator@D@2@@2@@Z 004622a0 f i FileTransfer.obj
 0001:000612f0       ?_Mynode@?$_List_unchecked_const_iterator@V?$_List_val@U?$_List_simple_types@H@std@@@std@@U_Iterator_base0@2@@std@@QBEPAU?$_List_node@HPAX@2@XZ 004622f0 f i FileTransfer.obj
 0001:00061310       ?_Myval@?$_List_val@U?$_List_simple_types@H@std@@@std@@SAAAHPAU?$_List_node@HPAX@2@@Z 00462310 f i FileTransfer.obj
 0001:00061320       ?_Nextnode@?$_List_val@U?$_List_simple_types@H@std@@@std@@SAAAPAU?$_List_node@HPAX@2@PAU32@@Z 00462320 f i FileTransfer.obj
 0001:00061330       ?_Orphan_ptr@?$list@HV?$allocator@H@std@@@std@@QBEXAAV12@PAU?$_List_node@HPAX@2@@Z 00462330 f i FileTransfer.obj
 0001:00061430       ?_Orphan_range@?$vector@V?$basic_string@DU?$char_traits@D@std@@V?$allocator@D@2@@std@@V?$allocator@V?$basic_string@DU?$char_traits@D@std@@V?$allocator@D@2@@std@@@2@@std@@IBEXPAV?$basic_string@DU?$char_traits@D@std@@V?$allocator@D@2@@2@0@Z 00462430 f i FileTransfer.obj
 0001:00061520       ?_Prevnode@?$_List_val@U?$_List_simple_types@H@std@@@std@@SAAAPAU?$_List_node@HPAX@2@PAU32@@Z 00462520 f i FileTransfer.obj
 0001:00061530       ?_Reallocate@?$vector@V?$basic_string@DU?$char_traits@D@std@@V?$allocator@D@2@@std@@V?$allocator@V?$basic_string@DU?$char_traits@D@std@@V?$allocator@D@2@@std@@@2@@std@@IAEXI@Z 00462530 f i FileTransfer.obj
 0001:000616c0       ?_Reserve@?$vector@V?$basic_string@DU?$char_traits@D@std@@V?$allocator@D@2@@std@@V?$allocator@V?$basic_string@DU?$char_traits@D@std@@V?$allocator@D@2@@std@@@2@@std@@IAEXI@Z 004626c0 f i FileTransfer.obj
 0001:00061730       ?_Tidy@?$list@HV?$allocator@H@std@@@std@@QAEXXZ 00462730 f i FileTransfer.obj
 0001:00061750       ?_Tidy@?$vector@V?$basic_string@DU?$char_traits@D@std@@V?$allocator@D@2@@std@@V?$allocator@V?$basic_string@DU?$char_traits@D@std@@V?$allocator@D@2@@std@@@2@@std@@IAEXXZ 00462750 f i FileTransfer.obj
 0001:00061800       ?_Unchecked_end@?$list@HV?$allocator@H@std@@@std@@QAE?AV?$_List_unchecked_iterator@V?$_List_val@U?$_List_simple_types@H@std@@@std@@@2@XZ 00462800 f i FileTransfer.obj
 0001:00061830       ?_Unused_capacity@?$vector@V?$basic_string@DU?$char_traits@D@std@@V?$allocator@D@2@@std@@V?$allocator@V?$basic_string@DU?$char_traits@D@std@@V?$allocator@D@2@@std@@@2@@std@@QBEIXZ 00462830 f i FileTransfer.obj
 0001:00061860       ?_Xlen@?$vector@V?$basic_string@DU?$char_traits@D@std@@V?$allocator@D@2@@std@@V?$allocator@V?$basic_string@DU?$char_traits@D@std@@V?$allocator@D@2@@std@@@2@@std@@IBEXXZ 00462860 f i FileTransfer.obj
 0001:00061880       ?_mbschr@@YAPAEPAEI@Z      00462880 f i FileTransfer.obj
 0001:000618a0       ?_mbsrchr@@YAPAEPAEI@Z     004628a0 f i FileTransfer.obj
 0001:000618c0       ?allocate@?$_Wrap_alloc@V?$allocator@U?$_List_node@HPAX@std@@@std@@@std@@QAEPAU?$_List_node@HPAX@2@I@Z 004628c0 f i FileTransfer.obj
 0001:000618e0       ?allocate@?$_Wrap_alloc@V?$allocator@V?$basic_string@DU?$char_traits@D@std@@V?$allocator@D@2@@std@@@std@@@std@@QAEPAV?$basic_string@DU?$char_traits@D@std@@V?$allocator@D@2@@2@I@Z 004628e0 f i FileTransfer.obj
 0001:00061900       ?allocate@?$allocator@U?$_List_node@HPAX@std@@@std@@QAEPAU?$_List_node@HPAX@2@I@Z 00462900 f i FileTransfer.obj
 0001:00061930       ?allocate@?$allocator@V?$basic_string@DU?$char_traits@D@std@@V?$allocator@D@2@@std@@@std@@QAEPAV?$basic_string@DU?$char_traits@D@std@@V?$allocator@D@2@@2@I@Z 00462930 f i FileTransfer.obj
 0001:00061960       ?append@?$basic_string@DU?$char_traits@D@std@@V?$allocator@D@2@@std@@QAEAAV12@ABV12@II@Z 00462960 f i FileTransfer.obj
 0001:00061a50       ?append@?$basic_string@DU?$char_traits@D@std@@V?$allocator@D@2@@std@@QAEAAV12@PBD@Z 00462a50 f i FileTransfer.obj
 0001:00061aa0       ?append@?$basic_string@DU?$char_traits@D@std@@V?$allocator@D@2@@std@@QAEAAV12@PBDI@Z 00462aa0 f i FileTransfer.obj
 0001:00061ba0       ?begin@?$list@HV?$allocator@H@std@@@std@@QAE?AV?$_List_iterator@V?$_List_val@U?$_List_simple_types@H@std@@@std@@@2@XZ 00462ba0 f i FileTransfer.obj
 0001:00061be0       ?begin@?$vector@V?$basic_string@DU?$char_traits@D@std@@V?$allocator@D@2@@std@@V?$allocator@V?$basic_string@DU?$char_traits@D@std@@V?$allocator@D@2@@std@@@2@@std@@QAE?AV?$_Vector_iterator@V?$_Vector_val@U?$_Simple_types@V?$basic_string@DU?$char_traits@D@std@@V?$allocator@D@2@@std@@@std@@@std@@@2@XZ 00462be0 f i FileTransfer.obj
 0001:00061c10       ?c_str@?$basic_string@DU?$char_traits@D@std@@V?$allocator@D@2@@std@@QBEPBDXZ 00462c10 f i FileTransfer.obj
 0001:00061c30       ?capacity@?$vector@V?$basic_string@DU?$char_traits@D@std@@V?$allocator@D@2@@std@@V?$allocator@V?$basic_string@DU?$char_traits@D@std@@V?$allocator@D@2@@std@@@2@@std@@QBEIXZ 00462c30 f i FileTransfer.obj
 0001:00061c60       ?clear@?$list@HV?$allocator@H@std@@@std@@QAEXXZ 00462c60 f i FileTransfer.obj
 0001:00061d20       ?deallocate@?$_Wrap_alloc@V?$allocator@U?$_List_node@HPAX@std@@@std@@@std@@QAEXPAU?$_List_node@HPAX@2@I@Z 00462d20 f i FileTransfer.obj
 0001:00061d50       ?deallocate@?$_Wrap_alloc@V?$allocator@V?$basic_string@DU?$char_traits@D@std@@V?$allocator@D@2@@std@@@std@@@std@@QAEXPAV?$basic_string@DU?$char_traits@D@std@@V?$allocator@D@2@@2@I@Z 00462d50 f i FileTransfer.obj
 0001:00061d80       ?deallocate@?$allocator@U?$_List_node@HPAX@std@@@std@@QAEXPAU?$_List_node@HPAX@2@I@Z 00462d80 f i FileTransfer.obj
 0001:00061da0       ?deallocate@?$allocator@V?$basic_string@DU?$char_traits@D@std@@V?$allocator@D@2@@std@@@std@@QAEXPAV?$basic_string@DU?$char_traits@D@std@@V?$allocator@D@2@@2@I@Z 00462da0 f i FileTransfer.obj
 0001:00061dc0       ?end@?$list@HV?$allocator@H@std@@@std@@QAE?AV?$_List_iterator@V?$_List_val@U?$_List_simple_types@H@std@@@std@@@2@XZ 00462dc0 f i FileTransfer.obj
 0001:00061df0       ?end@?$vector@V?$basic_string@DU?$char_traits@D@std@@V?$allocator@D@2@@std@@V?$allocator@V?$basic_string@DU?$char_traits@D@std@@V?$allocator@D@2@@std@@@2@@std@@QAE?AV?$_Vector_iterator@V?$_Vector_val@U?$_Simple_types@V?$basic_string@DU?$char_traits@D@std@@V?$allocator@D@2@@std@@@std@@@std@@@2@XZ 00462df0 f i FileTransfer.obj
 0001:00061e20       ?find@?$basic_string@DU?$char_traits@D@std@@V?$allocator@D@2@@std@@QBEIPBDI@Z 00462e20 f i FileTransfer.obj
 0001:00061e70       ?find@?$basic_string@DU?$char_traits@D@std@@V?$allocator@D@2@@std@@QBEIPBDII@Z 00462e70 f i FileTransfer.obj
 0001:00061fa0       ?find@?$char_traits@D@std@@SAPBDPBDIABD@Z 00462fa0 f i FileTransfer.obj
 0001:00061ff0       ?find_first_not_of@?$basic_string@DU?$char_traits@D@std@@V?$allocator@D@2@@std@@QBEIPBDI@Z 00462ff0 f i FileTransfer.obj
 0001:00062040       ?find_first_not_of@?$basic_string@DU?$char_traits@D@std@@V?$allocator@D@2@@std@@QBEIPBDII@Z 00463040 f i FileTransfer.obj
 0001:00062100       ?length@?$basic_string@DU?$char_traits@D@std@@V?$allocator@D@2@@std@@QBEIXZ 00463100 f i FileTransfer.obj
 0001:00062120       ?max_size@?$_Wrap_alloc@V?$allocator@U?$_List_node@HPAX@std@@@std@@@std@@QBEIXZ 00463120 f i FileTransfer.obj
 0001:00062140       ?max_size@?$_Wrap_alloc@V?$allocator@V?$basic_string@DU?$char_traits@D@std@@V?$allocator@D@2@@std@@@std@@@std@@QBEIXZ 00463140 f i FileTransfer.obj
 0001:00062160       ?max_size@?$allocator@U?$_List_node@HPAX@std@@@std@@QBEIXZ 00463160 f i FileTransfer.obj
 0001:00062180       ?max_size@?$allocator@V?$basic_string@DU?$char_traits@D@std@@V?$allocator@D@2@@std@@@std@@QBEIXZ 00463180 f i FileTransfer.obj
 0001:000621a0       ?max_size@?$allocator_traits@V?$allocator@U?$_List_node@HPAX@std@@@std@@@std@@SAIABV?$allocator@U?$_List_node@HPAX@std@@@2@@Z 004631a0 f i FileTransfer.obj
 0001:000621b0       ?max_size@?$allocator_traits@V?$allocator@V?$basic_string@DU?$char_traits@D@std@@V?$allocator@D@2@@std@@@std@@@std@@SAIABV?$allocator@V?$basic_string@DU?$char_traits@D@std@@V?$allocator@D@2@@std@@@2@@Z 004631b0 f i FileTransfer.obj
 0001:000621c0       ?max_size@?$list@HV?$allocator@H@std@@@std@@QBEIXZ 004631c0 f i FileTransfer.obj
 0001:000621f0       ?max_size@?$vector@V?$basic_string@DU?$char_traits@D@std@@V?$allocator@D@2@@std@@V?$allocator@V?$basic_string@DU?$char_traits@D@std@@V?$allocator@D@2@@std@@@2@@std@@QBEIXZ 004631f0 f i FileTransfer.obj
 0001:00062220       ?pointer_to@?$pointer_traits@PAV?$basic_string@DU?$char_traits@D@std@@V?$allocator@D@2@@std@@@std@@SAPAV?$basic_string@DU?$char_traits@D@std@@V?$allocator@D@2@@2@AAV32@@Z 00463220 f i FileTransfer.obj
 0001:00062240       ?push_back@?$list@HV?$allocator@H@std@@@std@@QAEXABH@Z 00463240 f i FileTransfer.obj
 0001:00062280       ?push_back@?$vector@V?$basic_string@DU?$char_traits@D@std@@V?$allocator@D@2@@std@@V?$allocator@V?$basic_string@DU?$char_traits@D@std@@V?$allocator@D@2@@std@@@2@@std@@QAEX$$QAV?$basic_string@DU?$char_traits@D@std@@V?$allocator@D@2@@2@@Z 00463280 f i FileTransfer.obj
 0001:000623f0       ?resize@?$basic_string@DU?$char_traits@D@std@@V?$allocator@D@2@@std@@QAEXI@Z 004633f0 f i FileTransfer.obj
 0001:00062420       ?resize@?$basic_string@DU?$char_traits@D@std@@V?$allocator@D@2@@std@@QAEXID@Z 00463420 f i FileTransfer.obj
 0001:00062470       ?size@?$list@HV?$allocator@H@std@@@std@@QBEIXZ 00463470 f i FileTransfer.obj
 0001:00062490       ?size@?$vector@V?$basic_string@DU?$char_traits@D@std@@V?$allocator@D@2@@std@@V?$allocator@V?$basic_string@DU?$char_traits@D@std@@V?$allocator@D@2@@std@@@2@@std@@QBEIXZ 00463490 f i FileTransfer.obj
 0001:000624c0       _Int64ShraMod32@12         004634c0 f i FileTransfer.obj
 0001:000624e0       _xGetSystemMetrics@4       004634e0 f   FullScreenTitleBar.obj
 0001:00062560       _xMonitorFromWindow@8      00463560 f   FullScreenTitleBar.obj
 0001:000625d0       _xMonitorFromRect@8        004635d0 f   FullScreenTitleBar.obj
 0001:00062640       _xMonitorFromPoint@12      00463640 f   FullScreenTitleBar.obj
 0001:000626a0       _xGetMonitorInfo@8         004636a0 f   FullScreenTitleBar.obj
 0001:00062790       _xEnumDisplayMonitors@16   00463790 f   FullScreenTitleBar.obj
 0001:000628d0       _xEnumDisplayDevices@16    004638d0 f   FullScreenTitleBar.obj
 0001:00062900       ??0CTitleBar@@QAE@XZ       00463900 f   FullScreenTitleBar.obj
 0001:00062960       ??0CTitleBar@@QAE@PAUHINSTANCE__@@PAUHWND__@@@Z 00463960 f   FullScreenTitleBar.obj
 0001:000629a0       ??1CTitleBar@@UAE@XZ       004639a0 f   FullScreenTitleBar.obj
 0001:00062a30       ?Create@CTitleBar@@QAEXPAUHINSTANCE__@@PAUHWND__@@@Z 00463a30 f   FullScreenTitleBar.obj
 0001:00062a60       ?SetText@CTitleBar@@QAEXPAD@Z 00463a60 f   FullScreenTitleBar.obj
 0001:00062a80       ?DisplayWindow@CTitleBar@@QAEXHH@Z 00463a80 f   FullScreenTitleBar.obj
 0001:00062ba0       ?MoveToMonitor@CTitleBar@@QAEXPAUHMONITOR__@@@Z 00463ba0 f   FullScreenTitleBar.obj
 0001:00062c70       ?Init@CTitleBar@@AAEXXZ    00463c70 f   FullScreenTitleBar.obj
 0001:00062d40       ?CreateDisplay@CTitleBar@@AAEXXZ 00463d40 f   FullScreenTitleBar.obj
 0001:00063040       ?WndProc@CTitleBar@@CGJPAUHWND__@@IIJ@Z 00464040 f   FullScreenTitleBar.obj
 0001:00063bf0       ?Draw@CTitleBar@@AAEXXZ    00464bf0 f   FullScreenTitleBar.obj
 0001:00064020       ?LoadPictures@CTitleBar@@AAEXXZ 00465020 f   FullScreenTitleBar.obj
 0001:000640b0       ?FreePictures@CTitleBar@@AAEXXZ 004650b0 f   FullScreenTitleBar.obj
 0001:00064100       _InitMultipleMonitorStubs  00465100 f   FullScreenTitleBar.obj
 0001:00064a30       ??$SafeGetWindowUserData@VCTitleBar@@@helper@@YAPAVCTitleBar@@PAUHWND__@@@Z 00465a30 f i FullScreenTitleBar.obj
 0001:00064a50       ??_GCTitleBar@@UAEPAXI@Z   00465a50 f i FullScreenTitleBar.obj
 0001:00064a50       ??_ECTitleBar@@UAEPAXI@Z   00465a50 f i FullScreenTitleBar.obj
 0001:00064a90       ??0KeyMap@@QAE@XZ          00465a90 f   KeyMap.obj
 0001:00064d10       ?PCtoX@KeyMap@@QAEXEKPAVClientConnection@@@Z 00465d10 f   KeyMap.obj
 0001:00065560       ?SetKeyMapOption1@KeyMap@@QAEX_N@Z 00466560 f   KeyMap.obj
 0001:00065590       ?SetKeyMapOption2@KeyMap@@QAEX_N@Z 00466590 f   KeyMap.obj
 0001:000655b0       ?Reset@KeyMap@@QAEXXZ      004665b0 f   KeyMap.obj
 0001:00065660       ?ReleaseAllKeys@KeyMap@@QAEXPAVClientConnection@@@Z 00466660 f   KeyMap.obj
 0001:00065720       ?BuildUCS2KS_Map@KeyMap@@AAEXXZ 00466720 f   KeyMap.obj
 0001:000677e0       ?FlushDeadKey@KeyMap@@AAEXPAE@Z 004687e0 f   KeyMap.obj
 0001:00067900       ?StoreModifier@KeyMap@@AAEXPAE0@Z 00468900 f   KeyMap.obj
 0001:00067980       ?SetModifier@KeyMap@@AAEXEPAE@Z 00468980 f   KeyMap.obj
 0001:00067be0       ?UCS2X@KeyMap@@AAEK_W@Z    00468be0 f   KeyMap.obj
 0001:00068ca0       ?releaseKey@KeyMap@@AAEXPAVClientConnection@@I@Z 00469ca0 f   KeyMap.obj
 0001:00068d30       ?pressKey@KeyMap@@AAEXPAVClientConnection@@IK@Z 00469d30 f   KeyMap.obj
 0001:00069f00       ??$?0AAV?$_Tree_iterator@V?$_Tree_val@U?$_Tree_simple_types@U?$pair@$$CBK_W@std@@@std@@@std@@@std@@_NX@?$pair@V?$_Tree_iterator@V?$_Tree_val@U?$_Tree_simple_types@U?$pair@$$CBK_W@std@@@std@@@std@@@std@@_N@std@@QAE@AAV?$_Tree_iterator@V?$_Tree_val@U?$_Tree_simple_types@U?$pair@$$CBK_W@std@@@std@@@std@@@1@$$QA_N@Z 0046af00 f i KeyMap.obj
 0001:00069f90       ??$?0AAV?$_Tree_iterator@V?$_Tree_val@U?$_Tree_simple_types@U?$pair@$$CB_WK@std@@@std@@@std@@@std@@_NX@?$pair@V?$_Tree_iterator@V?$_Tree_val@U?$_Tree_simple_types@U?$pair@$$CB_WK@std@@@std@@@std@@@std@@_N@std@@QAE@AAV?$_Tree_iterator@V?$_Tree_val@U?$_Tree_simple_types@U?$pair@$$CB_WK@std@@@std@@@std@@@1@$$QA_N@Z 0046af90 f i KeyMap.obj
 0001:0006a020       ??$?0ABK$$$V@?$pair@$$CBK_W@std@@QAE@Upiecewise_construct_t@1@V?$tuple@ABK@1@V?$tuple@$$$V@1@@Z 0046b020 f i KeyMap.obj
 0001:0006a070       ??$?0ABK@?$_Tuple_val@ABK@std@@QAE@ABK@Z 0046b070 f i KeyMap.obj
 0001:0006a0a0       ??$?0ABKPAPAX@?$tuple@ABK@std@@QAE@$$QAV01@@Z 0046b0a0 f i KeyMap.obj
 0001:0006a100       ??$?0AB_W$$$V@?$pair@$$CB_WK@std@@QAE@Upiecewise_construct_t@1@V?$tuple@AB_W@1@V?$tuple@$$$V@1@@Z 0046b100 f i KeyMap.obj
 0001:0006a150       ??$?0AB_W@?$_Tuple_val@AB_W@std@@QAE@AB_W@Z 0046b150 f i KeyMap.obj
 0001:0006a180       ??$?0AB_WPAPAX@?$tuple@AB_W@std@@QAE@$$QAV01@@Z 0046b180 f i KeyMap.obj
 0001:0006a1e0       ??$?0V?$_Tree_iterator@V?$_Tree_val@U?$_Tree_simple_types@U?$pair@$$CBK_W@std@@@std@@@std@@@std@@_NX@?$pair@V?$_Tree_iterator@V?$_Tree_val@U?$_Tree_simple_types@U?$pair@$$CBK_W@std@@@std@@@std@@@std@@_N@std@@QAE@$$QAV?$_Tree_iterator@V?$_Tree_val@U?$_Tree_simple_types@U?$pair@$$CBK_W@std@@@std@@@std@@@1@$$QA_N@Z 0046b1e0 f i KeyMap.obj
 0001:0006a270       ??$?0V?$_Tree_iterator@V?$_Tree_val@U?$_Tree_simple_types@U?$pair@$$CB_WK@std@@@std@@@std@@@std@@_NX@?$pair@V?$_Tree_iterator@V?$_Tree_val@U?$_Tree_simple_types@U?$pair@$$CB_WK@std@@@std@@@std@@@std@@_N@std@@QAE@$$QAV?$_Tree_iterator@V?$_Tree_val@U?$_Tree_simple_types@U?$pair@$$CB_WK@std@@@std@@@std@@@1@$$QA_N@Z 0046b270 f i KeyMap.obj
 0001:0006a300       ??$?0V?$tuple@ABK@std@@V?$tuple@$$$V@1@$0A@$S@?$pair@$$CBK_W@std@@QAE@AAV?$tuple@ABK@1@AAV?$tuple@$$$V@1@U?$_Arg_idx@$0A@@1@U?$_Arg_idx@$S@1@@Z 0046b300 f i KeyMap.obj
 0001:0006a350       ??$?0V?$tuple@AB_W@std@@V?$tuple@$$$V@1@$0A@$S@?$pair@$$CB_WK@std@@QAE@AAV?$tuple@AB_W@1@AAV?$tuple@$$$V@1@U?$_Arg_idx@$0A@@1@U?$_Arg_idx@$S@1@@Z 0046b350 f i KeyMap.obj
 0001:0006a3a0       ??$_Allocate@U?$_Tree_node@U?$pair@$$CBK_W@std@@PAX@std@@@std@@YAPAU?$_Tree_node@U?$pair@$$CBK_W@std@@PAX@0@IPAU10@@Z 0046b3a0 f i KeyMap.obj
 0001:0006a3f0       ??$_Allocate@U?$_Tree_node@U?$pair@$$CB_WK@std@@PAX@std@@@std@@YAPAU?$_Tree_node@U?$pair@$$CB_WK@std@@PAX@0@IPAU10@@Z 0046b3f0 f i KeyMap.obj
 0001:0006a440       ??$_Buynode@ABUpiecewise_construct_t@std@@V?$tuple@ABK@2@V?$tuple@$$$V@2@@?$_Tree_buy@U?$pair@$$CBK_W@std@@V?$allocator@U?$pair@$$CBK_W@std@@@2@@std@@QAEPAU?$_Tree_node@U?$pair@$$CBK_W@std@@PAX@1@ABUpiecewise_construct_t@1@$$QAV?$tuple@ABK@1@$$QAV?$tuple@$$$V@1@@Z 0046b440 f i KeyMap.obj
 0001:0006a5a0       ??$_Buynode@ABUpiecewise_construct_t@std@@V?$tuple@AB_W@2@V?$tuple@$$$V@2@@?$_Tree_buy@U?$pair@$$CB_WK@std@@V?$allocator@U?$pair@$$CB_WK@std@@@2@@std@@QAEPAU?$_Tree_node@U?$pair@$$CB_WK@std@@PAX@1@ABUpiecewise_construct_t@1@$$QAV?$tuple@AB_W@1@$$QAV?$tuple@$$$V@1@@Z 0046b5a0 f i KeyMap.obj
 0001:0006a700       ??$_Buynode_if_nil@AAU?$pair@$$CBK_W@std@@@?$_Tree@V?$_Tmap_traits@K_WU?$less@K@std@@V?$allocator@U?$pair@$$CBK_W@std@@@2@$0A@@std@@@std@@IAEPAU?$_Tree_node@U?$pair@$$CBK_W@std@@PAX@1@PAU21@AAU?$pair@$$CBK_W@1@@Z 0046b700 f i KeyMap.obj
 0001:0006a720       ??$_Buynode_if_nil@AAU?$pair@$$CB_WK@std@@@?$_Tree@V?$_Tmap_traits@_WKU?$less@_W@std@@V?$allocator@U?$pair@$$CB_WK@std@@@2@$0A@@std@@@std@@IAEPAU?$_Tree_node@U?$pair@$$CB_WK@std@@PAX@1@PAU21@AAU?$pair@$$CB_WK@1@@Z 0046b720 f i KeyMap.obj
 0001:0006a740       ??$_Debug_lt_pred@U?$less@K@std@@ABKABK@std@@YA_NU?$less@K@0@ABK1PB_WI@Z 0046b740 f i KeyMap.obj
 0001:0006a7e0       ??$_Debug_lt_pred@U?$less@_W@std@@AB_WAB_W@std@@YA_NU?$less@_W@0@AB_W1PB_WI@Z 0046b7e0 f i KeyMap.obj
 0001:0006a880       ??$_Insert_at@AAU?$pair@$$CBK_W@std@@PAU?$_Tree_node@U?$pair@$$CBK_W@std@@PAX@2@@?$_Tree@V?$_Tmap_traits@K_WU?$less@K@std@@V?$allocator@U?$pair@$$CBK_W@std@@@2@$0A@@std@@@std@@IAE?AV?$_Tree_iterator@V?$_Tree_val@U?$_Tree_simple_types@U?$pair@$$CBK_W@std@@@std@@@std@@@1@_NPAU?$_Tree_node@U?$pair@$$CBK_W@std@@PAX@1@AAU?$pair@$$CBK_W@1@1@Z 0046b880 f i KeyMap.obj
 0001:0006add0       ??$_Insert_at@AAU?$pair@$$CB_WK@std@@PAU?$_Tree_node@U?$pair@$$CB_WK@std@@PAX@2@@?$_Tree@V?$_Tmap_traits@_WKU?$less@_W@std@@V?$allocator@U?$pair@$$CB_WK@std@@@2@$0A@@std@@@std@@IAE?AV?$_Tree_iterator@V?$_Tree_val@U?$_Tree_simple_types@U?$pair@$$CB_WK@std@@@std@@@std@@@1@_NPAU?$_Tree_node@U?$pair@$$CB_WK@std@@PAX@1@AAU?$pair@$$CB_WK@1@1@Z 0046bdd0 f i KeyMap.obj
 0001:0006b320       ??$_Insert_hint@AAU?$pair@$$CBK_W@std@@PAU?$_Tree_node@U?$pair@$$CBK_W@std@@PAX@2@@?$_Tree@V?$_Tmap_traits@K_WU?$less@K@std@@V?$allocator@U?$pair@$$CBK_W@std@@@2@$0A@@std@@@std@@IAE?AV?$_Tree_iterator@V?$_Tree_val@U?$_Tree_simple_types@U?$pair@$$CBK_W@std@@@std@@@std@@@1@V?$_Tree_const_iterator@V?$_Tree_val@U?$_Tree_simple_types@U?$pair@$$CBK_W@std@@@std@@@std@@@1@AAU?$pair@$$CBK_W@1@PAU?$_Tree_node@U?$pair@$$CBK_W@std@@PAX@1@@Z 0046c320 f i KeyMap.obj
 0001:0006c830       ??$_Insert_hint@AAU?$pair@$$CB_WK@std@@PAU?$_Tree_node@U?$pair@$$CB_WK@std@@PAX@2@@?$_Tree@V?$_Tmap_traits@_WKU?$less@_W@std@@V?$allocator@U?$pair@$$CB_WK@std@@@2@$0A@@std@@@std@@IAE?AV?$_Tree_iterator@V?$_Tree_val@U?$_Tree_simple_types@U?$pair@$$CB_WK@std@@@std@@@std@@@1@V?$_Tree_const_iterator@V?$_Tree_val@U?$_Tree_simple_types@U?$pair@$$CB_WK@std@@@std@@@std@@@1@AAU?$pair@$$CB_WK@1@PAU?$_Tree_node@U?$pair@$$CB_WK@std@@PAX@1@@Z 0046d830 f i KeyMap.obj
 0001:0006dd40       ??$_Insert_nohint@AAU?$pair@$$CBK_W@std@@PAU?$_Tree_node@U?$pair@$$CBK_W@std@@PAX@2@@?$_Tree@V?$_Tmap_traits@K_WU?$less@K@std@@V?$allocator@U?$pair@$$CBK_W@std@@@2@$0A@@std@@@std@@IAE?AU?$pair@V?$_Tree_iterator@V?$_Tree_val@U?$_Tree_simple_types@U?$pair@$$CBK_W@std@@@std@@@std@@@std@@_N@1@_NAAU?$pair@$$CBK_W@1@PAU?$_Tree_node@U?$pair@$$CBK_W@std@@PAX@1@@Z 0046ed40 f i KeyMap.obj
 0001:0006e320       ??$_Insert_nohint@AAU?$pair@$$CB_WK@std@@PAU?$_Tree_node@U?$pair@$$CB_WK@std@@PAX@2@@?$_Tree@V?$_Tmap_traits@_WKU?$less@_W@std@@V?$allocator@U?$pair@$$CB_WK@std@@@2@$0A@@std@@@std@@IAE?AU?$pair@V?$_Tree_iterator@V?$_Tree_val@U?$_Tree_simple_types@U?$pair@$$CB_WK@std@@@std@@@std@@@std@@_N@1@_NAAU?$pair@$$CB_WK@1@PAU?$_Tree_node@U?$pair@$$CB_WK@std@@PAX@1@@Z 0046f320 f i KeyMap.obj
 0001:0006e900       ??$_Kfn@$$CBK_W@?$_Tmap_traits@K_WU?$less@K@std@@V?$allocator@U?$pair@$$CBK_W@std@@@2@$0A@@std@@SAABKABU?$pair@$$CBK_W@1@@Z 0046f900 f i KeyMap.obj
 0001:0006e910       ??$_Kfn@$$CB_WK@?$_Tmap_traits@_WKU?$less@_W@std@@V?$allocator@U?$pair@$$CB_WK@std@@@2@$0A@@std@@SAAB_WABU?$pair@$$CB_WK@1@@Z 0046f910 f i KeyMap.obj
 0001:0006e920       ??$construct@PAU?$_Tree_node@U?$pair@$$CBK_W@std@@PAX@std@@AAPAU12@@?$_Wrap_alloc@V?$allocator@U?$_Tree_node@U?$pair@$$CBK_W@std@@PAX@std@@@std@@@std@@QAEXPAPAU?$_Tree_node@U?$pair@$$CBK_W@std@@PAX@1@AAPAU21@@Z 0046f920 f i KeyMap.obj
 0001:0006e960       ??$construct@PAU?$_Tree_node@U?$pair@$$CBK_W@std@@PAX@std@@AAPAU12@@?$allocator@U?$_Tree_node@U?$pair@$$CBK_W@std@@PAX@std@@@std@@QAEXPAPAU?$_Tree_node@U?$pair@$$CBK_W@std@@PAX@1@AAPAU21@@Z 0046f960 f i KeyMap.obj
 0001:0006ea10       ??$construct@PAU?$_Tree_node@U?$pair@$$CBK_W@std@@PAX@std@@AAPAU12@@?$allocator_traits@V?$allocator@U?$_Tree_node@U?$pair@$$CBK_W@std@@PAX@std@@@std@@@std@@SAXAAV?$allocator@U?$_Tree_node@U?$pair@$$CBK_W@std@@PAX@std@@@1@PAPAU?$_Tree_node@U?$pair@$$CBK_W@std@@PAX@1@AAPAU31@@Z 0046fa10 f i KeyMap.obj
 0001:0006ea40       ??$construct@PAU?$_Tree_node@U?$pair@$$CB_WK@std@@PAX@std@@AAPAU12@@?$_Wrap_alloc@V?$allocator@U?$_Tree_node@U?$pair@$$CB_WK@std@@PAX@std@@@std@@@std@@QAEXPAPAU?$_Tree_node@U?$pair@$$CB_WK@std@@PAX@1@AAPAU21@@Z 0046fa40 f i KeyMap.obj
 0001:0006ea80       ??$construct@PAU?$_Tree_node@U?$pair@$$CB_WK@std@@PAX@std@@AAPAU12@@?$allocator@U?$_Tree_node@U?$pair@$$CB_WK@std@@PAX@std@@@std@@QAEXPAPAU?$_Tree_node@U?$pair@$$CB_WK@std@@PAX@1@AAPAU21@@Z 0046fa80 f i KeyMap.obj
 0001:0006eb30       ??$construct@PAU?$_Tree_node@U?$pair@$$CB_WK@std@@PAX@std@@AAPAU12@@?$allocator_traits@V?$allocator@U?$_Tree_node@U?$pair@$$CB_WK@std@@PAX@std@@@std@@@std@@SAXAAV?$allocator@U?$_Tree_node@U?$pair@$$CB_WK@std@@PAX@std@@@1@PAPAU?$_Tree_node@U?$pair@$$CB_WK@std@@PAX@1@AAPAU31@@Z 0046fb30 f i KeyMap.obj
 0001:0006eb60       ??$construct@U?$pair@$$CBK_W@std@@ABUpiecewise_construct_t@2@V?$tuple@ABK@2@V?$tuple@$$$V@2@@?$_Wrap_alloc@V?$allocator@U?$_Tree_node@U?$pair@$$CBK_W@std@@PAX@std@@@std@@@std@@QAEXPAU?$pair@$$CBK_W@1@ABUpiecewise_construct_t@1@$$QAV?$tuple@ABK@1@$$QAV?$tuple@$$$V@1@@Z 0046fb60 f i KeyMap.obj
 0001:0006ebc0       ??$construct@U?$pair@$$CBK_W@std@@ABUpiecewise_construct_t@2@V?$tuple@ABK@2@V?$tuple@$$$V@2@@?$allocator@U?$_Tree_node@U?$pair@$$CBK_W@std@@PAX@std@@@std@@QAEXPAU?$pair@$$CBK_W@1@ABUpiecewise_construct_t@1@$$QAV?$tuple@ABK@1@$$QAV?$tuple@$$$V@1@@Z 0046fbc0 f i KeyMap.obj
 0001:0006eca0       ??$construct@U?$pair@$$CBK_W@std@@ABUpiecewise_construct_t@2@V?$tuple@ABK@2@V?$tuple@$$$V@2@@?$allocator_traits@V?$allocator@U?$_Tree_node@U?$pair@$$CBK_W@std@@PAX@std@@@std@@@std@@SAXAAV?$allocator@U?$_Tree_node@U?$pair@$$CBK_W@std@@PAX@std@@@1@PAU?$pair@$$CBK_W@1@ABUpiecewise_construct_t@1@$$QAV?$tuple@ABK@1@$$QAV?$tuple@$$$V@1@@Z 0046fca0 f i KeyMap.obj
 0001:0006ecf0       ??$construct@U?$pair@$$CB_WK@std@@ABUpiecewise_construct_t@2@V?$tuple@AB_W@2@V?$tuple@$$$V@2@@?$_Wrap_alloc@V?$allocator@U?$_Tree_node@U?$pair@$$CB_WK@std@@PAX@std@@@std@@@std@@QAEXPAU?$pair@$$CB_WK@1@ABUpiecewise_construct_t@1@$$QAV?$tuple@AB_W@1@$$QAV?$tuple@$$$V@1@@Z 0046fcf0 f i KeyMap.obj
 0001:0006ed50       ??$construct@U?$pair@$$CB_WK@std@@ABUpiecewise_construct_t@2@V?$tuple@AB_W@2@V?$tuple@$$$V@2@@?$allocator@U?$_Tree_node@U?$pair@$$CB_WK@std@@PAX@std@@@std@@QAEXPAU?$pair@$$CB_WK@1@ABUpiecewise_construct_t@1@$$QAV?$tuple@AB_W@1@$$QAV?$tuple@$$$V@1@@Z 0046fd50 f i KeyMap.obj
 0001:0006ee30       ??$construct@U?$pair@$$CB_WK@std@@ABUpiecewise_construct_t@2@V?$tuple@AB_W@2@V?$tuple@$$$V@2@@?$allocator_traits@V?$allocator@U?$_Tree_node@U?$pair@$$CB_WK@std@@PAX@std@@@std@@@std@@SAXAAV?$allocator@U?$_Tree_node@U?$pair@$$CB_WK@std@@PAX@std@@@1@PAU?$pair@$$CB_WK@1@ABUpiecewise_construct_t@1@$$QAV?$tuple@AB_W@1@$$QAV?$tuple@$$$V@1@@Z 0046fe30 f i KeyMap.obj
 0001:0006ee80       ??$emplace_hint@ABUpiecewise_construct_t@std@@V?$tuple@ABK@2@V?$tuple@$$$V@2@@?$_Tree@V?$_Tmap_traits@K_WU?$less@K@std@@V?$allocator@U?$pair@$$CBK_W@std@@@2@$0A@@std@@@std@@QAE?AV?$_Tree_iterator@V?$_Tree_val@U?$_Tree_simple_types@U?$pair@$$CBK_W@std@@@std@@@std@@@1@V?$_Tree_const_iterator@V?$_Tree_val@U?$_Tree_simple_types@U?$pair@$$CBK_W@std@@@std@@@std@@@1@ABUpiecewise_construct_t@1@$$QAV?$tuple@ABK@1@$$QAV?$tuple@$$$V@1@@Z 0046fe80 f i KeyMap.obj
 0001:0006ef80       ??$emplace_hint@ABUpiecewise_construct_t@std@@V?$tuple@AB_W@2@V?$tuple@$$$V@2@@?$_Tree@V?$_Tmap_traits@_WKU?$less@_W@std@@V?$allocator@U?$pair@$$CB_WK@std@@@2@$0A@@std@@@std@@QAE?AV?$_Tree_iterator@V?$_Tree_val@U?$_Tree_simple_types@U?$pair@$$CB_WK@std@@@std@@@std@@@1@V?$_Tree_const_iterator@V?$_Tree_val@U?$_Tree_simple_types@U?$pair@$$CB_WK@std@@@std@@@std@@@1@ABUpiecewise_construct_t@1@$$QAV?$tuple@AB_W@1@$$QAV?$tuple@$$$V@1@@Z 0046ff80 f i KeyMap.obj
 0001:0006f080       ??$forward@AAPAU?$_Tree_node@U?$pair@$$CBK_W@std@@PAX@std@@@std@@YAAAPAU?$_Tree_node@U?$pair@$$CBK_W@std@@PAX@0@AAPAU10@@Z 00470080 f i KeyMap.obj
 0001:0006f090       ??$forward@AAPAU?$_Tree_node@U?$pair@$$CB_WK@std@@PAX@std@@@std@@YAAAPAU?$_Tree_node@U?$pair@$$CB_WK@std@@PAX@0@AAPAU10@@Z 00470090 f i KeyMap.obj
 0001:0006f0a0       ??$forward@AAU?$pair@$$CBK_W@std@@@std@@YAAAU?$pair@$$CBK_W@0@AAU10@@Z 004700a0 f i KeyMap.obj
 0001:0006f0b0       ??$forward@AAU?$pair@$$CB_WK@std@@@std@@YAAAU?$pair@$$CB_WK@0@AAU10@@Z 004700b0 f i KeyMap.obj
 0001:0006f0c0       ??$forward@AAV?$_Tree_iterator@V?$_Tree_val@U?$_Tree_simple_types@U?$pair@$$CBK_W@std@@@std@@@std@@@std@@@std@@YAAAV?$_Tree_iterator@V?$_Tree_val@U?$_Tree_simple_types@U?$pair@$$CBK_W@std@@@std@@@std@@@0@AAV10@@Z 004700c0 f i KeyMap.obj
 0001:0006f0d0       ??$forward@AAV?$_Tree_iterator@V?$_Tree_val@U?$_Tree_simple_types@U?$pair@$$CB_WK@std@@@std@@@std@@@std@@@std@@YAAAV?$_Tree_iterator@V?$_Tree_val@U?$_Tree_simple_types@U?$pair@$$CB_WK@std@@@std@@@std@@@0@AAV10@@Z 004700d0 f i KeyMap.obj
 0001:0006f0e0       ??$forward@ABUpiecewise_construct_t@std@@@std@@YAABUpiecewise_construct_t@0@ABU10@@Z 004700e0 f i KeyMap.obj
 0001:0006f0f0       ??$forward@AB_W@std@@YAAB_WAB_W@Z 004700f0 f i KeyMap.obj
 0001:0006f100       ??$forward@V?$_Tree_iterator@V?$_Tree_val@U?$_Tree_simple_types@U?$pair@$$CBK_W@std@@@std@@@std@@@std@@@std@@YA$$QAV?$_Tree_iterator@V?$_Tree_val@U?$_Tree_simple_types@U?$pair@$$CBK_W@std@@@std@@@std@@@0@AAV10@@Z 00470100 f i KeyMap.obj
 0001:0006f110       ??$forward@V?$_Tree_iterator@V?$_Tree_val@U?$_Tree_simple_types@U?$pair@$$CB_WK@std@@@std@@@std@@@std@@@std@@YA$$QAV?$_Tree_iterator@V?$_Tree_val@U?$_Tree_simple_types@U?$pair@$$CB_WK@std@@@std@@@std@@@0@AAV10@@Z 00470110 f i KeyMap.obj
 0001:0006f120       ??$forward@V?$tuple@$$$V@std@@@std@@YA$$QAV?$tuple@$$$V@0@AAV10@@Z 00470120 f i KeyMap.obj
 0001:0006f130       ??$forward@V?$tuple@ABK@std@@@std@@YA$$QAV?$tuple@ABK@0@AAV10@@Z 00470130 f i KeyMap.obj
 0001:0006f140       ??$forward@V?$tuple@AB_W@std@@@std@@YA$$QAV?$tuple@AB_W@0@AAV10@@Z 00470140 f i KeyMap.obj
 0001:0006f150       ??$forward@_N@std@@YA$$QA_NAA_N@Z 00470150 f i KeyMap.obj
 0001:0006f160       ??$forward_as_tuple@ABK@std@@YA?AV?$tuple@ABK@0@ABK@Z 00470160 f i KeyMap.obj
 0001:0006f190       ??$forward_as_tuple@AB_W@std@@YA?AV?$tuple@AB_W@0@AB_W@Z 00470190 f i KeyMap.obj
 0001:0006f1c0       ??$get@$0A@ABK@std@@YAABK$$QAV?$tuple@ABK@0@@Z 004701c0 f i KeyMap.obj
 0001:0006f1e0       ??$get@$0A@AB_W@std@@YAAB_W$$QAV?$tuple@AB_W@0@@Z 004701e0 f i KeyMap.obj
 0001:0006f200       ??$move@AAV?$tuple@ABK@std@@@std@@YA$$QAV?$tuple@ABK@0@AAV10@@Z 00470200 f i KeyMap.obj
 0001:0006f210       ??$move@AAV?$tuple@AB_W@std@@@std@@YA$$QAV?$tuple@AB_W@0@AAV10@@Z 00470210 f i KeyMap.obj
 0001:0006f220       ??0?$_Tree@V?$_Tmap_traits@K_WU?$less@K@std@@V?$allocator@U?$pair@$$CBK_W@std@@@2@$0A@@std@@@std@@QAE@ABU?$less@K@1@ABV?$allocator@U?$pair@$$CBK_W@std@@@1@@Z 00470220 f i KeyMap.obj
 0001:0006f250       ??0?$_Tree@V?$_Tmap_traits@_WKU?$less@_W@std@@V?$allocator@U?$pair@$$CB_WK@std@@@2@$0A@@std@@@std@@QAE@ABU?$less@_W@1@ABV?$allocator@U?$pair@$$CB_WK@std@@@1@@Z 00470250 f i KeyMap.obj
 0001:0006f280       ??0?$_Tree_alloc@$0A@U?$_Tree_base_types@U?$pair@$$CBK_W@std@@V?$allocator@U?$pair@$$CBK_W@std@@@2@@std@@@std@@QAE@ABV?$allocator@U?$pair@$$CBK_W@std@@@1@@Z 00470280 f i KeyMap.obj
 0001:0006f350       ??0?$_Tree_alloc@$0A@U?$_Tree_base_types@U?$pair@$$CB_WK@std@@V?$allocator@U?$pair@$$CB_WK@std@@@2@@std@@@std@@QAE@ABV?$allocator@U?$pair@$$CB_WK@std@@@1@@Z 00470350 f i KeyMap.obj
 0001:0006f420       ??0?$_Tree_buy@U?$pair@$$CBK_W@std@@V?$allocator@U?$pair@$$CBK_W@std@@@2@@std@@QAE@ABV?$allocator@U?$pair@$$CBK_W@std@@@1@@Z 00470420 f i KeyMap.obj
 0001:0006f450       ??0?$_Tree_buy@U?$pair@$$CB_WK@std@@V?$allocator@U?$pair@$$CB_WK@std@@@2@@std@@QAE@ABV?$allocator@U?$pair@$$CB_WK@std@@@1@@Z 00470450 f i KeyMap.obj
 0001:0006f480       ??0?$_Tree_comp@$0A@V?$_Tmap_traits@K_WU?$less@K@std@@V?$allocator@U?$pair@$$CBK_W@std@@@2@$0A@@std@@@std@@QAE@ABU?$less@K@1@ABV?$allocator@U?$pair@$$CBK_W@std@@@1@@Z 00470480 f i KeyMap.obj
 0001:0006f4b0       ??0?$_Tree_comp@$0A@V?$_Tmap_traits@_WKU?$less@_W@std@@V?$allocator@U?$pair@$$CB_WK@std@@@2@$0A@@std@@@std@@QAE@ABU?$less@_W@1@ABV?$allocator@U?$pair@$$CB_WK@std@@@1@@Z 004704b0 f i KeyMap.obj
 0001:0006f4e0       ??0?$_Tree_const_iterator@V?$_Tree_val@U?$_Tree_simple_types@U?$pair@$$CBK_W@std@@@std@@@std@@@std@@QAE@XZ 004704e0 f i KeyMap.obj
 0001:0006f500       ??0?$_Tree_const_iterator@V?$_Tree_val@U?$_Tree_simple_types@U?$pair@$$CB_WK@std@@@std@@@std@@@std@@QAE@XZ 00470500 f i KeyMap.obj
 0001:0006f520       ??0?$_Tree_iterator@V?$_Tree_val@U?$_Tree_simple_types@U?$pair@$$CBK_W@std@@@std@@@std@@@std@@QAE@ABV01@@Z 00470520 f i KeyMap.obj
 0001:0006f550       ??0?$_Tree_iterator@V?$_Tree_val@U?$_Tree_simple_types@U?$pair@$$CB_WK@std@@@std@@@std@@@std@@QAE@ABV01@@Z 00470550 f i KeyMap.obj
 0001:0006f580       ??0?$_Tree_unchecked_const_iterator@V?$_Tree_val@U?$_Tree_simple_types@U?$pair@$$CBK_W@std@@@std@@@std@@U_Iterator_base12@2@@std@@QAE@XZ 00470580 f i KeyMap.obj
 0001:0006f5b0       ??0?$_Tree_unchecked_const_iterator@V?$_Tree_val@U?$_Tree_simple_types@U?$pair@$$CB_WK@std@@@std@@@std@@U_Iterator_base12@2@@std@@QAE@XZ 004705b0 f i KeyMap.obj
 0001:0006f5e0       ??0?$_Tree_val@U?$_Tree_simple_types@U?$pair@$$CBK_W@std@@@std@@@std@@QAE@XZ 004705e0 f i KeyMap.obj
 0001:0006f620       ??0?$_Tree_val@U?$_Tree_simple_types@U?$pair@$$CB_WK@std@@@std@@@std@@QAE@XZ 00470620 f i KeyMap.obj
 0001:0006f660       ??0?$allocator@U?$pair@$$CBK_W@std@@@std@@QAE@XZ 00470660 f i KeyMap.obj
 0001:0006f680       ??0?$allocator@U?$pair@$$CB_WK@std@@@std@@QAE@XZ 00470680 f i KeyMap.obj
 0001:0006f6a0       ??0?$map@K_WU?$less@K@std@@V?$allocator@U?$pair@$$CBK_W@std@@@2@@std@@QAE@XZ 004706a0 f i KeyMap.obj
 0001:0006f6d0       ??0?$map@_WKU?$less@_W@std@@V?$allocator@U?$pair@$$CB_WK@std@@@2@@std@@QAE@XZ 004706d0 f i KeyMap.obj
 0001:0006f700       ??0?$tuple@$$$V@std@@QAE@ABV01@@Z 00470700 f i KeyMap.obj
 0001:0006f720       ??0?$tuple@$$$V@std@@QAE@XZ 00470720 f i KeyMap.obj
 0001:0006f740       ??0?$tuple@ABK@std@@QAE@ABK@Z 00470740 f i KeyMap.obj
 0001:0006f770       ??0?$tuple@AB_W@std@@QAE@AB_W@Z 00470770 f i KeyMap.obj
 0001:0006f7a0       ??0ModifierKeyReleaser@@QAE@PAVClientConnection@@E_N@Z 004707a0 f i KeyMap.obj
 0001:0006f940       ??1?$pair@V?$_Tree_iterator@V?$_Tree_val@U?$_Tree_simple_types@U?$pair@$$CBK_W@std@@@std@@@std@@@std@@_N@std@@QAE@XZ 00470940 f i KeyMap.obj
 0001:0006f960       ??1?$pair@V?$_Tree_iterator@V?$_Tree_val@U?$_Tree_simple_types@U?$pair@$$CB_WK@std@@@std@@@std@@@std@@_N@std@@QAE@XZ 00470960 f i KeyMap.obj
 0001:0006f980       ??1ModifierKeyReleaser@@QAE@XZ 00470980 f i KeyMap.obj
 0001:0006fa10       ??4?$_Iterator012@Ubidirectional_iterator_tag@std@@U?$pair@$$CBK_W@2@HPBU32@ABU32@U_Iterator_base12@2@@std@@QAEAAU01@ABU01@@Z 00470a10 f i KeyMap.obj
 0001:0006fa40       ??4?$_Iterator012@Ubidirectional_iterator_tag@std@@U?$pair@$$CB_WK@2@HPBU32@ABU32@U_Iterator_base12@2@@std@@QAEAAU01@ABU01@@Z 00470a40 f i KeyMap.obj
 0001:0006fa70       ??4?$_Tree_const_iterator@V?$_Tree_val@U?$_Tree_simple_types@U?$pair@$$CBK_W@std@@@std@@@std@@@std@@QAEAAV01@ABV01@@Z 00470a70 f i KeyMap.obj
 0001:0006faa0       ??4?$_Tree_const_iterator@V?$_Tree_val@U?$_Tree_simple_types@U?$pair@$$CB_WK@std@@@std@@@std@@@std@@QAEAAV01@ABV01@@Z 00470aa0 f i KeyMap.obj
 0001:0006fad0       ??4?$_Tree_iterator@V?$_Tree_val@U?$_Tree_simple_types@U?$pair@$$CBK_W@std@@@std@@@std@@@std@@QAEAAV01@ABV01@@Z 00470ad0 f i KeyMap.obj
 0001:0006fb00       ??4?$_Tree_iterator@V?$_Tree_val@U?$_Tree_simple_types@U?$pair@$$CB_WK@std@@@std@@@std@@@std@@QAEAAV01@ABV01@@Z 00470b00 f i KeyMap.obj
 0001:0006fb30       ??4?$_Tree_unchecked_const_iterator@V?$_Tree_val@U?$_Tree_simple_types@U?$pair@$$CBK_W@std@@@std@@@std@@U_Iterator_base12@2@@std@@QAEAAV01@ABV01@@Z 00470b30 f i KeyMap.obj
 0001:0006fb70       ??4?$_Tree_unchecked_const_iterator@V?$_Tree_val@U?$_Tree_simple_types@U?$pair@$$CB_WK@std@@@std@@@std@@U_Iterator_base12@2@@std@@QAEAAV01@ABV01@@Z 00470b70 f i KeyMap.obj
 0001:0006fbb0       ??A?$map@K_WU?$less@K@std@@V?$allocator@U?$pair@$$CBK_W@std@@@2@@std@@QAEAA_WABK@Z 00470bb0 f i KeyMap.obj
 0001:0006fd90       ??A?$map@_WKU?$less@_W@std@@V?$allocator@U?$pair@$$CB_WK@std@@@2@@std@@QAEAAKAB_W@Z 00470d90 f i KeyMap.obj
 0001:0006ff70       ??C?$_Tree_iterator@V?$_Tree_val@U?$_Tree_simple_types@U?$pair@$$CBK_W@std@@@std@@@std@@@std@@QBEPAU?$pair@$$CBK_W@1@XZ 00470f70 f i KeyMap.obj
 0001:0006ffa0       ??C?$_Tree_iterator@V?$_Tree_val@U?$_Tree_simple_types@U?$pair@$$CB_WK@std@@@std@@@std@@@std@@QBEPAU?$pair@$$CB_WK@1@XZ 00470fa0 f i KeyMap.obj
 0001:0006ffd0       ??D?$_Tree_const_iterator@V?$_Tree_val@U?$_Tree_simple_types@U?$pair@$$CBK_W@std@@@std@@@std@@@std@@QBEABU?$pair@$$CBK_W@1@XZ 00470fd0 f i KeyMap.obj
 0001:000700b0       ??D?$_Tree_const_iterator@V?$_Tree_val@U?$_Tree_simple_types@U?$pair@$$CB_WK@std@@@std@@@std@@@std@@QBEABU?$pair@$$CB_WK@1@XZ 004710b0 f i KeyMap.obj
 0001:00070190       ??D?$_Tree_iterator@V?$_Tree_val@U?$_Tree_simple_types@U?$pair@$$CBK_W@std@@@std@@@std@@@std@@QBEAAU?$pair@$$CBK_W@1@XZ 00471190 f i KeyMap.obj
 0001:000701b0       ??D?$_Tree_iterator@V?$_Tree_val@U?$_Tree_simple_types@U?$pair@$$CB_WK@std@@@std@@@std@@@std@@QBEAAU?$pair@$$CB_WK@1@XZ 004711b0 f i KeyMap.obj
 0001:000701d0       ??F?$_Tree_const_iterator@V?$_Tree_val@U?$_Tree_simple_types@U?$pair@$$CBK_W@std@@@std@@@std@@@std@@QAEAAV01@XZ 004711d0 f i KeyMap.obj
 0001:00070330       ??F?$_Tree_const_iterator@V?$_Tree_val@U?$_Tree_simple_types@U?$pair@$$CB_WK@std@@@std@@@std@@@std@@QAEAAV01@XZ 00471330 f i KeyMap.obj
 0001:00070490       ??F?$_Tree_iterator@V?$_Tree_val@U?$_Tree_simple_types@U?$pair@$$CBK_W@std@@@std@@@std@@@std@@QAEAAV01@XZ 00471490 f i KeyMap.obj
 0001:000704b0       ??F?$_Tree_iterator@V?$_Tree_val@U?$_Tree_simple_types@U?$pair@$$CB_WK@std@@@std@@@std@@@std@@QAEAAV01@XZ 004714b0 f i KeyMap.obj
 0001:000704d0       ??F?$_Tree_unchecked_const_iterator@V?$_Tree_val@U?$_Tree_simple_types@U?$pair@$$CBK_W@std@@@std@@@std@@U_Iterator_base12@2@@std@@QAEAAV01@XZ 004714d0 f i KeyMap.obj
 0001:00070600       ??F?$_Tree_unchecked_const_iterator@V?$_Tree_val@U?$_Tree_simple_types@U?$pair@$$CB_WK@std@@@std@@@std@@U_Iterator_base12@2@@std@@QAEAAV01@XZ 00471600 f i KeyMap.obj
 0001:00070730       ??R?$less@K@std@@QBE_NABK0@Z 00471730 f i KeyMap.obj
 0001:00070770       ??R?$less@_W@std@@QBE_NAB_W0@Z 00471770 f i KeyMap.obj
 0001:000707b0       ?_Alloc_proxy@?$_Tree_alloc@$0A@U?$_Tree_base_types@U?$pair@$$CBK_W@std@@V?$allocator@U?$pair@$$CBK_W@std@@@2@@std@@@std@@QAEXXZ 004717b0 f i KeyMap.obj
 0001:00070820       ?_Alloc_proxy@?$_Tree_alloc@$0A@U?$_Tree_base_types@U?$pair@$$CB_WK@std@@V?$allocator@U?$pair@$$CB_WK@std@@@2@@std@@@std@@QAEXXZ 00471820 f i KeyMap.obj
 0001:00070890       ?_Buyheadnode@?$_Tree_alloc@$0A@U?$_Tree_base_types@U?$pair@$$CBK_W@std@@V?$allocator@U?$pair@$$CBK_W@std@@@2@@std@@@std@@QAEPAU?$_Tree_node@U?$pair@$$CBK_W@std@@PAX@2@XZ 00471890 f i KeyMap.obj
 0001:00070a50       ?_Buyheadnode@?$_Tree_alloc@$0A@U?$_Tree_base_types@U?$pair@$$CB_WK@std@@V?$allocator@U?$pair@$$CB_WK@std@@@2@@std@@@std@@QAEPAU?$_Tree_node@U?$pair@$$CB_WK@std@@PAX@2@XZ 00471a50 f i KeyMap.obj
 0001:00070c10       ?_Buynode0@?$_Tree_buy@U?$pair@$$CBK_W@std@@V?$allocator@U?$pair@$$CBK_W@std@@@2@@std@@QAEPAU?$_Tree_node@U?$pair@$$CBK_W@std@@PAX@2@XZ 00471c10 f i KeyMap.obj
 0001:00070db0       ?_Buynode0@?$_Tree_buy@U?$pair@$$CB_WK@std@@V?$allocator@U?$pair@$$CB_WK@std@@@2@@std@@QAEPAU?$_Tree_node@U?$pair@$$CB_WK@std@@PAX@2@XZ 00471db0 f i KeyMap.obj
 0001:00070f50       ?_Destroy_if_not_nil@?$_Tree@V?$_Tmap_traits@K_WU?$less@K@std@@V?$allocator@U?$pair@$$CBK_W@std@@@2@$0A@@std@@@std@@IAEXPAU?$_Tree_node@U?$pair@$$CBK_W@std@@PAX@2@@Z 00471f50 f i KeyMap.obj
 0001:00070fc0       ?_Destroy_if_not_nil@?$_Tree@V?$_Tmap_traits@_WKU?$less@_W@std@@V?$allocator@U?$pair@$$CB_WK@std@@@2@$0A@@std@@@std@@IAEXPAU?$_Tree_node@U?$pair@$$CB_WK@std@@PAX@2@@Z 00471fc0 f i KeyMap.obj
 0001:00071030       ?_Freenode0@?$_Tree_buy@U?$pair@$$CBK_W@std@@V?$allocator@U?$pair@$$CBK_W@std@@@2@@std@@QAEXPAU?$_Tree_node@U?$pair@$$CBK_W@std@@PAX@2@@Z 00472030 f i KeyMap.obj
 0001:00071100       ?_Freenode0@?$_Tree_buy@U?$pair@$$CB_WK@std@@V?$allocator@U?$pair@$$CB_WK@std@@@2@@std@@QAEXPAU?$_Tree_node@U?$pair@$$CB_WK@std@@PAX@2@@Z 00472100 f i KeyMap.obj
 0001:000711d0       ?_Get_rest@?$tuple@ABK@std@@QAEAAV?$tuple@$$$V@2@XZ 004721d0 f i KeyMap.obj
 0001:000711f0       ?_Get_rest@?$tuple@AB_W@std@@QAEAAV?$tuple@$$$V@2@XZ 004721f0 f i KeyMap.obj
 0001:00071210       ?_Getcomp@?$_Tree_comp@$0A@V?$_Tmap_traits@K_WU?$less@K@std@@V?$allocator@U?$pair@$$CBK_W@std@@@2@$0A@@std@@@std@@QBE?AU?$less@K@2@XZ 00472210 f i KeyMap.obj
 0001:00071230       ?_Getcomp@?$_Tree_comp@$0A@V?$_Tmap_traits@_WKU?$less@_W@std@@V?$allocator@U?$pair@$$CB_WK@std@@@2@$0A@@std@@@std@@QBE?AU?$less@_W@2@XZ 00472230 f i KeyMap.obj
 0001:00071250       ?_Key@?$_Tree@V?$_Tmap_traits@K_WU?$less@K@std@@V?$allocator@U?$pair@$$CBK_W@std@@@2@$0A@@std@@@std@@IBEABKPAU?$_Tree_node@U?$pair@$$CBK_W@std@@PAX@2@@Z 00472250 f i KeyMap.obj
 0001:00071280       ?_Key@?$_Tree@V?$_Tmap_traits@_WKU?$less@_W@std@@V?$allocator@U?$pair@$$CB_WK@std@@@2@$0A@@std@@@std@@IBEAB_WPAU?$_Tree_node@U?$pair@$$CB_WK@std@@PAX@2@@Z 00472280 f i KeyMap.obj
 0001:000712b0       ?_Kfn@?$_Tree@V?$_Tmap_traits@K_WU?$less@K@std@@V?$allocator@U?$pair@$$CBK_W@std@@@2@$0A@@std@@@std@@IBEABKABU?$pair@$$CBK_W@2@@Z 004722b0 f i KeyMap.obj
 0001:000712d0       ?_Kfn@?$_Tree@V?$_Tmap_traits@_WKU?$less@_W@std@@V?$allocator@U?$pair@$$CB_WK@std@@@2@$0A@@std@@@std@@IBEAB_WABU?$pair@$$CB_WK@2@@Z 004722d0 f i KeyMap.obj
 0001:000712f0       ?_Lbound@?$_Tree@V?$_Tmap_traits@K_WU?$less@K@std@@V?$allocator@U?$pair@$$CBK_W@std@@@2@$0A@@std@@@std@@IAEPAU?$_Tree_node@U?$pair@$$CBK_W@std@@PAX@2@ABK@Z 004722f0 f i KeyMap.obj
 0001:000713c0       ?_Lbound@?$_Tree@V?$_Tmap_traits@_WKU?$less@_W@std@@V?$allocator@U?$pair@$$CB_WK@std@@@2@$0A@@std@@@std@@IAEPAU?$_Tree_node@U?$pair@$$CB_WK@std@@PAX@2@AB_W@Z 004723c0 f i KeyMap.obj
 0001:00071490       ?allocate@?$_Wrap_alloc@V?$allocator@U?$_Tree_node@U?$pair@$$CBK_W@std@@PAX@std@@@std@@@std@@QAEPAU?$_Tree_node@U?$pair@$$CBK_W@std@@PAX@2@I@Z 00472490 f i KeyMap.obj
 0001:000714b0       ?allocate@?$_Wrap_alloc@V?$allocator@U?$_Tree_node@U?$pair@$$CB_WK@std@@PAX@std@@@std@@@std@@QAEPAU?$_Tree_node@U?$pair@$$CB_WK@std@@PAX@2@I@Z 004724b0 f i KeyMap.obj
 0001:000714d0       ?allocate@?$allocator@U?$_Tree_node@U?$pair@$$CBK_W@std@@PAX@std@@@std@@QAEPAU?$_Tree_node@U?$pair@$$CBK_W@std@@PAX@2@I@Z 004724d0 f i KeyMap.obj
 0001:00071500       ?allocate@?$allocator@U?$_Tree_node@U?$pair@$$CB_WK@std@@PAX@std@@@std@@QAEPAU?$_Tree_node@U?$pair@$$CB_WK@std@@PAX@2@I@Z 00472500 f i KeyMap.obj
 0001:00071530       ?find@?$_Tree@V?$_Tmap_traits@_WKU?$less@_W@std@@V?$allocator@U?$pair@$$CB_WK@std@@@2@$0A@@std@@@std@@QAE?AV?$_Tree_iterator@V?$_Tree_val@U?$_Tree_simple_types@U?$pair@$$CB_WK@std@@@std@@@std@@@2@AB_W@Z 00472530 f i KeyMap.obj
 0001:00071740       ?lower_bound@?$_Tree@V?$_Tmap_traits@K_WU?$less@K@std@@V?$allocator@U?$pair@$$CBK_W@std@@@2@$0A@@std@@@std@@QAE?AV?$_Tree_iterator@V?$_Tree_val@U?$_Tree_simple_types@U?$pair@$$CBK_W@std@@@std@@@std@@@2@ABK@Z 00472740 f i KeyMap.obj
 0001:00071790       ?lower_bound@?$_Tree@V?$_Tmap_traits@_WKU?$less@_W@std@@V?$allocator@U?$pair@$$CB_WK@std@@@2@$0A@@std@@@std@@QAE?AV?$_Tree_iterator@V?$_Tree_val@U?$_Tree_simple_types@U?$pair@$$CB_WK@std@@@std@@@std@@@2@AB_W@Z 00472790 f i KeyMap.obj
 0001:000717e0       ?max_size@?$_Tree@V?$_Tmap_traits@K_WU?$less@K@std@@V?$allocator@U?$pair@$$CBK_W@std@@@2@$0A@@std@@@std@@QBEIXZ 004727e0 f i KeyMap.obj
 0001:00071810       ?max_size@?$_Tree@V?$_Tmap_traits@_WKU?$less@_W@std@@V?$allocator@U?$pair@$$CB_WK@std@@@2@$0A@@std@@@std@@QBEIXZ 00472810 f i KeyMap.obj
 0001:00071840       ?max_size@?$_Wrap_alloc@V?$allocator@U?$_Tree_node@U?$pair@$$CBK_W@std@@PAX@std@@@std@@@std@@QBEIXZ 00472840 f i KeyMap.obj
 0001:00071860       ?max_size@?$_Wrap_alloc@V?$allocator@U?$_Tree_node@U?$pair@$$CB_WK@std@@PAX@std@@@std@@@std@@QBEIXZ 00472860 f i KeyMap.obj
 0001:00071880       ?max_size@?$allocator@U?$_Tree_node@U?$pair@$$CBK_W@std@@PAX@std@@@std@@QBEIXZ 00472880 f i KeyMap.obj
 0001:000718a0       ?max_size@?$allocator@U?$_Tree_node@U?$pair@$$CB_WK@std@@PAX@std@@@std@@QBEIXZ 004728a0 f i KeyMap.obj
 0001:000718c0       ?max_size@?$allocator_traits@V?$allocator@U?$_Tree_node@U?$pair@$$CBK_W@std@@PAX@std@@@std@@@std@@SAIABV?$allocator@U?$_Tree_node@U?$pair@$$CBK_W@std@@PAX@std@@@2@@Z 004728c0 f i KeyMap.obj
 0001:000718d0       ?max_size@?$allocator_traits@V?$allocator@U?$_Tree_node@U?$pair@$$CB_WK@std@@PAX@std@@@std@@@std@@SAIABV?$allocator@U?$_Tree_node@U?$pair@$$CB_WK@std@@PAX@std@@@2@@Z 004728d0 f i KeyMap.obj
 0001:000718e0       ?pointer_to@?$pointer_traits@PAU?$pair@$$CBK_W@std@@@std@@SAPAU?$pair@$$CBK_W@2@AAU32@@Z 004728e0 f i KeyMap.obj
 0001:00071900       ?pointer_to@?$pointer_traits@PAU?$pair@$$CB_WK@std@@@std@@SAPAU?$pair@$$CB_WK@2@AAU32@@Z 00472900 f i KeyMap.obj
 0001:00071920       ?release@ModifierKeyReleaser@@QAEXPAK@Z 00472920 f i KeyMap.obj
 0001:000719e0       ?size@?$_Tree@V?$_Tmap_traits@K_WU?$less@K@std@@V?$allocator@U?$pair@$$CBK_W@std@@@2@$0A@@std@@@std@@QBEIXZ 004729e0 f i KeyMap.obj
 0001:00071a00       ?size@?$_Tree@V?$_Tmap_traits@_WKU?$less@_W@std@@V?$allocator@U?$pair@$$CB_WK@std@@@2@$0A@@std@@@std@@QBEIXZ 00472a00 f i KeyMap.obj
 0001:00071a20       ??0KeyMapJap@@QAE@XZ       00472a20 f   KeyMapjap.obj
 0001:00071a30       ?PCtoX@KeyMapJap@@QAE?AUKeyActionSpec@@IK@Z 00472a30 f   KeyMapjap.obj
 0001:00071f20       ?ToAsciiJp@KeyMapJap@@AAEHI@Z 00472f20 f   KeyMapjap.obj
 0001:000723d0       ??0Log@@QAE@HHPAD_N@Z      004733d0 f   Log.obj
 0001:00072430       ?SetLevel@Log@@QAEXH@Z     00473430 f   Log.obj
 0001:00072450       ?SetMode@Log@@QAEXH@Z      00473450 f   Log.obj
 0001:00072570       ?SetFile@Log@@QAEXPAD_N@Z  00473570 f   Log.obj
 0001:00072610       ??1Log@@UAE@XZ             00473610 f   Log.obj
 0001:00072630       ?ReallyPrint@Log@@AAEXPAD0@Z 00473630 f   Log.obj
 0001:00072720       ?CloseFile@Log@@AAEXXZ     00473720 f   Log.obj
 0001:00072830       ??_GLog@@UAEPAXI@Z         00473830 f i Log.obj
 0001:00072830       ??_ELog@@UAEPAXI@Z         00473830 f i Log.obj
 0001:00072870       ?Initialize@LowLevelHook@@SAHPAUHWND__@@@Z 00473870 f   LowLevelHook.obj
 0001:00072920       ?Release@LowLevelHook@@SAHXZ 00473920 f   LowLevelHook.obj
 0001:00072960       ?HookThreadProc@LowLevelHook@@SGKPAX@Z 00473960 f   LowLevelHook.obj
 0001:00072a20       ?GetCurrentScrollLockState@LowLevelHook@@CAHXZ 00473a20 f   LowLevelHook.obj
 0001:00072a60       ?CheckScrollLock@LowLevelHook@@CAHXZ 00473a60 f   LowLevelHook.obj
 0001:00072a90       ?VncLowLevelKbHookProc@LowLevelHook@@CGJHIJ@Z 00473a90 f   LowLevelHook.obj
 0001:000732e0       ?ShowMessageBox2@@YAXPADH@Z 004742e0 f   MessBox2.obj
 0001:00073410       ___lzo_init_v2             00474410 f   minilzo.obj
 0001:000734d0       _lzo_version               004744d0 f   minilzo.obj
 0001:000734e0       _lzo_version_string        004744e0 f   minilzo.obj
 0001:000734f0       _lzo_version_date          004744f0 f   minilzo.obj
 0001:00073500       __lzo_version_string       00474500 f   minilzo.obj
 0001:00073510       __lzo_version_date         00474510 f   minilzo.obj
 0001:00073520       _lzo_memcmp                00474520 f   minilzo.obj
 0001:00073540       _lzo_memcpy                00474540 f   minilzo.obj
 0001:00073560       _lzo_memmove               00474560 f   minilzo.obj
 0001:00073580       _lzo_memset                00474580 f   minilzo.obj
 0001:000735a0       _lzo_adler32               004745a0 f   minilzo.obj
 0001:00073870       __lzo_config_check         00474870 f   minilzo.obj
 0001:00073a40       ___lzo_align_gap           00474a40 f   minilzo.obj
 0001:00073a80       _lzo1x_1_compress          00474a80 f   minilzo.obj
 0001:00073c00       _lzo1x_decompress          00474c00 f   minilzo.obj
 0001:000741d0       _lzo1x_decompress_safe     004751d0 f   minilzo.obj
 0001:00074980       _lzo_copyright             00475980 f   minilzo.obj
 0001:00074990       ___lzo_ptr_linear          00475990 f   minilzo.obj
 0001:00075710       ??0MRU@@QAE@PADI@Z         00476710 f   MRU.obj
 0001:00075750       ?AddItem@MRU@@QAEXPAD@Z    00476750 f   MRU.obj
 0001:000759d0       ?NumItems@MRU@@QAEHXZ      004769d0 f   MRU.obj
 0001:000759f0       ?GetItem@MRU@@QAEHHPADH@Z  004769f0 f   MRU.obj
 0001:00075ae0       ?RemoveItem@MRU@@QAEXPAD@Z 00476ae0 f   MRU.obj
 0001:00075b90       ?RemoveItem@MRU@@QAEXH@Z   00476b90 f   MRU.obj
 0001:00075cc0       ??1MRU@@UAE@XZ             00476cc0 f   MRU.obj
 0001:00075ce0       ?ReadIndex@MRU@@AAEXXZ     00476ce0 f   MRU.obj
 0001:00075d80       ?WriteIndex@MRU@@IAEXXZ    00476d80 f   MRU.obj
 0001:00075fb0       ??_EMRU@@UAEPAXI@Z         00476fb0 f i MRU.obj
 0001:00075fb0       ??_GMRU@@UAEPAXI@Z         00476fb0 f i MRU.obj
 0001:00075ff0       ?strchr@@YAPADPADH@Z       00476ff0 f i MRU.obj
 0001:00076010       ?SetQuickOption@SessionDialog@@QAEHPAV1@PAUHWND__@@@Z 00477010 f   SessionDialog.obj
 0001:00076290       ?ManageQuickOptions@SessionDialog@@QAEHPAV1@PAUHWND__@@@Z 00477290 f   SessionDialog.obj
 0001:00076460       ??0SessionDialog@@QAE@PAVVNCOptions@@PAVClientConnection@@PAVCDSMPlugin@@@Z 00477460 f   SessionDialog.obj
 0001:00076520       ?DoDialog@SessionDialog@@QAEHXZ 00477520 f   SessionDialog.obj
 0001:00076550       ??1SessionDialog@@UAE@XZ   00477550 f   SessionDialog.obj
 0001:000765a0       ?SessDlgProc@@YGHPAUHWND__@@IIJ@Z 004775a0 f   SessionDialog.obj
 0001:00078550       ??$SafeGetWindowUserData@VSessionDialog@@@helper@@YAPAVSessionDialog@@PAUHWND__@@@Z 00479550 f i SessionDialog.obj
 0001:00078570       ??_GSessionDialog@@UAEPAXI@Z 00479570 f i SessionDialog.obj
 0001:00078570       ??_ESessionDialog@@UAEPAXI@Z 00479570 f i SessionDialog.obj
 0001:000785b0       ?GetPluginFileName@CDSMPlugin@@QAEPADXZ 004795b0 f i SessionDialog.obj
 0001:000785d0       ??0TextChat@@QAE@PAVVNCviewerApp@@PAVClientConnection@@@Z 004795d0 f   TextChat.obj
 0001:000787d0       ?DoDialog@TextChat@@QAEHXZ 004797d0 f   TextChat.obj
 0001:00078800       ?KillDialog@TextChat@@QAEXXZ 00479800 f   TextChat.obj
 0001:00078830       ??1TextChat@@UAE@XZ        00479830 f   TextChat.obj
 0001:00078930       ?TextChatDlgProc@TextChat@@SGHPAUHWND__@@IIJ@Z 00479930 f   TextChat.obj
 0001:000792f0       ?SendTextChatRequest@TextChat@@QAEXH@Z 0047a2f0 f   TextChat.obj
 0001:00079350       ?SendLocalText@TextChat@@QAEXXZ 0047a350 f   TextChat.obj
 0001:00079460       ?ProcessTextChatMsg@TextChat@@QAEXXZ 0047a460 f   TextChat.obj
 0001:00079600       ?PrintMessage@TextChat@@QAEXPBD0K@Z 0047a600 f   TextChat.obj
 0001:00079900       ?SetTextFormat@TextChat@@QAEX_N0JPBDK@Z 0047a900 f   TextChat.obj
 0001:000799d0       ?ShowChatWindow@TextChat@@QAEX_N@Z 0047a9d0 f   TextChat.obj
 0001:00079a90       ?SBProc@@YGJPAUHWND__@@IIJ@Z 0047aa90 f   TextChat.obj
 0001:00079d20       ?AdjustLeft@@YAXPAUtagRECT@@@Z 0047ad20 f   TextChat.obj
 0001:00079d70       ?AdjustTop@@YAXPAUtagRECT@@@Z 0047ad70 f   TextChat.obj
 0001:00079dc0       ?AdjustRight@@YAXPAUtagRECT@@@Z 0047adc0 f   TextChat.obj
 0001:00079e10       ?AdjustBottom@@YAXPAUtagRECT@@@Z 0047ae10 f   TextChat.obj
 0001:00079e60       ?DrawResizeLine@@YAXPAUHWND__@@H@Z 0047ae60 f   TextChat.obj
 0001:0007a600       ??$SafeGetWindowUserData@VTextChat@@@helper@@YAPAVTextChat@@PAUHWND__@@@Z 0047b600 f i TextChat.obj
 0001:0007a620       ??_GTextChat@@UAEPAXI@Z    0047b620 f i TextChat.obj
 0001:0007a620       ??_ETextChat@@UAEPAXI@Z    0047b620 f i TextChat.obj
 0001:0007a660       ?strstr@@YAPADPADPBD@Z     0047b660 f i TextChat.obj
 0001:0007a680       _vncEncryptBytes           0047b680 f   vncauth.obj
 0001:0007a740       _vncEncryptPasswd          0047b740 f   vncauth.obj
 0001:0007a7b0       _vncEncryptPasswdMs        0047b7b0 f   vncauth.obj
 0001:0007a820       _vncDecryptPasswd          0047b820 f   vncauth.obj
 0001:0007a8b0       _vncDecryptPasswdMs        0047b8b0 f   vncauth.obj
 0001:0007a940       _vncEncryptBytes2          0047b940 f   vncauth.obj
 0001:0007ab00       ??0VNCOptions@@QAE@XZ      0047bb00 f   VNCOptions.obj
 0001:0007b0f0       ??4VNCOptions@@QAEAAV0@AAV0@@Z 0047c0f0 f   VNCOptions.obj
 0001:0007b630       ??1VNCOptions@@UAE@XZ      0047c630 f   VNCOptions.obj
 0001:0007b650       ?Save@VNCOptions@@QAEXPAD@Z 0047c650 f   VNCOptions.obj
 0001:0007bca0       ?Load@VNCOptions@@QAEXPAD@Z 0047cca0 f   VNCOptions.obj
 0001:0007c950       ?CheckProxyAndHost@VNCOptions@@QAEXXZ 0047d950 f   VNCOptions.obj
 0001:0007cb50       ?DoDialog@VNCOptions@@QAEH_NPAUHWND__@@@Z 0047db50 f   VNCOptions.obj
 0001:0007cb90       ?SetFromCommandLine@VNCOptions@@QAEXPAD@Z 0047db90 f   VNCOptions.obj
 0001:0007ea00       ?CancelDialog@VNCOptions@@QAEXXZ 0047fa00 f   VNCOptions.obj
 0001:0007ea30       ?GetDefaultOptionsFileName@VNCOptions@@SAXPAD@Z 0047fa30 f   VNCOptions.obj
 0001:0007ec50       ?DeleteDefaultOptions@VNCOptions@@SAXXZ 0047fc50 f   VNCOptions.obj
 0001:0007ec90       ?OptDlgProc@VNCOptions@@SGHPAUHWND__@@IIJ@Z 0047fc90 f   VNCOptions.obj
 0001:00080b30       ?ShowUsage@VNCOptions@@AAEXPAD@Z 00481b30 f   VNCOptions.obj
 0001:00080bb0       ?FixScaling@VNCOptions@@AAEXXZ 00481bb0 f   VNCOptions.obj
 0001:00080cc0       ?gcd@@YAHHH@Z              00481cc0 f   VNCOptions.obj
 0001:00080d00       ?saveInt@@YAXPADH0@Z       00481d00 f   VNCOptions.obj
 0001:00080d50       ?readInt@@YAHPADH0@Z       00481d50 f   VNCOptions.obj
 0001:00082610       ??$SafeGetWindowUserData@VVNCOptions@@@helper@@YAPAVVNCOptions@@PAUHWND__@@@Z 00483610 f i VNCOptions.obj
 0001:00082630       ??_EVNCOptions@@UAEPAXI@Z  00483630 f i VNCOptions.obj
 0001:00082630       ??_GVNCOptions@@UAEPAXI@Z  00483630 f i VNCOptions.obj
 0001:00082670       ?SwitchMatch@@YA_NPBD0@Z   00483670 f i VNCOptions.obj
 0001:000826f0       _WinMain@16                004836f0 f   vncviewer.obj
 0001:000843a0       ?CentreWindow@@YAXPAUHWND__@@@Z 004853a0 f   vncviewer.obj
 0001:00084480       ?ParseDisplay@@YA_NPAD0HPAH@Z 00485480 f   vncviewer.obj
 0001:00084e40       ??$strcat_s@$0BAE@@@YAHAAY0BAE@DPBD@Z 00485e40 f i vncviewer.obj
 0001:00084e60       ??$strcpy_s@$0BAE@@@YAHAAY0BAE@DPBD@Z 00485e60 f i vncviewer.obj
 0001:00084e80       ??0VNCviewerApp@@QAE@PAUHINSTANCE__@@PAD@Z 00485e80 f   VNCviewerApp.obj
 0001:00085050       ??1VNCviewerApp@@QAE@XZ    00486050 f   VNCviewerApp.obj
 0001:000850e0       ?RegisterConnection@VNCviewerApp@@QAEXPAVClientConnection@@@Z 004860e0 f   VNCviewerApp.obj
 0001:000851e0       ?DeregisterConnection@VNCviewerApp@@QAEXPAVClientConnection@@@Z 004861e0 f   VNCviewerApp.obj
 0001:00085470       ??0VNCviewerApp32@@QAE@PAUHINSTANCE__@@PAD@Z 00486470 f   VNCviewerApp32.obj
 0001:00085660       ?NewConnection@VNCviewerApp32@@UAEX_N@Z 00486660 f   VNCviewerApp32.obj
 0001:00085780       ?NewConnection@VNCviewerApp32@@UAEX_NPADH@Z 00486780 f   VNCviewerApp32.obj
 0001:000858b0       ?NewConnection@VNCviewerApp32@@UAEX_NI@Z 004868b0 f   VNCviewerApp32.obj
 0001:000859d0       ??1VNCviewerApp32@@QAE@XZ  004869d0 f   VNCviewerApp32.obj
 0001:00085bf0       ?SafeSetWindowUserData@helper@@YAXPAUHWND__@@J@Z 00486bf0 f   win32_helpers.obj
 0001:00085c10       ?SafeSetMsgResult@helper@@YAXPAUHWND__@@J@Z 00486c10 f   win32_helpers.obj
 0001:00085c30       ?SafeGetWindowInstance@helper@@YAPAUHINSTANCE__@@PAUHWND__@@@Z 00486c30 f   win32_helpers.obj
 0001:00085c50       ?SafeGetWindowProc@helper@@YAJPAUHWND__@@@Z 00486c50 f   win32_helpers.obj
 0001:00085c70       ?SafeSetWindowProc@helper@@YAXPAUHWND__@@J@Z 00486c70 f   win32_helpers.obj
 0001:00085c90       ?close_handle@helper@@YAXAAPAX@Z 00486c90 f   win32_helpers.obj
 0001:00085cc0       ??0DynamicFnBase@helper@@QAE@PBD0@Z 00486cc0 f   win32_helpers.obj
 0001:00085d20       ??1DynamicFnBase@helper@@QAE@XZ 00486d20 f   win32_helpers.obj
 0001:00085da0       ?DummyPassword@@YGHPADHPBD1@Z 00486da0 f   ZipUnzip32.obj
 0001:00085db0       ?DummyPrint@@YGHPADK@Z     00486db0 f   ZipUnzip32.obj
 0001:00085dc0       ?DummyComment@@YGHPAD@Z    00486dc0 f   ZipUnzip32.obj
 0001:00085de0       ?password@@YGHPADHPBD1@Z   00486de0 f   ZipUnzip32.obj
 0001:00085df0       ?DisplayBuf@@YGHPADK@Z     00486df0 f   ZipUnzip32.obj
 0001:00085e00       ?GetReplaceDlgRetVal@@YGHPAD@Z 00486e00 f   ZipUnzip32.obj
 0001:00085e10       ?ReceiveDllMessage@@YGXKKIIIIIIDPAD0KD@Z 00486e10 f   ZipUnzip32.obj
 0001:00085e20       ?ZipDirectory@CZipUnZip32@@QAE_NPAD00_N@Z 00486e20 f   ZipUnzip32.obj
 0001:000860b0       ?UnZipDirectory@CZipUnZip32@@QAE_NPAD0@Z 004870b0 f   ZipUnzip32.obj
 0001:00086350       ??0CZipUnZip32@@QAE@XZ     00487350 f   ZipUnzip32.obj
 0001:000864b0       ??1CZipUnZip32@@UAE@XZ     004874b0 f   ZipUnzip32.obj
 0001:000864d0       ?FreeUpZipMemory@CZipUnZip32@@AAEXXZ 004874d0 f   ZipUnzip32.obj
 0001:00086510       ?FreeUpUnzipMemory@CZipUnZip32@@AAEXXZ 00487510 f   ZipUnzip32.obj
 0001:00086770       ??_GCZipUnZip32@@UAEPAXI@Z 00487770 f i ZipUnzip32.obj
 0001:00086770       ??_ECZipUnZip32@@UAEPAXI@Z 00487770 f i ZipUnzip32.obj
 0001:000867b0       ?zrleDecode@ClientConnection@@AAEXHHHH@Z 004877b0 f   zrle.obj
 0001:00086b70       ?zrleDecode8NE@ClientConnection@@AAEXHHHHPAVInStream@rdr@@PAVZlibInStream@3@PAE@Z 00487b70 f   zrle.obj
 0001:00087290       ?zrleDecode15LE@ClientConnection@@AAEXHHHHPAVInStream@rdr@@PAVZlibInStream@3@PAG@Z 00488290 f   zrle.obj
 0001:00087a80       ?zrleDecode16LE@ClientConnection@@AAEXHHHHPAVInStream@rdr@@PAVZlibInStream@3@PAG@Z 00488a80 f   zrle.obj
 0001:00088270       ?zrleDecode24ALE@ClientConnection@@AAEXHHHHPAVInStream@rdr@@PAVZlibInStream@3@PAI@Z 00489270 f   zrle.obj
 0001:00088a80       ?zrleDecode24BLE@ClientConnection@@AAEXHHHHPAVInStream@rdr@@PAVZlibInStream@3@PAI@Z 00489a80 f   zrle.obj
 0001:00089290       ?zrleDecode32LE@ClientConnection@@AAEXHHHHPAVInStream@rdr@@PAVZlibInStream@3@PAI@Z 0048a290 f   zrle.obj
 0001:00089ea0       ?zywrleSynthesize16LE@@YAPAGPAG0HHHHPAH@Z 0048aea0 f   zrle.obj
 0001:0008a7f0       ?zywrleSynthesize15LE@@YAPAGPAG0HHHHPAH@Z 0048b7f0 f   zrle.obj
 0001:0008b110       ?zywrleSynthesize32LE@@YAPAIPAI0HHHHPAH@Z 0048c110 f   zrle.obj
 0001:0008cbd0       ?readOpaque16@InStream@rdr@@QAEGXZ 0048dbd0 f i zrle.obj
 0001:0008cc50       ?readOpaque24A@InStream@rdr@@QAEIXZ 0048dc50 f i zrle.obj
 0001:0008cd00       ?readOpaque24B@InStream@rdr@@QAEIXZ 0048dd00 f i zrle.obj
 0001:0008cdb0       ?readOpaque32@InStream@rdr@@QAEIXZ 0048ddb0 f i zrle.obj
 0001:0008ce80       ?readOpaque8@InStream@rdr@@QAEEXZ 0048de80 f i zrle.obj
 0001:0008ce98       _InitCommonControls@0      0048de98 f   comctl32:COMCTL32.dll
 0001:0008ce9e       _InitCommonControlsEx@4    0048de9e f   comctl32:COMCTL32.dll
 0001:0008cea4       _CreateToolbarEx@52        0048dea4 f   comctl32:COMCTL32.dll
 0001:0008ceaa       _ImageList_Create@20       0048deaa f   comctl32:COMCTL32.dll
 0001:0008ceb0       _ImageList_ReplaceIcon@12  0048deb0 f   comctl32:COMCTL32.dll
 0001:0008ceb6       _CreateStatusWindowA@16    0048deb6 f   comctl32:COMCTL32.dll
 0001:0008cebc       _PlaySoundA@12             0048debc f   winmm:WINMM.dll
 0001:0008cec2       _timeGetTime@0             0048dec2 f   winmm:WINMM.dll
 0001:0008cec8       _timeSetEvent@20           0048dec8 f   winmm:WINMM.dll
 0001:0008cece       _timeKillEvent@4           0048dece f   winmm:WINMM.dll
 0001:0008ced4       ___WSAFDIsSet@8            0048ded4 f   ws2_32:WS2_32.dll
 0001:0008ceda       _closesocket@4             0048deda f   ws2_32:WS2_32.dll
 0001:0008cee0       _connect@12                0048dee0 f   ws2_32:WS2_32.dll
 0001:0008cee6       _getpeername@12            0048dee6 f   ws2_32:WS2_32.dll
 0001:0008ceec       _htons@4                   0048deec f   ws2_32:WS2_32.dll
 0001:0008cef2       _inet_addr@4               0048def2 f   ws2_32:WS2_32.dll
 0001:0008cef8       _select@20                 0048def8 f   ws2_32:WS2_32.dll
 0001:0008cefe       _send@16                   0048defe f   ws2_32:WS2_32.dll
 0001:0008cf04       _setsockopt@20             0048df04 f   ws2_32:WS2_32.dll
 0001:0008cf0a       _shutdown@8                0048df0a f   ws2_32:WS2_32.dll
 0001:0008cf10       _socket@12                 0048df10 f   ws2_32:WS2_32.dll
 0001:0008cf16       _gethostbyname@4           0048df16 f   ws2_32:WS2_32.dll
 0001:0008cf1c       _WSAGetLastError@0         0048df1c f   ws2_32:WS2_32.dll
 0001:0008cf22       _accept@12                 0048df22 f   ws2_32:WS2_32.dll
 0001:0008cf28       _bind@12                   0048df28 f   ws2_32:WS2_32.dll
 0001:0008cf2e       _ioctlsocket@12            0048df2e f   ws2_32:WS2_32.dll
 0001:0008cf34       _listen@8                  0048df34 f   ws2_32:WS2_32.dll
 0001:0008cf3a       _recv@16                   0048df3a f   ws2_32:WS2_32.dll
 0001:0008cf40       _WSAAsyncSelect@16         0048df40 f   ws2_32:WS2_32.dll
 0001:0008cf46       _WSACleanup@0              0048df46 f   ws2_32:WS2_32.dll
 0001:0008cf4c       _WSAStartup@8              0048df4c f   ws2_32:WS2_32.dll
 0001:0008cf52       _GetModuleHandleA@4        0048df52 f   kernel32:KERNEL32.dll
 0001:0008cf58       _OutputDebugStringA@4      0048df58 f   kernel32:KERNEL32.dll
 0001:0008cf5e       _Beep@8                    0048df5e f   kernel32:KERNEL32.dll
 0001:0008cf64       _CloseHandle@4             0048df64 f   kernel32:KERNEL32.dll
 0001:0008cf6a       _GetLastError@0            0048df6a f   kernel32:KERNEL32.dll
 0001:0008cf70       _SetEvent@4                0048df70 f   kernel32:KERNEL32.dll
 0001:0008cf76       _WaitForSingleObject@8     0048df76 f   kernel32:KERNEL32.dll
 0001:0008cf7c       _CreateEventA@16           0048df7c f   kernel32:KERNEL32.dll
 0001:0008cf82       _Sleep@4                   0048df82 f   kernel32:KERNEL32.dll
 0001:0008cf88       _CreateThread@24           0048df88 f   kernel32:KERNEL32.dll
 0001:0008cf8e       _ResumeThread@4            0048df8e f   kernel32:KERNEL32.dll
 0001:0008cf94       _GetTickCount@0            0048df94 f   kernel32:KERNEL32.dll
 0001:0008cf9a       _LocalFree@4               0048df9a f   kernel32:KERNEL32.dll
 0001:0008cfa0       _FormatMessageA@28         0048dfa0 f   kernel32:KERNEL32.dll
 0001:0008cfa6       _GlobalAlloc@8             0048dfa6 f   kernel32:KERNEL32.dll
 0001:0008cfac       _GlobalLock@4              0048dfac f   kernel32:KERNEL32.dll
 0001:0008cfb2       _GlobalUnlock@4            0048dfb2 f   kernel32:KERNEL32.dll
 0001:0008cfb8       _GetPrivateProfileIntA@16  0048dfb8 f   kernel32:KERNEL32.dll
 0001:0008cfbe       _WritePrivateProfileStringA@16 0048dfbe f   kernel32:KERNEL32.dll
 0001:0008cfc4       _GetPrivateProfileStringA@24 0048dfc4 f   kernel32:KERNEL32.dll
 0001:0008cfca       _GlobalSize@4              0048dfca f   kernel32:KERNEL32.dll
 0001:0008cfd0       _GlobalFree@4              0048dfd0 f   kernel32:KERNEL32.dll
 0001:0008cfd6       _MultiByteToWideChar@24    0048dfd6 f   kernel32:KERNEL32.dll
 0001:0008cfdc       _WideCharToMultiByte@32    0048dfdc f   kernel32:KERNEL32.dll
 0001:0008cfe2       _DeleteFileA@4             0048dfe2 f   kernel32:KERNEL32.dll
 0001:0008cfe8       _FindClose@4               0048dfe8 f   kernel32:KERNEL32.dll
 0001:0008cfee       _FindFirstFileA@8          0048dfee f   kernel32:KERNEL32.dll
 0001:0008cff4       _FindNextFileA@8           0048dff4 f   kernel32:KERNEL32.dll
 0001:0008cffa       _FreeLibrary@4             0048dffa f   kernel32:KERNEL32.dll
 0001:0008d000       _GetModuleFileNameA@12     0048e000 f   kernel32:KERNEL32.dll
 0001:0008d006       _GetProcAddress@8          0048e006 f   kernel32:KERNEL32.dll
 0001:0008d00c       _LoadLibraryA@4            0048e00c f   kernel32:KERNEL32.dll
 0001:0008d012       _GetTempPathA@8            0048e012 f   kernel32:KERNEL32.dll
 0001:0008d018       _CopyFileA@12              0048e018 f   kernel32:KERNEL32.dll
 0001:0008d01e       _lstrcpyA@8                0048e01e f   kernel32:KERNEL32.dll
 0001:0008d024       _CompareFileTime@8         0048e024 f   kernel32:KERNEL32.dll
 0001:0008d02a       _CreateDirectoryA@8        0048e02a f   kernel32:KERNEL32.dll
 0001:0008d030       _CreateFileA@28            0048e030 f   kernel32:KERNEL32.dll
 0001:0008d036       _FileTimeToLocalFileTime@8 0048e036 f   kernel32:KERNEL32.dll
 0001:0008d03c       _FlushFileBuffers@4        0048e03c f   kernel32:KERNEL32.dll
 0001:0008d042       _GetDriveTypeA@4           0048e042 f   kernel32:KERNEL32.dll
 0001:0008d048       _GetFileAttributesA@4      0048e048 f   kernel32:KERNEL32.dll
 0001:0008d04e       _GetFileTime@16            0048e04e f   kernel32:KERNEL32.dll
 0001:0008d054       _ReadFile@20               0048e054 f   kernel32:KERNEL32.dll
 0001:0008d05a       _SetEndOfFile@4            0048e05a f   kernel32:KERNEL32.dll
 0001:0008d060       _SetFilePointer@16         0048e060 f   kernel32:KERNEL32.dll
 0001:0008d066       _SetFileTime@16            0048e066 f   kernel32:KERNEL32.dll
 0001:0008d06c       _WriteFile@20              0048e06c f   kernel32:KERNEL32.dll
 0001:0008d072       _SetErrorMode@4            0048e072 f   kernel32:KERNEL32.dll
 0001:0008d078       _InitializeCriticalSection@4 0048e078 f   kernel32:KERNEL32.dll
 0001:0008d07e       _EnterCriticalSection@4    0048e07e f   kernel32:KERNEL32.dll
 0001:0008d084       _LeaveCriticalSection@4    0048e084 f   kernel32:KERNEL32.dll
 0001:0008d08a       _DeleteCriticalSection@4   0048e08a f   kernel32:KERNEL32.dll
 0001:0008d090       _lstrcmpiA@8               0048e090 f   kernel32:KERNEL32.dll
 0001:0008d096       _lstrlenA@4                0048e096 f   kernel32:KERNEL32.dll
 0001:0008d09c       _GetLogicalDriveStringsA@8 0048e09c f   kernel32:KERNEL32.dll
 0001:0008d0a2       _MoveFileA@8               0048e0a2 f   kernel32:KERNEL32.dll
 0001:0008d0a8       _MoveFileExA@12            0048e0a8 f   kernel32:KERNEL32.dll
 0001:0008d0ae       _FileTimeToSystemTime@8    0048e0ae f   kernel32:KERNEL32.dll
 0001:0008d0b4       _SystemTimeToFileTime@8    0048e0b4 f   kernel32:KERNEL32.dll
 0001:0008d0ba       _MulDiv@12                 0048e0ba f   kernel32:KERNEL32.dll
 0001:0008d0c0       _GetStdHandle@4            0048e0c0 f   kernel32:KERNEL32.dll
 0001:0008d0c6       _AllocConsole@0            0048e0c6 f   kernel32:KERNEL32.dll
 0001:0008d0cc       _WriteConsoleA@20          0048e0cc f   kernel32:KERNEL32.dll
 0001:0008d0d2       _GetComputerNameA@8        0048e0d2 f   kernel32:KERNEL32.dll
 0001:0008d0d8       _GetVersionExA@4           0048e0d8 f   kernel32:KERNEL32.dll
 0001:0008d0de       _DialogBoxParamA@20        0048e0de f   user32:USER32.dll
 0001:0008d0e4       _EndDialog@8               0048e0e4 f   user32:USER32.dll
 0001:0008d0ea       _SetDlgItemTextA@12        0048e0ea f   user32:USER32.dll
 0001:0008d0f0       _SetForegroundWindow@4     0048e0f0 f   user32:USER32.dll
 0001:0008d0f6       _IsRectEmpty@4             0048e0f6 f   user32:USER32.dll
 0001:0008d0fc       _LoadImageA@24             0048e0fc f   user32:USER32.dll
 0001:0008d102       _CreateAcceleratorTableA@8 0048e102 f   user32:USER32.dll
 0001:0008d108       _DestroyAcceleratorTable@4 0048e108 f   user32:USER32.dll
 0001:0008d10e       _TranslateAcceleratorA@12  0048e10e f   user32:USER32.dll
 0001:0008d114       _SendMessageA@16           0048e114 f   user32:USER32.dll
 0001:0008d11a       _GetDlgItem@8              0048e11a f   user32:USER32.dll
 0001:0008d120       _GetDlgItemTextA@16        0048e120 f   user32:USER32.dll
 0001:0008d126       _SetWindowTextA@8          0048e126 f   user32:USER32.dll
 0001:0008d12c       _GetWindowTextA@12         0048e12c f   user32:USER32.dll
 0001:0008d132       _GetWindowLongA@8          0048e132 f   user32:USER32.dll
 0001:0008d138       _wsprintfA                 0048e138 f   user32:USER32.dll
 0001:0008d13e       _GetKeyboardLayoutNameA@4  0048e13e f   user32:USER32.dll
 0001:0008d144       _RegisterWindowMessageA@4  0048e144 f   user32:USER32.dll
 0001:0008d14a       _SendNotifyMessageA@16     0048e14a f   user32:USER32.dll
 0001:0008d150       _PostMessageA@16           0048e150 f   user32:USER32.dll
 0001:0008d156       _DefWindowProcA@16         0048e156 f   user32:USER32.dll
 0001:0008d15c       _PostQuitMessage@4         0048e15c f   user32:USER32.dll
 0001:0008d162       _RegisterClassA@4          0048e162 f   user32:USER32.dll
 0001:0008d168       _CreateWindowExA@48        0048e168 f   user32:USER32.dll
 0001:0008d16e       _IsWindow@4                0048e16e f   user32:USER32.dll
 0001:0008d174       _DestroyWindow@4           0048e174 f   user32:USER32.dll
 0001:0008d17a       _ShowWindow@8              0048e17a f   user32:USER32.dll
 0001:0008d180       _MoveWindow@24             0048e180 f   user32:USER32.dll
 0001:0008d186       _SetWindowPos@28           0048e186 f   user32:USER32.dll
 0001:0008d18c       _IsIconic@4                0048e18c f   user32:USER32.dll
 0001:0008d192       _SetDlgItemInt@16          0048e192 f   user32:USER32.dll
 0001:0008d198       _GetDlgItemInt@16          0048e198 f   user32:USER32.dll
 0001:0008d19e       _SetClipboardViewer@4      0048e19e f   user32:USER32.dll
 0001:0008d1a4       _ChangeClipboardChain@8    0048e1a4 f   user32:USER32.dll
 0001:0008d1aa       _SetFocus@4                0048e1aa f   user32:USER32.dll
 0001:0008d1b0       _GetFocus@0                0048e1b0 f   user32:USER32.dll
 0001:0008d1b6       _GetKeyNameTextA@12        0048e1b6 f   user32:USER32.dll
 0001:0008d1bc       _SetTimer@16               0048e1bc f   user32:USER32.dll
 0001:0008d1c2       _KillTimer@8               0048e1c2 f   user32:USER32.dll
 0001:0008d1c8       _DrawMenuBar@4             0048e1c8 f   user32:USER32.dll
 0001:0008d1ce       _GetSystemMenu@8           0048e1ce f   user32:USER32.dll
 0001:0008d1d4       _CreatePopupMenu@0         0048e1d4 f   user32:USER32.dll
 0001:0008d1da       _DestroyMenu@4             0048e1da f   user32:USER32.dll
 0001:0008d1e0       _CheckMenuItem@12          0048e1e0 f   user32:USER32.dll
 0001:0008d1e6       _EnableMenuItem@12         0048e1e6 f   user32:USER32.dll
 0001:0008d1ec       _AppendMenuA@16            0048e1ec f   user32:USER32.dll
 0001:0008d1f2       _UpdateWindow@4            0048e1f2 f   user32:USER32.dll
 0001:0008d1f8       _GetDC@4                   0048e1f8 f   user32:USER32.dll
 0001:0008d1fe       _ReleaseDC@8               0048e1fe f   user32:USER32.dll
 0001:0008d204       _BeginPaint@8              0048e204 f   user32:USER32.dll
 0001:0008d20a       _EndPaint@8                0048e20a f   user32:USER32.dll
 0001:0008d210       _InvalidateRect@12         0048e210 f   user32:USER32.dll
 0001:0008d216       _InvalidateRgn@12          0048e216 f   user32:USER32.dll
 0001:0008d21c       _ScrollWindowEx@32         0048e21c f   user32:USER32.dll
 0001:0008d222       _ShowScrollBar@12          0048e222 f   user32:USER32.dll
 0001:0008d228       _GetClientRect@8           0048e228 f   user32:USER32.dll
 0001:0008d22e       _GetWindowRect@8           0048e22e f   user32:USER32.dll
 0001:0008d234       _AdjustWindowRectEx@16     0048e234 f   user32:USER32.dll
 0001:0008d23a       _MessageBoxA@16            0048e23a f   user32:USER32.dll
 0001:0008d240       _SetCursor@4               0048e240 f   user32:USER32.dll
 0001:0008d246       _GetSysColorBrush@4        0048e246 f   user32:USER32.dll
 0001:0008d24c       _FillRect@12               0048e24c f   user32:USER32.dll
 0001:0008d252       _SetRect@20                0048e252 f   user32:USER32.dll
 0001:0008d258       _LoadCursorA@8             0048e258 f   user32:USER32.dll
 0001:0008d25e       _LoadIconA@8               0048e25e f   user32:USER32.dll
 0001:0008d264       _SetScrollInfo@16          0048e264 f   user32:USER32.dll
 0001:0008d26a       _OpenClipboard@4           0048e26a f   user32:USER32.dll
 0001:0008d270       _CloseClipboard@0          0048e270 f   user32:USER32.dll
 0001:0008d276       _GetClipboardOwner@0       0048e276 f   user32:USER32.dll
 0001:0008d27c       _SetClipboardData@8        0048e27c f   user32:USER32.dll
 0001:0008d282       _GetClipboardData@4        0048e282 f   user32:USER32.dll
 0001:0008d288       _EmptyClipboard@0          0048e288 f   user32:USER32.dll
 0001:0008d28e       _RedrawWindow@16           0048e28e f   user32:USER32.dll
 0001:0008d294       _SetCursorPos@8            0048e294 f   user32:USER32.dll
 0001:0008d29a       _GetCursorPos@4            0048e29a f   user32:USER32.dll
 0001:0008d2a0       _SetWindowLongA@12         0048e2a0 f   user32:USER32.dll
 0001:0008d2a6       _RegisterClipboardFormatA@4 0048e2a6 f   user32:USER32.dll
 0001:0008d2ac       _IsClipboardFormatAvailable@4 0048e2ac f   user32:USER32.dll
 0001:0008d2b2       _LoadStringA@16            0048e2b2 f   user32:USER32.dll
 0001:0008d2b8       _RegisterClassExA@4        0048e2b8 f   user32:USER32.dll
 0001:0008d2be       _LoadMenuA@8               0048e2be f   user32:USER32.dll
 0001:0008d2c4       _GetSubMenu@8              0048e2c4 f   user32:USER32.dll
 0001:0008d2ca       _GetMenuItemID@8           0048e2ca f   user32:USER32.dll
 0001:0008d2d0       _TrackPopupMenu@28         0048e2d0 f   user32:USER32.dll
 0001:0008d2d6       _SetMenuDefaultItem@12     0048e2d6 f   user32:USER32.dll
 0001:0008d2dc       _ValidateRect@8            0048e2dc f   user32:USER32.dll
 0001:0008d2e2       _GetSystemMetrics@4        0048e2e2 f   user32:USER32.dll
 0001:0008d2e8       _EnumDisplaySettingsExA@16 0048e2e8 f   user32:USER32.dll
 0001:0008d2ee       _EnumDisplayDevicesA@16    0048e2ee f   user32:USER32.dll
 0001:0008d2f4       _SystemParametersInfoA@16  0048e2f4 f   user32:USER32.dll
 0001:0008d2fa       _MonitorFromPoint@12       0048e2fa f   user32:USER32.dll
 0001:0008d300       _GetMonitorInfoA@8         0048e300 f   user32:USER32.dll
 0001:0008d306       _TranslateMessage@4        0048e306 f   user32:USER32.dll
 0001:0008d30c       _DispatchMessageA@4        0048e30c f   user32:USER32.dll
 0001:0008d312       _PeekMessageA@20           0048e312 f   user32:USER32.dll
 0001:0008d318       _SendMessageTimeoutA@28    0048e318 f   user32:USER32.dll
 0001:0008d31e       _SendDlgItemMessageA@20    0048e31e f   user32:USER32.dll
 0001:0008d324       _EnableWindow@8            0048e324 f   user32:USER32.dll
 0001:0008d32a       _GetMenuItemCount@4        0048e32a f   user32:USER32.dll
 0001:0008d330       _DrawTextA@20              0048e330 f   user32:USER32.dll
 0001:0008d336       _GetWindowTextLengthA@4    0048e336 f   user32:USER32.dll
 0001:0008d33c       _GetParent@4               0048e33c f   user32:USER32.dll
 0001:0008d342       _DestroyIcon@4             0048e342 f   user32:USER32.dll
 0001:0008d348       _GetComboBoxInfo@8         0048e348 f   user32:USER32.dll
 0001:0008d34e       _GetMenuStringA@20         0048e34e f   user32:USER32.dll
 0001:0008d354       _ModifyMenuA@20            0048e354 f   user32:USER32.dll
 0001:0008d35a       _WindowFromDC@4            0048e35a f   user32:USER32.dll
 0001:0008d360       _SetWindowRgn@12           0048e360 f   user32:USER32.dll
 0001:0008d366       _MapWindowPoints@16        0048e366 f   user32:USER32.dll
 0001:0008d36c       _IntersectRect@12          0048e36c f   user32:USER32.dll
 0001:0008d372       _PtInRect@12               0048e372 f   user32:USER32.dll
 0001:0008d378       _GetDesktopWindow@0        0048e378 f   user32:USER32.dll
 0001:0008d37e       _LoadBitmapA@8             0048e37e f   user32:USER32.dll
 0001:0008d384       _GetKeyboardState@4        0048e384 f   user32:USER32.dll
 0001:0008d38a       _ToUnicode@24              0048e38a f   user32:USER32.dll
 0001:0008d390       _VkKeyScanW@4              0048e390 f   user32:USER32.dll
 0001:0008d396       _keybd_event@16            0048e396 f   user32:USER32.dll
 0001:0008d39c       _GetKeyState@4             0048e39c f   user32:USER32.dll
 0001:0008d3a2       _ToAscii@20                0048e3a2 f   user32:USER32.dll
 0001:0008d3a8       _GetMessageA@16            0048e3a8 f   user32:USER32.dll
 0001:0008d3ae       _PostThreadMessageA@16     0048e3ae f   user32:USER32.dll
 0001:0008d3b4       _GetForegroundWindow@0     0048e3b4 f   user32:USER32.dll
 0001:0008d3ba       _GetWindowThreadProcessId@8 0048e3ba f   user32:USER32.dll
 0001:0008d3c0       _SetWindowsHookExA@16      0048e3c0 f   user32:USER32.dll
 0001:0008d3c6       _CallNextHookEx@16         0048e3c6 f   user32:USER32.dll
 0001:0008d3cc       _CallWindowProcA@20        0048e3cc f   user32:USER32.dll
 0001:0008d3d2       _SetCapture@4              0048e3d2 f   user32:USER32.dll
 0001:0008d3d8       _ReleaseCapture@0          0048e3d8 f   user32:USER32.dll
 0001:0008d3de       _GetCaretBlinkTime@0       0048e3de f   user32:USER32.dll
 0001:0008d3e4       _SetCaretBlinkTime@4       0048e3e4 f   user32:USER32.dll
 0001:0008d3ea       _ScreenToClient@8          0048e3ea f   user32:USER32.dll
 0001:0008d3f0       _GetScrollInfo@12          0048e3f0 f   user32:USER32.dll
 0001:0008d3f6       _IsDlgButtonChecked@8      0048e3f6 f   user32:USER32.dll
 0001:0008d3fc       _LoadKeyboardLayoutA@8     0048e3fc f   user32:USER32.dll
 0001:0008d402       _BitBlt@36                 0048e402 f   gdi32:GDI32.dll
 0001:0008d408       _CreateCompatibleDC@4      0048e408 f   gdi32:GDI32.dll
 0001:0008d40e       _CreateSolidBrush@4        0048e40e f   gdi32:GDI32.dll
 0001:0008d414       _DeleteDC@4                0048e414 f   gdi32:GDI32.dll
 0001:0008d41a       _DeleteObject@4            0048e41a f   gdi32:GDI32.dll
 0001:0008d420       _GetClipBox@8              0048e420 f   gdi32:GDI32.dll
 0001:0008d426       _PatBlt@24                 0048e426 f   gdi32:GDI32.dll
 0001:0008d42c       _SelectObject@8            0048e42c f   gdi32:GDI32.dll
 0001:0008d432       _CombineRgn@16             0048e432 f   gdi32:GDI32.dll
 0001:0008d438       _CreatePalette@4           0048e438 f   gdi32:GDI32.dll
 0001:0008d43e       _CreateRectRgn@16          0048e43e f   gdi32:GDI32.dll
 0001:0008d444       _GetDeviceCaps@8           0048e444 f   gdi32:GDI32.dll
 0001:0008d44a       _GetStockObject@4          0048e44a f   gdi32:GDI32.dll
 0001:0008d450       _RealizePalette@4          0048e450 f   gdi32:GDI32.dll
 0001:0008d456       _SelectPalette@12          0048e456 f   gdi32:GDI32.dll
 0001:0008d45c       _StretchBlt@44             0048e45c f   gdi32:GDI32.dll
 0001:0008d462       _SetStretchBltMode@8       0048e462 f   gdi32:GDI32.dll
 0001:0008d468       _UpdateColors@4            0048e468 f   gdi32:GDI32.dll
 0001:0008d46e       _CreateDIBSection@24       0048e46e f   gdi32:GDI32.dll
 0001:0008d474       _SetDIBColorTable@16       0048e474 f   gdi32:GDI32.dll
 0001:0008d47a       _SetBrushOrgEx@16          0048e47a f   gdi32:GDI32.dll
 0001:0008d480       _CreateRectRgnIndirect@4   0048e480 f   gdi32:GDI32.dll
 0001:0008d486       _Rectangle@20              0048e486 f   gdi32:GDI32.dll
 0001:0008d48c       _CreateFontA@56            0048e48c f   gdi32:GDI32.dll
 0001:0008d492       _CreatePen@12              0048e492 f   gdi32:GDI32.dll
 0001:0008d498       _LineTo@12                 0048e498 f   gdi32:GDI32.dll
 0001:0008d49e       _SetBkMode@8               0048e49e f   gdi32:GDI32.dll
 0001:0008d4a4       _SetTextColor@8            0048e4a4 f   gdi32:GDI32.dll
 0001:0008d4aa       _MoveToEx@16               0048e4aa f   gdi32:GDI32.dll
 0001:0008d4b0       _CreatePolygonRgn@12       0048e4b0 f   gdi32:GDI32.dll
 0001:0008d4b6       _SetROP2@8                 0048e4b6 f   gdi32:GDI32.dll
 0001:0008d4bc       _GetOpenFileNameA@4        0048e4bc f   comdlg32:COMDLG32.dll
 0001:0008d4c2       _GetSaveFileNameA@4        0048e4c2 f   comdlg32:COMDLG32.dll
 0001:0008d4c8       _CommDlgExtendedError@0    0048e4c8 f   comdlg32:COMDLG32.dll
 0001:0008d4ce       _RegCloseKey@4             0048e4ce f   advapi32:ADVAPI32.dll
 0001:0008d4d4       _RegOpenKeyExA@20          0048e4d4 f   advapi32:ADVAPI32.dll
 0001:0008d4da       _RegQueryValueExA@24       0048e4da f   advapi32:ADVAPI32.dll
 0001:0008d4e0       _RegSetValueExA@24         0048e4e0 f   advapi32:ADVAPI32.dll
 0001:0008d4e6       _Shell_NotifyIconA@8       0048e4e6 f   shell32:SHELL32.dll
 0001:0008d4ec       _SHFileOperationA@4        0048e4ec f   shell32:SHELL32.dll
 0001:0008d4f2       _SHGetPathFromIDListA@8    0048e4f2 f   shell32:SHELL32.dll
 0001:0008d4f8       _SHGetSpecialFolderLocation@12 0048e4f8 f   shell32:SHELL32.dll
 0001:0008d4fe       _ShellExecuteA@24          0048e4fe f   shell32:SHELL32.dll
 0001:0008d504       _SHGetFolderPathA@20       0048e504 f   shell32:SHELL32.dll
 0001:0008d50a       _jpeg_std_error            0048e50a f   libjpeg-turbo-win:libjpeg-turbo-win.dll
 0001:0008d510       _jpeg_CreateDecompress     0048e510 f   libjpeg-turbo-win:libjpeg-turbo-win.dll
 0001:0008d516       _jpeg_destroy_decompress   0048e516 f   libjpeg-turbo-win:libjpeg-turbo-win.dll
 0001:0008d51c       _jpeg_read_header          0048e51c f   libjpeg-turbo-win:libjpeg-turbo-win.dll
 0001:0008d522       _jpeg_start_decompress     0048e522 f   libjpeg-turbo-win:libjpeg-turbo-win.dll
 0001:0008d528       _jpeg_read_scanlines       0048e528 f   libjpeg-turbo-win:libjpeg-turbo-win.dll
 0001:0008d52e       _jpeg_finish_decompress    0048e52e f   libjpeg-turbo-win:libjpeg-turbo-win.dll
 0001:0008d534       _jpeg_resync_to_restart    0048e534 f   libjpeg-turbo-win:libjpeg-turbo-win.dll
 0001:0008d540       ??0FdInStream@rdr@@QAE@HHH@Z 0048e540 f   rdr:FdInStream.obj
 0001:0008d6b0       ??0FdInStream@rdr@@QAE@HP6AXPAX@Z0H@Z 0048e6b0 f   rdr:FdInStream.obj
 0001:0008d810       ??0SystemException@rdr@@QAE@ABU01@@Z 0048e810 f i rdr:FdInStream.obj
 0001:0008d880       ??0SystemException@rdr@@QAE@PBDH@Z 0048e880 f i rdr:FdInStream.obj
 0001:0008da70       ??0TimedOut@rdr@@QAE@ABU01@@Z 0048ea70 f i rdr:FdInStream.obj
 0001:0008dad0       ??0TimedOut@rdr@@QAE@PBD@Z 0048ead0 f i rdr:FdInStream.obj
 0001:0008db30       ??1FdInStream@rdr@@UAE@XZ  0048eb30 f   rdr:FdInStream.obj
 0001:0008dba0       ??_EFdInStream@rdr@@UAEPAXI@Z 0048eba0 f i rdr:FdInStream.obj
 0001:0008dba0       ??_GFdInStream@rdr@@UAEPAXI@Z 0048eba0 f i rdr:FdInStream.obj
 0001:0008dc00       ?Check_if_buffer_has_data@FdInStream@rdr@@QAEHXZ 0048ec00 f   rdr:FdInStream.obj
 0001:0008dc60       ?Passedusecs@@YA_JXZ       0048ec60 f   rdr:FdInStream.obj
 0001:0008ddd0       ?SetReadFromMemoryBuffer@FdInStream@rdr@@QAEXHPAD@Z 0048edd0 f   rdr:FdInStream.obj
 0001:0008de20       ?Update_socket@FdInStream@rdr@@QAEXXZ 0048ee20 f   rdr:FdInStream.obj
 0001:0008de50       ?checkReadable@FdInStream@rdr@@AAEHHH@Z 0048ee50 f   rdr:FdInStream.obj
 0001:0008e010       ?getend@InStream@rdr@@QBEPBEXZ 0048f010 f i rdr:FdInStream.obj
 0001:0008e040       ?kbitsPerSecond@FdInStream@rdr@@QAEIXZ 0048f040 f   rdr:FdInStream.obj
 0001:0008e080       ?overrun@FdInStream@rdr@@MAEHHH@Z 0048f080 f   rdr:FdInStream.obj
 0001:0008e1f0       ?pos@FdInStream@rdr@@UAEHXZ 0048f1f0 f   rdr:FdInStream.obj
 0001:0008e230       ?readBytes@FdInStream@rdr@@UAEXPAXH@Z 0048f230 f   rdr:FdInStream.obj
 0001:0008e330       ?readWithTimeoutOrCallback@FdInStream@rdr@@AAEHPAXH@Z 0048f330 f   rdr:FdInStream.obj
 0001:0008e790       ?setptr@InStream@rdr@@QAEXPBE@Z 0048f790 f i rdr:FdInStream.obj
 0001:0008e7d0       ?startTiming@FdInStream@rdr@@QAEXXZ 0048f7d0 f   rdr:FdInStream.obj
 0001:0008e830       ?stopTiming@FdInStream@rdr@@QAEXXZ 0048f830 f   rdr:FdInStream.obj
 0001:0008e8c0       ??0ZlibInStream@rdr@@QAE@H@Z 0048f8c0 f   rdr:ZlibInStream.obj
 0001:0008ea90       ??1ZlibInStream@rdr@@UAE@XZ 0048fa90 f   rdr:ZlibInStream.obj
 0001:0008eb20       ??_GZlibInStream@rdr@@UAEPAXI@Z 0048fb20 f i rdr:ZlibInStream.obj
 0001:0008eb20       ??_EZlibInStream@rdr@@UAEPAXI@Z 0048fb20 f i rdr:ZlibInStream.obj
 0001:0008eb80       ?decompress@ZlibInStream@rdr@@AAEXXZ 0048fb80 f   rdr:ZlibInStream.obj
 0001:0008ece0       ?getptr@InStream@rdr@@QBEPBEXZ 0048fce0 f i rdr:ZlibInStream.obj
 0001:0008ed10       ?overrun@ZlibInStream@rdr@@EAEHHH@Z 0048fd10 f   rdr:ZlibInStream.obj
 0001:0008ee80       ?pos@ZlibInStream@rdr@@UAEHXZ 0048fe80 f   rdr:ZlibInStream.obj
 0001:0008eec0       ?reset@ZlibInStream@rdr@@QAEXXZ 0048fec0 f   rdr:ZlibInStream.obj
 0001:0008ef50       ?setUnderlying@ZlibInStream@rdr@@QAEXPAVInStream@2@H@Z 0048ff50 f   rdr:ZlibInStream.obj
 0001:0008efb0       ??0ZlibOutStream@rdr@@QAE@PAVOutStream@1@HH@Z 0048ffb0 f   rdr:ZlibOutStream.obj
 0001:0008f160       ??1ZlibOutStream@rdr@@UAE@XZ 00490160 f   rdr:ZlibOutStream.obj
 0001:0008f250       ??_EZlibOutStream@rdr@@UAEPAXI@Z 00490250 f i rdr:ZlibOutStream.obj
 0001:0008f250       ??_GZlibOutStream@rdr@@UAEPAXI@Z 00490250 f i rdr:ZlibOutStream.obj
 0001:0008f2b0       ?flush@ZlibOutStream@rdr@@UAEXXZ 004902b0 f   rdr:ZlibOutStream.obj
 0001:0008f410       ?getend@OutStream@rdr@@QAEPAEXZ 00490410 f i rdr:ZlibOutStream.obj
 0001:0008f440       ?getptr@OutStream@rdr@@QAEPAEXZ 00490440 f i rdr:ZlibOutStream.obj
 0001:0008f470       ?length@ZlibOutStream@rdr@@UAEHXZ 00490470 f   rdr:ZlibOutStream.obj
 0001:0008f4b0       ?overrun@ZlibOutStream@rdr@@EAEHHH@Z 004904b0 f   rdr:ZlibOutStream.obj
 0001:0008f6f0       ?setUnderlying@ZlibOutStream@rdr@@QAEXPAVOutStream@2@@Z 004906f0 f   rdr:ZlibOutStream.obj
 0001:0008f730       ?setptr@OutStream@rdr@@QAEXPAE@Z 00490730 f i rdr:ZlibOutStream.obj
 0001:0008f770       _crc32                     00490770 f   unz32lib:crc32.obj
 0001:0008f930       _UzpPassword@24            00490930 f   unz32lib:windll.obj
 0001:0008f990       _Wiz_NoPrinting@4          00490990 f   unz32lib:windll.obj
 0001:0008f9a0       _Wiz_Validate@8            004909a0 f   unz32lib:windll.obj
 0001:0008f9c0       _Wiz_Init@8                004909c0 f   unz32lib:windll.obj
 0001:0008fa50       _Wiz_SetOpts@8             00490a50 f   unz32lib:windll.obj
 0001:0008fcf0       _Wiz_Unzip@20              00490cf0 f   unz32lib:windll.obj
 0001:0008fe30       _Wiz_SingleEntryUnzip@24   00490e30 f   unz32lib:windll.obj
 0001:0008ff20       _Wiz_UnzipToMemory@16      00490f20 f   unz32lib:windll.obj
 0001:0008fff0       _Wiz_Grep@24               00490ff0 f   unz32lib:windll.obj
 0001:000902a0       _win_fprintf               004912a0 f   unz32lib:windll.obj
 0001:00090430       _get_crc_table             00491430 f   unz32lib:crctab.obj
 0001:000904e0       _UzpVersion@0              004914e0 f   unz32lib:api.obj
 0001:00090570       _UzpFreeMemBuffer@4        00491570 f   unz32lib:api.obj
 0001:000905b0       _UzpVersion2@4             004915b0 f   unz32lib:api.obj
 0001:00090660       _UzpValidate@8             00491660 f   unz32lib:api.obj
 0001:00090850       _setFileNotFound           00491850 f   unz32lib:api.obj
 0001:00090870       _unzipToMemory             00491870 f   unz32lib:api.obj
 0001:00090920       _redirect_outfile          00491920 f   unz32lib:api.obj
 0001:00090a60       _writeToMemory             00491a60 f   unz32lib:api.obj
 0001:00090af0       _close_redirect            00491af0 f   unz32lib:api.obj
 0001:00090b80       _globalsCtor               00491b80 f   unz32lib:globals.obj
 0001:00090c60       _process_zipfiles          00491c60 f   unz32lib:process.obj
 0001:00091370       _free_G_buffers            00492370 f   unz32lib:process.obj
 0001:000914d0       _uz_end_central            004924d0 f   unz32lib:process.obj
 0001:00091590       _process_cdir_file_hdr     00492590 f   unz32lib:process.obj
 0001:000917c0       _get_cdir_ent              004927c0 f   unz32lib:process.obj
 0001:00091a10       _process_local_file_hdr    00492a10 f   unz32lib:process.obj
 0001:00091be0       _ef_scan_for_izux          00492be0 f   unz32lib:process.obj
 0001:00093150       _UzpMessagePrnt@16         00494150 f   unz32lib:fileio.obj
 0001:000933f0       _UzpMessageNull@16         004943f0 f   unz32lib:fileio.obj
 0001:00093400       _UzpInput@16               00494400 f   unz32lib:fileio.obj
 0001:00093490       _plastchar                 00494490 f   unz32lib:fileio.obj
 0001:000934f0       _open_input_file           004944f0 f   unz32lib:fileio.obj
 0001:00093580       _open_outfile              00494580 f   unz32lib:fileio.obj
 0001:00093730       _undefer_input             00494730 f   unz32lib:fileio.obj
 0001:000937d0       _defer_leftover_input      004947d0 f   unz32lib:fileio.obj
 0001:00093880       _readbuf                   00494880 f   unz32lib:fileio.obj
 0001:000939e0       _readbyte                  004949e0 f   unz32lib:fileio.obj
 0001:00093bc0       _seek_zipf                 00494bc0 f   unz32lib:fileio.obj
 0001:00093d30       _flush                     00494d30 f   unz32lib:fileio.obj
 0001:000944b0       _dos_to_unix_time          004954b0 f   unz32lib:fileio.obj
 0001:000945a0       _check_for_newer           004955a0 f   unz32lib:fileio.obj
 0001:00094730       _do_string                 00495730 f   unz32lib:fileio.obj
 0001:00094e30       _makeword                  00495e30 f   unz32lib:fileio.obj
 0001:00094e60       _makelong                  00495e60 f   unz32lib:fileio.obj
 0001:000951b0       _zi_end_central            004961b0 f   unz32lib:zipinfo.obj
 0001:00095700       _zipinfo                   00496700 f   unz32lib:zipinfo.obj
 0001:0009a990       _list_files                0049b990 f   unz32lib:list.obj
 0001:0009b150       _get_time_stamp            0049c150 f   unz32lib:list.obj
 0001:0009b5c0       _ratio                     0049c5c0 f   unz32lib:list.obj
 0001:0009b680       _fnprint                   0049c680 f   unz32lib:list.obj
 0001:0009b770       _extract_or_test_files     0049c770 f   unz32lib:extract.obj
 0001:0009c4d0       _memextract                0049d4d0 f   unz32lib:extract.obj
 0001:0009c7c0       _memflush                  0049d7c0 f   unz32lib:extract.obj
 0001:0009c840       _extract_izvms_block       0049d840 f   unz32lib:extract.obj
 0001:0009c980       _fnfilter                  0049d980 f   unz32lib:extract.obj
 0001:0009fa60       _huft_free                 004a0a60 f   unz32lib:inflate.obj
 0001:0009faa0       _huft_build                004a0aa0 f   unz32lib:inflate.obj
 0001:000a0430       _inflate_free              004a1430 f   unz32lib:inflate.obj
 0001:000a0490       _inflate_codes             004a1490 f   unz32lib:inflate.obj
 0001:000a2230       _inflate_copy              004a3230 f   unz32lib:inflate.obj
 0001:000a2550       _IsWinNT                   004a3550 f   unz32lib:win32.obj
 0001:000a2590       _test_NTSD                 004a3590 f   unz32lib:win32.obj
 0001:000a25c0       _zstat_win32               004a35c0 f   unz32lib:win32.obj
 0001:000a27f0       _dateformat                004a37f0 f   unz32lib:win32.obj
 0001:000a2850       _dateseparator             004a3850 f   unz32lib:win32.obj
 0001:000a28a0       _mapattr                   004a38a0 f   unz32lib:win32.obj
 0001:000a28f0       _mapname                   004a38f0 f   unz32lib:win32.obj
 0001:000a33f0       _checkdir                  004a43f0 f   unz32lib:win32.obj
 0001:000a4200       _do_wild                   004a5200 f   unz32lib:win32.obj
 0001:000a4730       _SetFileSize               004a5730 f   unz32lib:win32.obj
 0001:000a47c0       _close_outfile             004a57c0 f   unz32lib:win32.obj
 0001:000a4ad0       _defer_dir_attribs         004a5ad0 f   unz32lib:win32.obj
 0001:000a4c10       _set_direc_attribs         004a5c10 f   unz32lib:win32.obj
 0001:000a4f40       _stamp_file                004a5f40 f   unz32lib:win32.obj
 0001:000a6140       _match                     004a7140 f   unz32lib:match.obj
 0001:000a6180       _iswild                    004a7180 f   unz32lib:match.obj
 0001:000a6810       _decrypt_byte              004a7810 f   unz32lib:crypt.obj
 0001:000a6850       _update_keys               004a7850 f   unz32lib:crypt.obj
 0001:000a6980       _init_keys                 004a7980 f   unz32lib:crypt.obj
 0001:000a69f0       _decrypt                   004a79f0 f   unz32lib:crypt.obj
 0001:000a6ee0       _explode                   004a7ee0 f   unz32lib:explode.obj
 0001:000a87b0       _unshrink                  004a97b0 f   unz32lib:unshrink.obj
 0001:000a8fc0       _SecuritySet               004a9fc0 f   unz32lib:nt.obj
 0001:000a9170       _GetVolumeCaps             004aa170 f   unz32lib:nt.obj
 0001:000a9620       _ValidateSecurity          004aa620 f   unz32lib:nt.obj
 0001:000a9a30       _encr_passwd               004aaa30 f   zip32:api.obj
 0001:000a9a70       _ZpVersion@4               004aaa70 f   zip32:api.obj
 0001:000a9b00       _ZpInit@4                  004aab00 f   zip32:api.obj
 0001:000a9b60       _ZpSetOptions@4            004aab60 f   zip32:api.obj
 0001:000a9c70       _ZpGetOptions@0            004aac70 f   zip32:api.obj
 0001:000a9ca0       _ZpArchive@12              004aaca0 f   zip32:api.obj
 0001:000aa8c0       _AllocMemory               004ab8c0 f   zip32:api.obj
 0001:000aa990       _zipmain                   004ab990 f   zip32:zip.obj
 0001:000ad300       _zipwarn                   004ae300 f   zip32:zip.obj
 0001:000ad350       _ziperr                    004ae350 f   zip32:zip.obj
 0001:000ad5b0       _error                     004ae5b0 f   zip32:zip.obj
 0001:000add80       _zmbschr                   004aed80 f   zip32:util.obj
 0001:000addc0       _zmbsrchr                  004aedc0 f   zip32:util.obj
 0001:000ade10       _lastchar                  004aee10 f   zip32:util.obj
 0001:000ade50       _isshexp                   004aee50 f   zip32:util.obj
 0001:000aded0       _shmatch                   004aeed0 f   zip32:util.obj
 0001:000adf10       _dosmatch                  004aef10 f   zip32:util.obj
 0001:000adff0       _init_upper                004aeff0 f   zip32:util.obj
 0001:000ae080       _namecmp                   004af080 f   zip32:util.obj
 0001:000ae0f0       _search                    004af0f0 f   zip32:util.obj
 0001:000ae170       _envargs                   004af170 f   zip32:util.obj
 0001:000ae430       _expand_args               004af430 f   zip32:util.obj
 0001:000aeaa0       _percent                   004afaa0 f   zip32:zipup.obj
 0001:000aeb10       _zipup                     004afb10 f   zip32:zipup.obj
 0001:000af530       _flush_outbuf              004b0530 f   zip32:zipup.obj
 0001:000af5a0       _seekable                  004b05a0 f   zip32:zipup.obj
 0001:000af5c0       _memcompress               004b05c0 f   zip32:zipup.obj
 0001:000afb40       _zsearch                   004b0b40 f   zip32:zipfile.obj
 0001:000afb90       _get_ef_ut_ztime           004b0b90 f   zip32:zipfile.obj
 0001:000afc00       _trash                     004b0c00 f   zip32:zipfile.obj
 0001:000aff00       _ziptyp                    004b0f00 f   zip32:zipfile.obj
 0001:000affe0       _readzipfile               004b0fe0 f   zip32:zipfile.obj
 0001:000b0170       _putlocal                  004b1170 f   zip32:zipfile.obj
 0001:000b0500       _putextended               004b1500 f   zip32:zipfile.obj
 0001:000b06b0       _putcentral                004b16b0 f   zip32:zipfile.obj
 0001:000b0c40       _putend                    004b1c40 f   zip32:zipfile.obj
 0001:000b0e50       _zipcopy                   004b1e50 f   zip32:zipfile.obj
 0001:000b3910       _getnam                    004b4910 f   zip32:fileio.obj
 0001:000b39d0       _fexpel                    004b49d0 f   zip32:fileio.obj
 0001:000b3a60       _last                      004b4a60 f   zip32:fileio.obj
 0001:000b3a90       _msname                    004b4a90 f   zip32:fileio.obj
 0001:000b3c40       _check_dup                 004b4c40 f   zip32:fileio.obj
 0001:000b3e50       _filter                    004b4e50 f   zip32:fileio.obj
 0001:000b4090       _newname                   004b5090 f   zip32:fileio.obj
 0001:000b45b0       _dos2unixtime              004b55b0 f   zip32:fileio.obj
 0001:000b4650       _dostime                   004b5650 f   zip32:fileio.obj
 0001:000b46b0       _unix2dostime              004b56b0 f   zip32:fileio.obj
 0001:000b4750       _issymlnk                  004b5750 f   zip32:fileio.obj
 0001:000b4760       _destroy                   004b5760 f   zip32:fileio.obj
 0001:000b4780       _replace                   004b5780 f   zip32:fileio.obj
 0001:000b4940       _getfileattr               004b5940 f   zip32:fileio.obj
 0001:000b4990       _setfileattr               004b5990 f   zip32:fileio.obj
 0001:000b49b0       _tempname                  004b59b0 f   zip32:fileio.obj
 0001:000b4a80       _fcopy                     004b5a80 f   zip32:fileio.obj
 0001:000b4c70       _wild                      004b5c70 f   zip32:win32zip.obj
 0001:000b4ea0       _in2ex                     004b5ea0 f   zip32:win32zip.obj
 0001:000b4ee0       _ex2in                     004b5ee0 f   zip32:win32zip.obj
 0001:000b51d0       _procname                  004b61d0 f   zip32:win32zip.obj
 0001:000b51f0       _filetime                  004b61f0 f   zip32:win32zip.obj
 0001:000b5450       _set_extra_field           004b6450 f   zip32:win32zip.obj
 0001:000b54a0       _deletedir                 004b64a0 f   zip32:win32zip.obj
 0001:000b63a0       _zstat_zipwin32            004b73a0 f   zip32:win32.obj
 0001:000b65d0       _stamp                     004b75d0 f   zip32:win32.obj
 0001:000b6680       _fseekable                 004b7680 f   zip32:win32.obj
 0001:000b66c0       _ZipIsWinNT                004b76c0 f   zip32:win32.obj
 0001:000b6740       _GetFileMode               004b7740 f   zip32:win32.obj
 0001:000b6810       _IsFileNameValid           004b7810 f   zip32:win32.obj
 0001:000b6870       _IsFileSystemOldFAT        004b7870 f   zip32:win32.obj
 0001:000b69d0       _ChangeNameForFAT          004b79d0 f   zip32:win32.obj
 0001:000b6c90       _getVolumeLabel            004b7c90 f   zip32:win32.obj
 0001:000b6d40       _GetLongPathEA             004b7d40 f   zip32:win32.obj
 0001:000b7120       _lm_init                   004b8120 f   zip32:deflate.obj
 0001:000b72f0       _lm_free                   004b82f0 f   zip32:deflate.obj
 0001:000b77e0       _longest_match2            004b87e0 f   zip32:deflate.obj
 0001:000b7aa0       _deflate_copy              004b8aa0 f   zip32:deflate.obj
 0001:000b7e70       _comment                   004b8e70 f   zip32:windll.obj
 0001:000b7fa0       _pperror                   004b8fa0 f   zip32:windll.obj
 0001:000b7fc0       _printff                   004b8fc0 f   zip32:windll.obj
 0001:000b8170       _DllMain@12                004b9170 f   zip32:windll.obj
 0001:000b81a0       _WEP@4                     004b91a0 f   zip32:windll.obj
 0001:000b81b0       _ct_init                   004b91b0 f   zip32:trees.obj
 0001:000b8510       _ct_tally                  004b9510 f   zip32:trees.obj
 0001:000b8710       _flush_block               004b9710 f   zip32:trees.obj
 0001:000b8970       _bi_init                   004b9970 f   zip32:trees.obj
 0001:000b9e80       _zp_decrypt_byte           004bae80 f   zip32:crypt.obj
 0001:000b9ec0       _zp_update_keys            004baec0 f   zip32:crypt.obj
 0001:000b9fb0       _zp_init_keys              004bafb0 f   zip32:crypt.obj
 0001:000ba010       _crypthead                 004bb010 f   zip32:crypt.obj
 0001:000ba190       _zfwrite                   004bb190 f   zip32:crypt.obj
 0001:000ba230       _SecurityGet               004bb230 f   zip32:nt.obj
 0001:000ba3b0       _ZipGetVolumeCaps          004bb3b0 f   zip32:nt.obj
 0001:000bab40       _uncompress                004bbb40 f   zlibstat:uncompr.obj
 0001:000bac20       _inflate                   004bbc20 f   zlibstat:inflate.obj
 0001:000bcd50       _inflateEnd                004bdd50 f   zlibstat:inflate.obj
 0001:000bcdd0       _inflateSetDictionary      004bddd0 f   zlibstat:inflate.obj
 0001:000bcf00       _inflateSync               004bdf00 f   zlibstat:inflate.obj
 0001:000bd090       _inflateCopy               004be090 f   zlibstat:inflate.obj
 0001:000bd250       _inflateReset              004be250 f   zlibstat:inflate.obj
 0001:000bd360       _inflateReset2             004be360 f   zlibstat:inflate.obj
 0001:000bd430       _inflatePrime              004be430 f   zlibstat:inflate.obj
 0001:000bd4d0       _inflateMark               004be4d0 f   zlibstat:inflate.obj
 0001:000bd550       _inflateGetHeader          004be550 f   zlibstat:inflate.obj
 0001:000bd5a0       _inflateInit_              004be5a0 f   zlibstat:inflate.obj
 0001:000bd5c0       _inflateInit2_             004be5c0 f   zlibstat:inflate.obj
 0001:000bd6d0       _inflateSyncPoint          004be6d0 f   zlibstat:inflate.obj
 0001:000bd720       _inflateUndermine          004be720 f   zlibstat:inflate.obj
 0001:000bd9f0       _compress                  004be9f0 f   zlibstat:compress.obj
 0001:000bda10       _compress2                 004bea10 f   zlibstat:compress.obj
 0001:000bdae0       _compressBound             004beae0 f   zlibstat:compress.obj
 0001:000bdb00       _adler32                   004beb00 f   zlibstat:adler32.obj
 0001:000be0a0       _adler32_combine           004bf0a0 f   zlibstat:adler32.obj
 0001:000be0c0       _adler32_combine64         004bf0c0 f   zlibstat:adler32.obj
 0001:000be1c0       _deflate                   004bf1c0 f   zlibstat:deflate.obj
 0001:000bf100       _deflateEnd                004c0100 f   zlibstat:deflate.obj
 0001:000bf250       _deflateSetDictionary      004c0250 f   zlibstat:deflate.obj
 0001:000bf420       _deflateCopy               004c0420 f   zlibstat:deflate.obj
 0001:000bf680       _deflateReset              004c0680 f   zlibstat:deflate.obj
 0001:000bf790       _deflateParams             004c0790 f   zlibstat:deflate.obj
 0001:000bf8c0       _deflateTune               004c08c0 f   zlibstat:deflate.obj
 0001:000bf920       _deflateBound              004c0920 f   zlibstat:deflate.obj
 0001:000bfab0       _deflatePrime              004c0ab0 f   zlibstat:deflate.obj
 0001:000bfb00       _deflateSetHeader          004c0b00 f   zlibstat:deflate.obj
 0001:000bfb40       _deflateInit_              004c0b40 f   zlibstat:deflate.obj
 0001:000bfb70       _deflateInit2_             004c0b70 f   zlibstat:deflate.obj
 0001:000c1e90       _zlibVersion               004c2e90 f   zlibstat:zutil.obj
 0001:000c1ea0       _zlibCompileFlags          004c2ea0 f   zlibstat:zutil.obj
 0001:000c1fb0       _zError                    004c2fb0 f   zlibstat:zutil.obj
 0001:000c1fd0       _zcalloc                   004c2fd0 f   zlibstat:zutil.obj
 0001:000c2000       _zcfree                    004c3000 f   zlibstat:zutil.obj
 0001:000c2020       _inflate_table             004c3020 f   zlibstat:inftrees.obj
 0001:000c2650       _inflate_fast              004c3650 f   zlibstat:inffast.obj
 0001:000c2dc0       __tr_init                  004c3dc0 f   zlibstat:trees.obj
 0001:000c2e60       __tr_tally                 004c3e60 f   zlibstat:trees.obj
 0001:000c2fa0       __tr_flush_block           004c3fa0 f   zlibstat:trees.obj
 0001:000c3370       __tr_align                 004c4370 f   zlibstat:trees.obj
 0001:000c3860       __tr_stored_block          004c4860 f   zlibstat:trees.obj
 0001:000c6220       _omni_thread_wrapper@4     004c7220 f   omnithread:nt.obj
 0001:000c6310       ??0omni_mutex@@QAE@XZ      004c7310 f   omnithread:nt.obj
 0001:000c6330       ??1omni_mutex@@QAE@XZ      004c7330 f   omnithread:nt.obj
 0001:000c6350       ?lock@omni_mutex@@QAEXXZ   004c7350 f   omnithread:nt.obj
 0001:000c6370       ?unlock@omni_mutex@@QAEXXZ 004c7370 f   omnithread:nt.obj
 0001:000c6390       ??0omni_condition@@QAE@PAVomni_mutex@@@Z 004c7390 f   omnithread:nt.obj
 0001:000c63d0       ??1omni_condition@@QAE@XZ  004c73d0 f   omnithread:nt.obj
 0001:000c63f0       ?wait@omni_condition@@QAEXXZ 004c73f0 f   omnithread:nt.obj
 0001:000c6520       ?timedwait@omni_condition@@QAEHKK@Z 004c7520 f   omnithread:nt.obj
 0001:000c67c0       ?signal@omni_condition@@QAEXXZ 004c77c0 f   omnithread:nt.obj
 0001:000c6880       ?broadcast@omni_condition@@QAEXXZ 004c7880 f   omnithread:nt.obj
 0001:000c6950       ??0omni_semaphore@@QAE@I@Z 004c7950 f   omnithread:nt.obj
 0001:000c69b0       ??1omni_semaphore@@QAE@XZ  004c79b0 f   omnithread:nt.obj
 0001:000c69f0       ?wait@omni_semaphore@@QAEXXZ 004c79f0 f   omnithread:nt.obj
 0001:000c6a40       ?trywait@omni_semaphore@@QAEHXZ 004c7a40 f   omnithread:nt.obj
 0001:000c6aa0       ?post@omni_semaphore@@QAEXXZ 004c7aa0 f   omnithread:nt.obj
 0001:000c6af0       ??0omni_thread@@QAE@P6AXPAX@Z0W4priority_t@0@@Z 004c7af0 f   omnithread:nt.obj
 0001:000c6b80       ??0omni_thread@@QAE@P6APAXPAX@Z0W4priority_t@0@@Z 004c7b80 f   omnithread:nt.obj
 0001:000c6c10       ?start@omni_thread@@QAEXXZ 004c7c10 f   omnithread:nt.obj
 0001:000c6d60       ??0omni_thread@@IAE@PAXW4priority_t@0@@Z 004c7d60 f   omnithread:nt.obj
 0001:000c6df0       ?start_undetached@omni_thread@@IAEXXZ 004c7df0 f   omnithread:nt.obj
 0001:000c6e40       ??1omni_thread@@MAE@XZ     004c7e40 f   omnithread:nt.obj
 0001:000c6f10       ?join@omni_thread@@QAEXPAPAX@Z 004c7f10 f   omnithread:nt.obj
 0001:000c7030       ?set_priority@omni_thread@@QAEXW4priority_t@1@@Z 004c8030 f   omnithread:nt.obj
 0001:000c7100       ?create@omni_thread@@SAPAV1@P6AXPAX@Z0W4priority_t@1@@Z 004c8100 f   omnithread:nt.obj
 0001:000c7190       ?create@omni_thread@@SAPAV1@P6APAXPAX@Z0W4priority_t@1@@Z 004c8190 f   omnithread:nt.obj
 0001:000c7220       ?exit@omni_thread@@SAXPAX@Z 004c8220 f   omnithread:nt.obj
 0001:000c72b0       ?self@omni_thread@@SAPAV1@XZ 004c82b0 f   omnithread:nt.obj
 0001:000c72d0       ?yield@omni_thread@@SAXXZ  004c82d0 f   omnithread:nt.obj
 0001:000c72e0       ?sleep@omni_thread@@SAXKK@Z 004c82e0 f   omnithread:nt.obj
 0001:000c7370       ?get_time@omni_thread@@SAXPAK0KK@Z 004c8370 f   omnithread:nt.obj
 0001:000c73c0       ?common_constructor@omni_thread@@AAEXPAXW4priority_t@1@H@Z 004c83c0 f   omnithread:nt.obj
 0001:000c7490       ??0init_t@omni_thread@@QAE@XZ 004c8490 f   omnithread:nt.obj
 0001:000c7690       ?nt_priority@omni_thread@@CAHW4priority_t@1@@Z 004c8690 f   omnithread:nt.obj
 0001:000c77b0       ??0_internal_omni_thread_dummy@@QAE@XZ 004c87b0 f i omnithread:nt.obj
 0001:000c77e0       ??0_internal_omni_thread_helper@@QAE@XZ 004c87e0 f i omnithread:nt.obj
 0001:000c78d0       ??0omni_thread_fatal@@QAE@H@Z 004c88d0 f i omnithread:nt.obj
 0001:000c78f0       ??1_internal_omni_thread_dummy@@UAE@XZ 004c88f0 f i omnithread:nt.obj
 0001:000c7910       ??1_internal_omni_thread_helper@@QAE@XZ 004c8910 f i omnithread:nt.obj
 0001:000c7960       ??B_internal_omni_thread_helper@@QAEPAVomni_thread@@XZ 004c8960 f i omnithread:nt.obj
 0001:000c7980       ??C_internal_omni_thread_helper@@QAEPAVomni_thread@@XZ 004c8980 f i omnithread:nt.obj
 0001:000c79a0       ??_G_internal_omni_thread_dummy@@UAEPAXI@Z 004c89a0 f i omnithread:nt.obj
 0001:000c79a0       ??_E_internal_omni_thread_dummy@@UAEPAXI@Z 004c89a0 f i omnithread:nt.obj
 0001:000c79d0       ??_Eomni_thread@@MAEPAXI@Z 004c89d0 f i omnithread:nt.obj
 0001:000c79d0       ??_Gomni_thread@@MAEPAXI@Z 004c89d0 f i omnithread:nt.obj
 0001:000c7a00       ?run_undetached@omni_thread@@EAEPAXPAX@Z 004c8a00 f i omnithread:nt.obj
 0001:000c7a10       ??0_Init_locks@std@@QAE@XZ 004c8a10 f   libcpmtd:xlock.obj
 0001:000c7a60       ??0_Lockit@std@@QAE@H@Z    004c8a60 f   libcpmtd:xlock.obj
 0001:000c7ab0       ??0_Lockit@std@@QAE@XZ     004c8ab0 f   libcpmtd:xlock.obj
 0001:000c7b00       ??1_Init_locks@std@@QAE@XZ 004c8b00 f   libcpmtd:xlock.obj
 0001:000c7b50       ??1_Lockit@std@@QAE@XZ     004c8b50 f   libcpmtd:xlock.obj
 0001:000c7b90       ?_Init_locks_ctor@_Init_locks@std@@CAXPAV12@@Z 004c8b90 f   libcpmtd:xlock.obj
 0001:000c7be0       ?_Init_locks_dtor@_Init_locks@std@@CAXPAV12@@Z 004c8be0 f   libcpmtd:xlock.obj
 0001:000c7c30       ?_Lockit_ctor@_Lockit@std@@CAXPAV12@@Z 004c8c30 f   libcpmtd:xlock.obj
 0001:000c7c50       ?_Lockit_ctor@_Lockit@std@@CAXPAV12@H@Z 004c8c50 f   libcpmtd:xlock.obj
 0001:000c7c90       ?_Lockit_ctor@_Lockit@std@@SAXH@Z 004c8c90 f   libcpmtd:xlock.obj
 0001:000c7cc0       ?_Lockit_dtor@_Lockit@std@@CAXPAV12@@Z 004c8cc0 f   libcpmtd:xlock.obj
 0001:000c7ce0       ?_Lockit_dtor@_Lockit@std@@SAXH@Z 004c8ce0 f   libcpmtd:xlock.obj
 0001:000c7d10       ?_Debug_message@std@@YAXPBG0I@Z 004c8d10 f   libcpmtd:stdthrow.obj
 0001:000c7d30       ?_Debug_message@std@@YAXPB_W0I@Z 004c8d30 f   libcpmtd:stdthrow.obj
 0001:000c7d60       ??0bad_alloc@std@@QAE@ABV01@@Z 004c8d60 f i libcpmtd:xthrow.obj
 0001:000c7d90       ??0bad_alloc@std@@QAE@XZ   004c8d90 f i libcpmtd:xthrow.obj
 0001:000c7dc0       ??0bad_function_call@std@@QAE@ABV01@@Z 004c8dc0 f i libcpmtd:xthrow.obj
 0001:000c7df0       ??0bad_function_call@std@@QAE@PBD@Z 004c8df0 f i libcpmtd:xthrow.obj
 0001:000c7e20       ??0invalid_argument@std@@QAE@ABV01@@Z 004c8e20 f i libcpmtd:xthrow.obj
 0001:000c7e50       ??0invalid_argument@std@@QAE@PBD@Z 004c8e50 f i libcpmtd:xthrow.obj
 0001:000c7e80       ??0length_error@std@@QAE@ABV01@@Z 004c8e80 f i libcpmtd:xthrow.obj
 0001:000c7eb0       ??0length_error@std@@QAE@PBD@Z 004c8eb0 f i libcpmtd:xthrow.obj
 0001:000c7ee0       ??0logic_error@std@@QAE@ABV01@@Z 004c8ee0 f i libcpmtd:xthrow.obj
 0001:000c7f10       ??0logic_error@std@@QAE@PBD@Z 004c8f10 f i libcpmtd:xthrow.obj
 0001:000c7f40       ??0out_of_range@std@@QAE@ABV01@@Z 004c8f40 f i libcpmtd:xthrow.obj
 0001:000c7f70       ??0out_of_range@std@@QAE@PBD@Z 004c8f70 f i libcpmtd:xthrow.obj
 0001:000c7fa0       ??0overflow_error@std@@QAE@ABV01@@Z 004c8fa0 f i libcpmtd:xthrow.obj
 0001:000c7fd0       ??0overflow_error@std@@QAE@PBD@Z 004c8fd0 f i libcpmtd:xthrow.obj
 0001:000c8000       ??0regex_error@std@@QAE@ABV01@@Z 004c9000 f i libcpmtd:xthrow.obj
 0001:000c8040       ??0regex_error@std@@QAE@W4error_type@regex_constants@1@@Z 004c9040 f i libcpmtd:xthrow.obj
 0001:000c8080       ??0runtime_error@std@@QAE@ABV01@@Z 004c9080 f i libcpmtd:xthrow.obj
 0001:000c80b0       ??0runtime_error@std@@QAE@PBD@Z 004c90b0 f i libcpmtd:xthrow.obj
 0001:000c80e0       ??1bad_alloc@std@@UAE@XZ   004c90e0 f i libcpmtd:xthrow.obj
 0001:000c8100       ??1bad_function_call@std@@UAE@XZ 004c9100 f i libcpmtd:xthrow.obj
 0001:000c8120       ??1invalid_argument@std@@UAE@XZ 004c9120 f i libcpmtd:xthrow.obj
 0001:000c8140       ??1length_error@std@@UAE@XZ 004c9140 f i libcpmtd:xthrow.obj
 0001:000c8160       ??1logic_error@std@@UAE@XZ 004c9160 f i libcpmtd:xthrow.obj
 0001:000c8180       ??1out_of_range@std@@UAE@XZ 004c9180 f i libcpmtd:xthrow.obj
 0001:000c81a0       ??1overflow_error@std@@UAE@XZ 004c91a0 f i libcpmtd:xthrow.obj
 0001:000c81c0       ??1regex_error@std@@UAE@XZ 004c91c0 f i libcpmtd:xthrow.obj
 0001:000c81e0       ??1runtime_error@std@@UAE@XZ 004c91e0 f i libcpmtd:xthrow.obj
 0001:000c8200       ??_Gbad_alloc@std@@UAEPAXI@Z 004c9200 f i libcpmtd:xthrow.obj
 0001:000c8200       ??_Ebad_alloc@std@@UAEPAXI@Z 004c9200 f i libcpmtd:xthrow.obj
 0001:000c8230       ??_Ebad_function_call@std@@UAEPAXI@Z 004c9230 f i libcpmtd:xthrow.obj
 0001:000c8230       ??_Gbad_function_call@std@@UAEPAXI@Z 004c9230 f i libcpmtd:xthrow.obj
 0001:000c8260       ??_Einvalid_argument@std@@UAEPAXI@Z 004c9260 f i libcpmtd:xthrow.obj
 0001:000c8260       ??_Ginvalid_argument@std@@UAEPAXI@Z 004c9260 f i libcpmtd:xthrow.obj
 0001:000c8290       ??_Glength_error@std@@UAEPAXI@Z 004c9290 f i libcpmtd:xthrow.obj
 0001:000c8290       ??_Elength_error@std@@UAEPAXI@Z 004c9290 f i libcpmtd:xthrow.obj
 0001:000c82c0       ??_Elogic_error@std@@UAEPAXI@Z 004c92c0 f i libcpmtd:xthrow.obj
 0001:000c82c0       ??_Glogic_error@std@@UAEPAXI@Z 004c92c0 f i libcpmtd:xthrow.obj
 0001:000c82f0       ??_Gout_of_range@std@@UAEPAXI@Z 004c92f0 f i libcpmtd:xthrow.obj
 0001:000c82f0       ??_Eout_of_range@std@@UAEPAXI@Z 004c92f0 f i libcpmtd:xthrow.obj
 0001:000c8320       ??_Eoverflow_error@std@@UAEPAXI@Z 004c9320 f i libcpmtd:xthrow.obj
 0001:000c8320       ??_Goverflow_error@std@@UAEPAXI@Z 004c9320 f i libcpmtd:xthrow.obj
 0001:000c8350       ??_Eregex_error@std@@UAEPAXI@Z 004c9350 f i libcpmtd:xthrow.obj
 0001:000c8350       ??_Gregex_error@std@@UAEPAXI@Z 004c9350 f i libcpmtd:xthrow.obj
 0001:000c8380       ??_Eruntime_error@std@@UAEPAXI@Z 004c9380 f i libcpmtd:xthrow.obj
 0001:000c8380       ??_Gruntime_error@std@@UAEPAXI@Z 004c9380 f i libcpmtd:xthrow.obj
 0001:000c83b0       ?_Stringify@regex_error@std@@CAPBDW4error_type@regex_constants@2@@Z 004c93b0 f i libcpmtd:xthrow.obj
 0001:000c8480       ?_Xbad_alloc@std@@YAXXZ    004c9480 f   libcpmtd:xthrow.obj
 0001:000c84a0       ?_Xbad_function_call@std@@YAXXZ 004c94a0 f   libcpmtd:xthrow.obj
 0001:000c84d0       ?_Xinvalid_argument@std@@YAXPBD@Z 004c94d0 f   libcpmtd:xthrow.obj
 0001:000c8500       ?_Xlength_error@std@@YAXPBD@Z 004c9500 f   libcpmtd:xthrow.obj
 0001:000c8530       ?_Xout_of_range@std@@YAXPBD@Z 004c9530 f   libcpmtd:xthrow.obj
 0001:000c8560       ?_Xoverflow_error@std@@YAXPBD@Z 004c9560 f   libcpmtd:xthrow.obj
 0001:000c8590       ?_Xregex_error@std@@YAXW4error_type@regex_constants@1@@Z 004c9590 f   libcpmtd:xthrow.obj
 0001:000c85c0       ?_Xruntime_error@std@@YAXPBD@Z 004c95c0 f   libcpmtd:xthrow.obj
 0001:000c85f0       ?what@bad_function_call@std@@UBEPBDXZ 004c95f0 f i libcpmtd:xthrow.obj
 0001:000c8600       ?_Syserror_map@std@@YAPBDH@Z 004c9600 f   libcpmtd:syserror.obj
 0001:000c8650       ?_Winerror_map@std@@YAPBDH@Z 004c9650 f   libcpmtd:syserror.obj
 0001:000c86a0       ??_U@YAPAXI@Z              004c96a0 f   libcpmtd:newaop.obj
 0001:000c86c0       __Mtxdst                   004c96c0 f   libcpmtd:xmtx.obj
 0001:000c86d0       __Mtxinit                  004c96d0 f   libcpmtd:xmtx.obj
 0001:000c86f0       __Mtxlock                  004c96f0 f   libcpmtd:xmtx.obj
 0001:000c8700       __Mtxunlock                004c9700 f   libcpmtd:xmtx.obj
 0001:000c8710       __Once                     004c9710 f   libcpmtd:xmtx.obj
 0001:000c8770       __get_purecall_handler     004c9770 f   LIBCMTD:purevirt.obj
 0001:000c8790       __purecall                 004c9790 f   LIBCMTD:purevirt.obj
 0001:000c87d0       __set_purecall_handler     004c97d0 f   LIBCMTD:purevirt.obj
 0001:000c8800       ??2@YAPAXI@Z               004c9800 f   LIBCMTD:new.obj
 0001:000c8850       ??3@YAXPAX@Z               004c9850 f   LIBCMTD:dbgdel.obj
 0001:000c8940       ___onexitinit              004c9940 f   LIBCMTD:onexit.obj
 0001:000c89a0       __onexit                   004c99a0 f   LIBCMTD:onexit.obj
 0001:000c8b60       _atexit                    004c9b60 f   LIBCMTD:onexit.obj
 0001:000c8b90       _memcpy                    004c9b90 f   LIBCMTD:memcpy.obj
 0001:000c91e0       _strlen                    004ca1e0 f   LIBCMTD:strlen.obj
 0001:000c9270       _memmove                   004ca270 f   LIBCMTD:memmove.obj
 0001:000c98c0       __cabs                     004ca8c0 f   LIBCMTD:hypot.obj
 0001:000c98f0       __hypot                    004ca8f0 f   LIBCMTD:hypot.obj
 0001:000c9c50       @__security_check_cookie@4 004cac50 f   LIBCMTD:secchk.obj
 0001:000c9c60       __CxxThrowException@8      004cac60 f   LIBCMTD:throw.obj
 0001:000c9e00       ?_CallCatchBlock2@@YAPAXPAUEHRegistrationNode@@PBU_s_FuncInfo@@PAXHK@Z 004cae00 f   LIBCMTD:_trnsctrl_.obj
 0001:000c9e70       ?_CallMemberFunction0@@YGXPAX0@Z 004cae70 f   LIBCMTD:_trnsctrl_.obj
 0001:000c9e80       ?_CallMemberFunction1@@YGXPAX00@Z 004cae80 f   LIBCMTD:_trnsctrl_.obj
 0001:000c9e90       ?_CallMemberFunction2@@YGXPAX00H@Z 004cae90 f   LIBCMTD:_trnsctrl_.obj
 0001:000c9ea0       ?_CallSETranslator@@YAHPAUEHExceptionRecord@@PAUEHRegistrationNode@@PAX2PBU_s_FuncInfo@@H1@Z 004caea0 f   LIBCMTD:_trnsctrl_.obj
 0001:000c9f90       ?_GetRangeOfTrysToCheck@@YAPBU_s_TryBlockMapEntry@@PBU_s_FuncInfo@@HHPAI1@Z 004caf90 f   LIBCMTD:_trnsctrl_.obj
 0001:000ca020       ?_JumpToContinuation@@YGXPAXPAUEHRegistrationNode@@@Z 004cb020 f   LIBCMTD:_trnsctrl_.obj
 0001:000ca060       ?_UnwindNestedFrames@@YGXPAUEHRegistrationNode@@PAUEHExceptionRecord@@@Z 004cb060 f   LIBCMTD:_trnsctrl_.obj
 0001:000ca0c0       __CreateFrameInfo          004cb0c0 f   LIBCMTD:_trnsctrl_.obj
 0001:000ca0f0       __FindAndUnlinkFrame       004cb0f0 f   LIBCMTD:_trnsctrl_.obj
 0001:000ca150       __IsExceptionObjectToBeDestroyed 004cb150 f   LIBCMTD:_trnsctrl_.obj
 0001:000ca180       ___CxxFrameHandler         004cb180 f   LIBCMTD:_trnsctrl_.obj
 0001:000ca1c0       ___CxxFrameHandler2        004cb1c0 f   LIBCMTD:_trnsctrl_.obj
 0001:000ca200       ___CxxFrameHandler3        004cb200 f   LIBCMTD:_trnsctrl_.obj
 0001:000ca240       ___CxxLongjmpUnwind@4      004cb240 f   LIBCMTD:_trnsctrl_.obj
 0001:000ca270       ??0type_info@@AAE@ABV0@@Z  004cb270 f   LIBCMTD:typinfo.obj
 0001:000ca290       ??1type_info@@UAE@XZ       004cb290 f   LIBCMTD:typinfo.obj
 0001:000ca2b0       ??4type_info@@AAEAAV0@ABV0@@Z 004cb2b0 f   LIBCMTD:typinfo.obj
 0001:000ca2c0       ??8type_info@@QBE_NABV0@@Z 004cb2c0 f   LIBCMTD:typinfo.obj
 0001:000ca300       ??9type_info@@QBE_NABV0@@Z 004cb300 f   LIBCMTD:typinfo.obj
 0001:000ca340       ??_Etype_info@@UAEPAXI@Z   004cb340 f i LIBCMTD:typinfo.obj
 0001:000ca340       ??_Gtype_info@@UAEPAXI@Z   004cb340 f i LIBCMTD:typinfo.obj
 0001:000ca370       ?_name_internal_method@type_info@@QBEPBDPAU__type_info_node@@@Z 004cb370 f   LIBCMTD:typinfo.obj
 0001:000ca390       ?_type_info_dtor_internal_method@type_info@@QAEXXZ 004cb390 f   LIBCMTD:typinfo.obj
 0001:000ca3b0       ?before@type_info@@QBE_NABV1@@Z 004cb3b0 f   LIBCMTD:typinfo.obj
 0001:000ca3f0       ?name@type_info@@QBEPBDPAU__type_info_node@@@Z 004cb3f0 f   LIBCMTD:typinfo.obj
 0001:000ca410       ?raw_name@type_info@@QBEPBDXZ 004cb410 f   LIBCMTD:typinfo.obj
 0001:000ca430       __fpmath                   004cb430 f   LIBCMTD:fpinit.obj
 0001:000ca450       ___setfflag                004cb450 f   LIBCMTD:fpinit.obj
 0001:000ca470       __cfltcvt_init             004cb470 f   LIBCMTD:fpinit.obj
 0001:000ca530       _strcpy_s                  004cb530 f   LIBCMTD:strcpy_s.obj
 0001:000ca830       _strcat_s                  004cb830 f   LIBCMTD:strcat_s.obj
 0001:000cac30       ___raise_securityfailure   004cbc30 f   LIBCMTD:gs_report.obj
 0001:000cac80       ___report_gsfailure        004cbc80 f   LIBCMTD:gs_report.obj
 0001:000cad90       ___report_rangecheckfailure 004cbd90 f   LIBCMTD:gs_report.obj
 0001:000cada0       ___report_securityfailure  004cbda0 f   LIBCMTD:gs_report.obj
 0001:000cae80       ___report_securityfailureEx 004cbe80 f   LIBCMTD:gs_report.obj
 0001:000cafb0       ?_invalid_parameter@@YAXPBG00II@Z 004cbfb0 f   LIBCMTD:invarg.obj
 0001:000cafe0       ?_invoke_watson@@YAXPBG00II@Z 004cbfe0 f   LIBCMTD:invarg.obj
 0001:000cb000       __call_reportfault         004cc000 f   LIBCMTD:invarg.obj
 0001:000cb160       __get_invalid_parameter_handler 004cc160 f   LIBCMTD:invarg.obj
 0001:000cb190       __initp_misc_invarg        004cc190 f   LIBCMTD:invarg.obj
 0001:000cb1a0       __invalid_parameter        004cc1a0 f   LIBCMTD:invarg.obj
 0001:000cb200       __invoke_watson            004cc200 f   LIBCMTD:invarg.obj
 0001:000cb240       __set_invalid_parameter_handler 004cc240 f   LIBCMTD:invarg.obj
 0001:000cb280       _memchr                    004cc280 f   LIBCMTD:memchr.obj
 0001:000cb4e0       _memcmp                    004cc4e0 f   LIBCMTD:memcmp.obj
 0001:000cbdb0       _memset                    004ccdb0 f   LIBCMTD:memset.obj
 0001:000cbe40       _strcpy                    004cce40 f   LIBCMTD:strcat.obj
 0001:000cbe50       _strcat                    004cce50 f   LIBCMTD:strcat.obj
 0001:000cbf40       _strcmp                    004ccf40 f   LIBCMTD:strcmp.obj
 0001:000cbfd0       ??0_LocaleUpdate@@QAE@PAUlocaleinfo_struct@@@Z 004ccfd0 f i LIBCMTD:stricmp.obj
 0001:000cc0b0       ??1_LocaleUpdate@@QAE@XZ   004cd0b0 f i LIBCMTD:stricmp.obj
 0001:000cc0e0       ?GetLocaleT@_LocaleUpdate@@QAEPAUlocaleinfo_struct@@XZ 004cd0e0 f i LIBCMTD:stricmp.obj
 0001:000cc0f0       ___ascii_stricmp           004cd0f0 f   LIBCMTD:stricmp.obj
 0001:000cc170       __stricmp                  004cd170 f   LIBCMTD:stricmp.obj
 0001:000cc2a0       __stricmp_l                004cd2a0 f   LIBCMTD:stricmp.obj
 0001:000cc480       _strncpy                   004cd480 f   LIBCMTD:strncpy.obj
 0001:000cc5b0       __abs64                    004cd5b0 f   LIBCMTD:abs.obj
 0001:000cc5f0       _abs                       004cd5f0 f   LIBCMTD:abs.obj
 0001:000cc720       __i64toa                   004cd720 f   LIBCMTD:xtoa.obj
 0001:000cc770       _itoa                      004cd770 f   LIBCMTD:xtoa.obj
 0001:000cc770       __itoa                     004cd770 f   LIBCMTD:xtoa.obj
 0001:000cc7b0       __ltoa                     004cd7b0 f   LIBCMTD:xtoa.obj
 0001:000cc7f0       __ui64toa                  004cd7f0 f   LIBCMTD:xtoa.obj
 0001:000cc810       __ultoa                    004cd810 f   LIBCMTD:xtoa.obj
 0001:000cc900       _free                      004cd900 f   LIBCMTD:dbgfree.obj
 0001:000cc920       __sscanf_l                 004cd920 f   LIBCMTD:sscanf.obj
 0001:000cc950       __sscanf_s_l               004cd950 f   LIBCMTD:sscanf.obj
 0001:000cc980       _sscanf                    004cd980 f   LIBCMTD:sscanf.obj
 0001:000cc9b0       _sscanf_s                  004cd9b0 f   LIBCMTD:sscanf.obj
 0001:000ccb70       _vsscanf                   004cdb70 f   LIBCMTD:sscanf.obj
 0001:000ccb90       _vsscanf_s                 004cdb90 f   LIBCMTD:sscanf.obj
 0001:000ccbb0       __snprintf                 004cdbb0 f   LIBCMTD:snprintf.obj
 0001:000ccd90       __snprintf_l               004cdd90 f   LIBCMTD:snprintf.obj
 0001:000ccdc0       __scprintf                 004cddc0 f   LIBCMTD:sprintf.obj
 0001:000ccde0       __scprintf_l               004cdde0 f   LIBCMTD:sprintf.obj
 0001:000cce10       __scprintf_p               004cde10 f   LIBCMTD:sprintf.obj
 0001:000cce30       __scprintf_p_l             004cde30 f   LIBCMTD:sprintf.obj
 0001:000cce60       __snprintf_s               004cde60 f   LIBCMTD:sprintf.obj
 0001:000cce90       __snprintf_s_l             004cde90 f   LIBCMTD:sprintf.obj
 0001:000ccec0       __sprintf_l                004cdec0 f   LIBCMTD:sprintf.obj
 0001:000ccef0       __sprintf_p                004cdef0 f   LIBCMTD:sprintf.obj
 0001:000ccf20       __sprintf_p_l              004cdf20 f   LIBCMTD:sprintf.obj
 0001:000ccf50       __sprintf_s_l              004cdf50 f   LIBCMTD:sprintf.obj
 0001:000ccf80       _sprintf                   004cdf80 f   LIBCMTD:sprintf.obj
 0001:000cd140       _sprintf_s                 004ce140 f   LIBCMTD:sprintf.obj
 0001:000cd170       ?_CrtDbgReportW@@YAHHPBGH00ZZ 004ce170 f   LIBCMTD:dbgrptw.obj
 0001:000cd1c0       __CrtDbgReportW            004ce1c0 f   LIBCMTD:dbgrptw.obj
 0001:000cd210       __CrtDbgReportWV           004ce210 f i LIBCMTD:dbgrptw.obj
 0001:000cd240       __CrtSetReportHookW2       004ce240 f   LIBCMTD:dbgrptw.obj
 0001:000cd590       ___crtMessageWindowW       004ce590 f   LIBCMTD:dbgrptw.obj
 0001:000cda40       __invoke_watson_if_error   004cea40 f i LIBCMTD:dbgrptw.obj
 0001:000cda70       __invoke_watson_if_oneof   004cea70 f i LIBCMTD:dbgrptw.obj
 0001:000cdab0       ??_V@YAXPAX@Z              004ceab0 f   LIBCMTD:delete2.obj
 0001:000cdad0       __time64                   004cead0 f   LIBCMTD:time64.obj
 0001:000cdb50       __alldiv                   004ceb50 f   LIBCMTD:lldiv.obj
 0001:000cdc00       __allmul                   004cec00 f   LIBCMTD:llmul.obj
 0001:000cdc40       __allrem                   004cec40 f   LIBCMTD:llrem.obj
 0001:000cdd00       __alloca_probe             004ced00 f   LIBCMTD:chkstk.obj
 0001:000cdd00       __chkstk                   004ced00 f   LIBCMTD:chkstk.obj
 0001:000cdd30       _strncat                   004ced30 f   LIBCMTD:strncat.obj
 0001:000cde70       _wcslen                    004cee70 f   LIBCMTD:wcslen.obj
 0001:000cdeb0       __wassert                  004ceeb0 f   LIBCMTD:wassert.obj
 0001:000ceaf0       _rand                      004cfaf0 f   LIBCMTD:rand.obj
 0001:000ceb30       _srand                     004cfb30 f   LIBCMTD:rand.obj
 0001:000ceb40       __allshl                   004cfb40 f   LIBCMTD:llshl.obj
 0001:000ceb60       __aullrem                  004cfb60 f   LIBCMTD:ullrem.obj
 0001:000cebe0       __aullshr                  004cfbe0 f   LIBCMTD:ullshr.obj
 0001:000cec00       _strncmp                   004cfc00 f   LIBCMTD:strncmp.obj
 0001:000cec80       _strrchr                   004cfc80 f   LIBCMTD:strrchr.obj
 0001:000cf2c0       __strtol_l                 004d02c0 f   LIBCMTD:strtol.obj
 0001:000cf2e0       __strtoul_l                004d02e0 f   LIBCMTD:strtol.obj
 0001:000cf300       _strtol                    004d0300 f   LIBCMTD:strtol.obj
 0001:000cf350       _strtoul                   004d0350 f   LIBCMTD:strtol.obj
 0001:000cf3a0       __CrtDbgReport             004d03a0 f   LIBCMTD:dbgrpt.obj
 0001:000cf3f0       __CrtDbgReportV            004d03f0 f i LIBCMTD:dbgrpt.obj
 0001:000cf420       __CrtSetReportHook2        004d0420 f   LIBCMTD:dbgrpt.obj
 0001:000cf770       ___crtMessageWindowA       004d0770 f   LIBCMTD:dbgrpt.obj
 0001:000cfc20       __strnicmp                 004d0c20 f   LIBCMTD:strnicmp.obj
 0001:000cfdf0       __strnicmp_l               004d0df0 f   LIBCMTD:strnicmp.obj
 0001:000d0080       _strncpy_s                 004d1080 f   LIBCMTD:strncpy_s.obj
 0001:000d04a0       __atoi64                   004d14a0 f   LIBCMTD:atox.obj
 0001:000d04c0       __atoi64_l                 004d14c0 f   LIBCMTD:atox.obj
 0001:000d04e0       __atoi_l                   004d14e0 f   LIBCMTD:atox.obj
 0001:000d0500       __atol_l                   004d1500 f   LIBCMTD:atox.obj
 0001:000d0520       __atoll_l                  004d1520 f   LIBCMTD:atox.obj
 0001:000d0540       _atoi                      004d1540 f   LIBCMTD:atox.obj
 0001:000d0560       _atol                      004d1560 f   LIBCMTD:atox.obj
 0001:000d0580       _atoll                     004d1580 f   LIBCMTD:atox.obj
 0001:000d05a0       __strdate                  004d15a0 f   LIBCMTD:strdate.obj
 0001:000d05d0       __strdate_s                004d15d0 f   LIBCMTD:strdate.obj
 0001:000d0840       __strtime                  004d1840 f   LIBCMTD:strtime.obj
 0001:000d0870       __strtime_s                004d1870 f   LIBCMTD:strtime.obj
 0001:000d0ae0       ___tzset                   004d1ae0 f   LIBCMTD:tzset.obj
 0001:000d0b70       __isindst                  004d1b70 f   LIBCMTD:tzset.obj
 0001:000d0f50       __set_daylight             004d1f50 f i LIBCMTD:tzset.obj
 0001:000d0f60       __set_dstbias              004d1f60 f i LIBCMTD:tzset.obj
 0001:000d0f70       __set_timezone             004d1f70 f i LIBCMTD:tzset.obj
 0001:000d0f80       __tzset                    004d1f80 f   LIBCMTD:tzset.obj
 0001:000d0f80       _tzset                     004d1f80 f   LIBCMTD:tzset.obj
 0001:000d1870       __mbschr                   004d2870 f   LIBCMTD:mbschr.obj
 0001:000d1890       __mbschr_l                 004d2890 f   LIBCMTD:mbschr.obj
 0001:000d1a30       __mbsrchr                  004d2a30 f   LIBCMTD:mbsrchr.obj
 0001:000d1a50       __mbsrchr_l                004d2a50 f   LIBCMTD:mbsrchr.obj
 0001:000d1bd0       __aulldiv                  004d2bd0 f   LIBCMTD:ulldiv.obj
 0001:000d1c40       __ftoui3                   004d2c40 f   LIBCMTD:ftol3.obj
 0001:000d1c4f       __ftoul3                   004d2c4f f   LIBCMTD:ftol3.obj
 0001:000d1c5e       __ftol3                    004d2c5e f   LIBCMTD:ftol3.obj
 0001:000d1c6b       __ftol3_NaN                004d2c6b f   LIBCMTD:ftol3.obj
 0001:000d1c83       __ftol3_work               004d2c83 f   LIBCMTD:ftol3.obj
 0001:000d1d09       __ftol3_common             004d2d09 f   LIBCMTD:ftol3.obj
 0001:000d1dcb       __ftol3_arg_error          004d2dcb f   LIBCMTD:ftol3.obj
 0001:000d1ddd       __ftol3_except             004d2ddd f   LIBCMTD:ftol3.obj
 0001:000d1e21       __dtoui3                   004d2e21 f   LIBCMTD:ftol3.obj
 0001:000d1e30       __dtoul3                   004d2e30 f   LIBCMTD:ftol3.obj
 0001:000d1e3f       __dtol3                    004d2e3f f   LIBCMTD:ftol3.obj
 0001:000d1e4c       __dtol3_NaN                004d2e4c f   LIBCMTD:ftol3.obj
 0001:000d1e69       __dtol3_work               004d2e69 f   LIBCMTD:ftol3.obj
 0001:000d1f4e       __ultod3                   004d2f4e f   LIBCMTD:ftol3.obj
 0001:000d1fdf       __ltod3                    004d2fdf f   LIBCMTD:ftol3.obj
 0001:000d2010       ___initstdio               004d3010 f   LIBCMTD:_file.obj
 0001:000d20e0       ___endstdio                004d30e0 f   LIBCMTD:_file.obj
 0001:000d2120       ___iob_func                004d3120 f   LIBCMTD:_file.obj
 0001:000d2130       __lock_file                004d3130 f   LIBCMTD:_file.obj
 0001:000d2190       __lock_file2               004d3190 f   LIBCMTD:_file.obj
 0001:000d21d0       __unlock_file              004d31d0 f   LIBCMTD:_file.obj
 0001:000d2230       __unlock_file2             004d3230 f   LIBCMTD:_file.obj
 0001:000d2270       __fclose_nolock            004d3270 f   LIBCMTD:fclose.obj
 0001:000d2380       _fclose                    004d3380 f   LIBCMTD:fclose.obj
 0001:000d24a0       _fdopen                    004d34a0 f   LIBCMTD:fdopen.obj
 0001:000d24a0       __fdopen                   004d34a0 f   LIBCMTD:fdopen.obj
 0001:000d2a30       __fflush_nolock            004d3a30 f   LIBCMTD:fflush.obj
 0001:000d2aa0       __flush                    004d3aa0 f   LIBCMTD:fflush.obj
 0001:000d2b60       __flushall                 004d3b60 f   LIBCMTD:fflush.obj
 0001:000d2b70       _fflush                    004d3b70 f   LIBCMTD:fflush.obj
 0001:000d2db0       __get_printf_count_output  004d3db0 f   LIBCMTD:printf.obj
 0001:000d2de0       __printf_l                 004d3de0 f   LIBCMTD:printf.obj
 0001:000d2e10       __printf_p                 004d3e10 f   LIBCMTD:printf.obj
 0001:000d2e30       __printf_p_l               004d3e30 f   LIBCMTD:printf.obj
 0001:000d2e60       __printf_s_l               004d3e60 f   LIBCMTD:printf.obj
 0001:000d2e90       __set_printf_count_output  004d3e90 f   LIBCMTD:printf.obj
 0001:000d2ef0       _printf                    004d3ef0 f   LIBCMTD:printf.obj
 0001:000d3070       _printf_s                  004d4070 f   LIBCMTD:printf.obj
 0001:000d3090       __vsnprintf                004d4090 f   LIBCMTD:vsnprint.obj
 0001:000d30b0       __vsnprintf_l              004d40b0 f   LIBCMTD:vsnprint.obj
 0001:000d3290       __dup2                     004d4290 f   LIBCMTD:dup2.obj
 0001:000d3870       ___lock_fhandle            004d4870 f   LIBCMTD:osfinfo.obj
 0001:000d3960       __alloc_osfhnd             004d4960 f   LIBCMTD:osfinfo.obj
 0001:000d3c00       __free_osfhnd              004d4c00 f   LIBCMTD:osfinfo.obj
 0001:000d3cf0       __get_osfhandle            004d4cf0 f   LIBCMTD:osfinfo.obj
 0001:000d3e70       __open_osfhandle           004d4e70 f   LIBCMTD:osfinfo.obj
 0001:000d40a0       __set_osfhnd               004d50a0 f   LIBCMTD:osfinfo.obj
 0001:000d4170       __unlock_fhandle           004d5170 f   LIBCMTD:osfinfo.obj
 0001:000d41a0       _strchr                    004d51a0 f   LIBCMTD:strchr.obj
 0001:000d420e       ___from_strstr_to_strchr   004d520e     LIBCMTD:strchr.obj
 0001:000d42d0       __toupper                  004d52d0 f   LIBCMTD:toupper.obj
 0001:000d42e0       __toupper_l                004d52e0 f   LIBCMTD:toupper.obj
 0001:000d4520       _toupper                   004d5520 f   LIBCMTD:toupper.obj
 0001:000d4570       _strtok                    004d5570 f   LIBCMTD:strtok.obj
 0001:000d46d0       _strstr                    004d56d0 f   LIBCMTD:strstr.obj
 0001:000d4940       _malloc                    004d5940 f   LIBCMTD:dbgmalloc.obj
 0001:000d4970       ___copy_path_to_wide_string 004d5970 f   LIBCMTD:crt0dat.obj
 0001:000d4b60       ___copy_to_char            004d5b60 f   LIBCMTD:crt0dat.obj
 0001:000d4d50       ___crtCorExitProcess       004d5d50 f   LIBCMTD:crt0dat.obj
 0001:000d4d90       ___crtExitProcess          004d5d90 f   LIBCMTD:crt0dat.obj
 0001:000d4db0       ___freeCrtMemory           004d5db0 f   LIBCMTD:crt0dat.obj
 0001:000d4f80       __amsg_exit                004d5f80 f   LIBCMTD:crt0dat.obj
 0001:000d4fa0       __c_exit                   004d5fa0 f   LIBCMTD:crt0dat.obj
 0001:000d4fc0       __cexit                    004d5fc0 f   LIBCMTD:crt0dat.obj
 0001:000d4fe0       __cinit                    004d5fe0 f   LIBCMTD:crt0dat.obj
 0001:000d5080       __exit                     004d6080 f   LIBCMTD:crt0dat.obj
 0001:000d50a0       __exit_app                 004d60a0 f   LIBCMTD:crt0dat.obj
 0001:000d50c0       __get_pgmptr               004d60c0 f   LIBCMTD:crt0dat.obj
 0001:000d51e0       __get_wpgmptr              004d61e0 f   LIBCMTD:crt0dat.obj
 0001:000d5300       __init_pointers            004d6300 f   LIBCMTD:crt0dat.obj
 0001:000d5390       __initterm_e               004d6390 f   LIBCMTD:crt0dat.obj
 0001:000d53d0       __lockexit                 004d63d0 f   LIBCMTD:crt0dat.obj
 0001:000d53e0       __unlockexit               004d63e0 f   LIBCMTD:crt0dat.obj
 0001:000d55e0       _exit                      004d65e0 f   LIBCMTD:crt0dat.obj
 0001:000d5600       __dupenv_s                 004d6600 f   LIBCMTD:getenv.obj
 0001:000d5620       __dupenv_s_dbg             004d6620 f   LIBCMTD:getenv.obj
 0001:000d58a0       __getenv_helper_nolock     004d68a0 f   LIBCMTD:getenv.obj
 0001:000d5b70       _getenv                    004d6b70 f   LIBCMTD:getenv.obj
 0001:000d5d00       _getenv_s                  004d6d00 f   LIBCMTD:getenv.obj
 0001:000d5da0       __fullpath                 004d6da0 f   LIBCMTD:fullpath.obj
 0001:000d5dc0       __fullpath_dbg             004d6dc0 f   LIBCMTD:fullpath.obj
 0001:000d5f90       __access                   004d6f90 f   LIBCMTD:access.obj
 0001:000d5fd0       __access_s                 004d6fd0 f   LIBCMTD:access.obj
 0001:000d6030       __stat64i32                004d7030 f   LIBCMTD:stati32.obj
 0001:000d6090       __mkdir                    004d7090 f   LIBCMTD:mkdir.obj
 0001:000d60e0       _setbuf                    004d70e0 f   LIBCMTD:setbuf.obj
 0001:000d6140       __fprintf_l                004d7140 f   LIBCMTD:fprintf.obj
 0001:000d6170       __fprintf_p                004d7170 f   LIBCMTD:fprintf.obj
 0001:000d61a0       __fprintf_p_l              004d71a0 f   LIBCMTD:fprintf.obj
 0001:000d61d0       __fprintf_s_l              004d71d0 f   LIBCMTD:fprintf.obj
 0001:000d6200       _fprintf                   004d7200 f   LIBCMTD:fprintf.obj
 0001:000d64d0       _fprintf_s                 004d74d0 f   LIBCMTD:fprintf.obj
 0001:000d6500       _WinMainCRTStartup         004d7500 f   LIBCMTD:wincrt0.obj
 0001:000d6770       __get_sys_err_msg          004d7770 f i LIBCMTD:strerror.obj
 0001:000d67b0       _strerror                  004d77b0 f   LIBCMTD:strerror.obj
 0001:000d6860       _strerror_s                004d7860 f   LIBCMTD:strerror.obj
 0001:000d69b0       __ftime64                  004d79b0 f   LIBCMTD:ftime64.obj
 0001:000d69d0       __ftime64_s                004d79d0 f   LIBCMTD:ftime64.obj
 0001:000d6c00       @_RTC_AllocaHelper@12      004d7c00 f   LIBCMTD:stack.obj
 0001:000d6c40       @_RTC_CheckStackVars2@12   004d7c40 f   LIBCMTD:stack.obj
 0001:000d6d20       @_RTC_CheckStackVars@8     004d7d20 f   LIBCMTD:stack.obj
 0001:000d6d80       __RTC_CheckEsp             004d7d80 f   LIBCMTD:stack.obj
 0001:000d6db0       __RTC_InitBase             004d7db0 f   LIBCMTD:init.obj
 0001:000d6de0       __RTC_Shutdown             004d7de0 f   LIBCMTD:init.obj
 0001:000d6e00       ___isascii                 004d7e00 f i LIBCMTD:_ctype.obj
 0001:000d6e30       ___iscsym                  004d7e30 f i LIBCMTD:_ctype.obj
 0001:000d6e70       ___iscsymf                 004d7e70 f i LIBCMTD:_ctype.obj
 0001:000d6eb0       ___toascii                 004d7eb0 f i LIBCMTD:_ctype.obj
 0001:000d6ec0       __isalnum_l                004d7ec0 f i LIBCMTD:_ctype.obj
 0001:000d6f40       __isalpha_l                004d7f40 f i LIBCMTD:_ctype.obj
 0001:000d6fc0       __isblank_l                004d7fc0 f i LIBCMTD:_ctype.obj
 0001:000d7050       __iscntrl_l                004d8050 f i LIBCMTD:_ctype.obj
 0001:000d70d0       __iscsym_l                 004d80d0 f i LIBCMTD:_ctype.obj
 0001:000d7110       __iscsymf_l                004d8110 f i LIBCMTD:_ctype.obj
 0001:000d7150       __isdigit_l                004d8150 f i LIBCMTD:_ctype.obj
 0001:000d71d0       __isgraph_l                004d81d0 f i LIBCMTD:_ctype.obj
 0001:000d7250       __islower_l                004d8250 f i LIBCMTD:_ctype.obj
 0001:000d72d0       __isprint_l                004d82d0 f i LIBCMTD:_ctype.obj
 0001:000d7350       __ispunct_l                004d8350 f i LIBCMTD:_ctype.obj
 0001:000d73d0       __isspace_l                004d83d0 f i LIBCMTD:_ctype.obj
 0001:000d7450       __isupper_l                004d8450 f i LIBCMTD:_ctype.obj
 0001:000d74d0       __isxdigit_l               004d84d0 f i LIBCMTD:_ctype.obj
 0001:000d7550       _isalnum                   004d8550 f i LIBCMTD:_ctype.obj
 0001:000d7590       _isalpha                   004d8590 f i LIBCMTD:_ctype.obj
 0001:000d75d0       _isblank                   004d85d0 f i LIBCMTD:_ctype.obj
 0001:000d7620       _iscntrl                   004d8620 f i LIBCMTD:_ctype.obj
 0001:000d7650       _isdigit                   004d8650 f i LIBCMTD:_ctype.obj
 0001:000d7680       _isgraph                   004d8680 f i LIBCMTD:_ctype.obj
 0001:000d76c0       _islower                   004d86c0 f i LIBCMTD:_ctype.obj
 0001:000d76f0       _isprint                   004d86f0 f i LIBCMTD:_ctype.obj
 0001:000d7730       _ispunct                   004d8730 f i LIBCMTD:_ctype.obj
 0001:000d7760       _isspace                   004d8760 f i LIBCMTD:_ctype.obj
 0001:000d7790       _isupper                   004d8790 f i LIBCMTD:_ctype.obj
 0001:000d77c0       _isxdigit                  004d87c0 f i LIBCMTD:_ctype.obj
 0001:000d7800       __fileno                   004d8800 f   LIBCMTD:fileno.obj
 0001:000d7800       _fileno                    004d8800 f   LIBCMTD:fileno.obj
 0001:000d7890       __write                    004d8890 f   LIBCMTD:write.obj
 0001:000d7ae0       __write_nolock             004d8ae0 f   LIBCMTD:write.obj
 0001:000d8890       _setlocale                 004d9890 f   LIBCMTD:setlocal.obj
 0001:000d8c20       __setjmp3                  004d9c20 f   LIBCMTD:setjmp3.obj
 0001:000d8ca0       _realloc                   004d9ca0 f   LIBCMTD:dbgrealloc.obj
 0001:000d8cd0       _putenv                    004d9cd0 f   LIBCMTD:putenv.obj
 0001:000d8cd0       __putenv                   004d9cd0 f   LIBCMTD:putenv.obj
 0001:000d9320       __putenv_s                 004da320 f   LIBCMTD:putenv.obj
 0001:000d9440       __close                    004da440 f   LIBCMTD:close.obj
 0001:000d9440       _close                     004da440 f   LIBCMTD:close.obj
 0001:000d9680       __close_nolock             004da680 f   LIBCMTD:close.obj
 0001:000d9760       __lseek                    004da760 f   LIBCMTD:lseek.obj
 0001:000d99b0       __lseek_nolock             004da9b0 f   LIBCMTD:lseek.obj
 0001:000d9af0       _read                      004daaf0 f   LIBCMTD:read.obj
 0001:000d9af0       __read                     004daaf0 f   LIBCMTD:read.obj
 0001:000d9dc0       __read_nolock              004dadc0 f   LIBCMTD:read.obj
 0001:000db000       __tolower                  004dc000 f   LIBCMTD:tolower.obj
 0001:000db010       __tolower_l                004dc010 f   LIBCMTD:tolower.obj
 0001:000db250       _tolower                   004dc250 f   LIBCMTD:tolower.obj
 0001:000db2a0       ____lc_codepage_func       004dc2a0 f   LIBCMTD:initctyp.obj
 0001:000db2f0       ____lc_collate_cp_func     004dc2f0 f   LIBCMTD:initctyp.obj
 0001:000db340       ____lc_locale_name_func    004dc340 f   LIBCMTD:initctyp.obj
 0001:000db390       ____mb_cur_max_func        004dc390 f   LIBCMTD:initctyp.obj
 0001:000db3e0       ____mb_cur_max_l_func      004dc3e0 f   LIBCMTD:initctyp.obj
 0001:000db410       ___init_ctype              004dc410 f   LIBCMTD:initctyp.obj
 0001:000dba50       ___doserrno                004dca50 f   LIBCMTD:dosmap.obj
 0001:000dba80       __dosmaperr                004dca80 f   LIBCMTD:dosmap.obj
 0001:000dbab0       __errno                    004dcab0 f   LIBCMTD:dosmap.obj
 0001:000dbae0       __get_doserrno             004dcae0 f   LIBCMTD:dosmap.obj
 0001:000dbb70       __get_errno                004dcb70 f   LIBCMTD:dosmap.obj
 0001:000dbc00       __get_errno_from_oserr     004dcc00 f   LIBCMTD:dosmap.obj
 0001:000dbc80       __set_doserrno             004dcc80 f   LIBCMTD:dosmap.obj
 0001:000dbcb0       __set_errno                004dccb0 f   LIBCMTD:dosmap.obj
 0001:000dbce0       __mblen_l                  004dcce0 f   LIBCMTD:mblen.obj
 0001:000dbe60       _mblen                     004dce60 f   LIBCMTD:mblen.obj
 0001:000dbea0       __fsopen                   004dcea0 f   LIBCMTD:fopen.obj
 0001:000dc0f0       _fopen                     004dd0f0 f   LIBCMTD:fopen.obj
 0001:000dc110       _fopen_s                   004dd110 f   LIBCMTD:fopen.obj
 0001:000dc1d0       _fputc                     004dd1d0 f   LIBCMTD:fputc.obj
 0001:000dc440       _putc                      004dd440 f   LIBCMTD:fputc.obj
 0001:000dc6b0       _unlink                    004dd6b0 f   LIBCMTD:unlink.obj
 0001:000dc6b0       __unlink                   004dd6b0 f   LIBCMTD:unlink.obj
 0001:000dc6d0       _remove                    004dd6d0 f   LIBCMTD:unlink.obj
 0001:000dc720       __chmod                    004dd720 f   LIBCMTD:chmod.obj
 0001:000dc720       _chmod                     004dd720 f   LIBCMTD:chmod.obj
 0001:000dc780       _isatty                    004dd780 f   LIBCMTD:isatty.obj
 0001:000dc780       __isatty                   004dd780 f   LIBCMTD:isatty.obj
 0001:000dc840       __open                     004dd840 f   LIBCMTD:open.obj
 0001:000dc9e0       __sopen                    004dd9e0 f   LIBCMTD:open.obj
 0001:000dca50       __sopen_helper             004dda50 f   LIBCMTD:open.obj
 0001:000dccf0       __sopen_nolock             004ddcf0 f   LIBCMTD:open.obj
 0001:000dcd60       __sopen_s                  004ddd60 f   LIBCMTD:open.obj
 0001:000dcd90       __localtime64              004ddd90 f   LIBCMTD:loctim64.obj
 0001:000dcdd0       __localtime64_s            004dddd0 f   LIBCMTD:loctim64.obj
 0001:000dd7a0       __mkgmtime64               004de7a0 f   LIBCMTD:mktime64.obj
 0001:000dd7c0       __mktime64                 004de7c0 f   LIBCMTD:mktime64.obj
 0001:000dd7e0       _longjmp                   004de7e0 f   LIBCMTD:longjmp.obj
 0001:000dd8a0       __gmtime64                 004de8a0 f   LIBCMTD:gmtime64.obj
 0001:000dd8e0       __gmtime64_s               004de8e0 f   LIBCMTD:gmtime64.obj
 0001:000ddd00       _qsort                     004ded00 f   LIBCMTD:qsort.obj
 0001:000de380       _fgets                     004df380 f   LIBCMTD:fgets.obj
 0001:000de750       __get_fmode                004df750 f   LIBCMTD:setmode.obj
 0001:000de7f0       __set_fmode                004df7f0 f   LIBCMTD:setmode.obj
 0001:000de8a0       _setmode                   004df8a0 f   LIBCMTD:setmode.obj
 0001:000de8a0       __setmode                  004df8a0 f   LIBCMTD:setmode.obj
 0001:000deb60       __setmode_nolock           004dfb60 f   LIBCMTD:setmode.obj
 0001:000dedd0       __mbsinc                   004dfdd0 f   LIBCMTD:mbsinc.obj
 0001:000dee90       __mbsinc_l                 004dfe90 f   LIBCMTD:mbsinc.obj
 0001:000df360       __MallocaIsSizeInRange     004e0360 f i LIBCMTD:strupr.obj
 0001:000df390       __MarkAllocaS              004e0390 f i LIBCMTD:strupr.obj
 0001:000df3b0       __freea                    004e03b0 f i LIBCMTD:strupr.obj
 0001:000df3f0       _strupr                    004e03f0 f   LIBCMTD:strupr.obj
 0001:000df3f0       __strupr                   004e03f0 f   LIBCMTD:strupr.obj
 0001:000df4e0       __strupr_l                 004e04e0 f   LIBCMTD:strupr.obj
 0001:000df500       __strupr_s                 004e0500 f   LIBCMTD:strupr.obj
 0001:000df520       __strupr_s_l               004e0520 f   LIBCMTD:strupr.obj
 0001:000df560       __getcwd                   004e0560 f   LIBCMTD:getcwd.obj
 0001:000df580       __getcwd_dbg               004e0580 f   LIBCMTD:getcwd.obj
 0001:000df5b0       __getdcwd                  004e05b0 f   LIBCMTD:getcwd.obj
 0001:000df5d0       __getdcwd_dbg              004e05d0 f   LIBCMTD:getcwd.obj
 0001:000df8b0       __validdrive               004e08b0 f   LIBCMTD:getcwd.obj
 0001:000df9f0       __chdir                    004e09f0 f   LIBCMTD:chdir.obj
 0001:000dfcb0       _perror                    004e0cb0 f   LIBCMTD:perror.obj
 0001:000dfdb0       _feof                      004e0db0 f   LIBCMTD:feoferr.obj
 0001:000dfe40       _ferror                    004e0e40 f   LIBCMTD:feoferr.obj
 0001:000dfed0       __fseek_nolock             004e0ed0 f   LIBCMTD:fseek.obj
 0001:000dffc0       _fseek                     004e0fc0 f   LIBCMTD:fseek.obj
 0001:000e0150       _setvbuf                   004e1150 f   LIBCMTD:setvbuf.obj
 0001:000e0450       _clearerr                  004e1450 f   LIBCMTD:clearerr.obj
 0001:000e0470       _clearerr_s                004e1470 f   LIBCMTD:clearerr.obj
 0001:000e05e0       __ftell_nolock             004e15e0 f   LIBCMTD:ftell.obj
 0001:000e0ca0       _ftell                     004e1ca0 f   LIBCMTD:ftell.obj
 0001:000e0da0       __fread_nolock             004e1da0 f   LIBCMTD:fread.obj
 0001:000e0dc0       __fread_nolock_s           004e1dc0 f   LIBCMTD:fread.obj
 0001:000e13f0       _fread                     004e23f0 f   LIBCMTD:fread.obj
 0001:000e1410       _fread_s                   004e2410 f   LIBCMTD:fread.obj
 0001:000e1560       __fwrite_nolock            004e2560 f   LIBCMTD:fwrite.obj
 0001:000e1970       _fwrite                    004e2970 f   LIBCMTD:fwrite.obj
 0001:000e1a90       __getc_nolock              004e2a90 f   LIBCMTD:fgetc.obj
 0001:000e1af0       _fgetc                     004e2af0 f   LIBCMTD:fgetc.obj
 0001:000e1d50       _getc                      004e2d50 f   LIBCMTD:fgetc.obj
 0001:000e1fb0       _rename                    004e2fb0 f   LIBCMTD:rename.obj
 0001:000e2110       __fstat64i32               004e3110 f   LIBCMTD:fstati32.obj
 0001:000e27c0       __beginthreadex            004e37c0 f   LIBCMTD:threadex.obj
 0001:000e29f0       __endthreadex              004e39f0 f   LIBCMTD:threadex.obj
 0001:000e2bf0       __lock                     004e3bf0 f   LIBCMTD:mlock.obj
 0001:000e2c30       __lockerr_exit             004e3c30 f   LIBCMTD:mlock.obj
 0001:000e2c60       __mtdeletelocks            004e3c60 f   LIBCMTD:mlock.obj
 0001:000e2d20       __mtinitlocknum            004e3d20 f   LIBCMTD:mlock.obj
 0001:000e2e40       __mtinitlocks              004e3e40 f   LIBCMTD:mlock.obj
 0001:000e2ec0       __unlock                   004e3ec0 f   LIBCMTD:mlock.obj
 0001:000e2ee0       ??0__non_rtti_object@std@@QAE@ABV01@@Z 004e3ee0 f   LIBCMTD:stdexcpt.obj
 0001:000e2f10       ??0__non_rtti_object@std@@QAE@PBD@Z 004e3f10 f   LIBCMTD:stdexcpt.obj
 0001:000e2f40       ??0bad_cast@std@@QAE@ABV01@@Z 004e3f40 f   LIBCMTD:stdexcpt.obj
 0001:000e2f70       ??0bad_cast@std@@QAE@PBD@Z 004e3f70 f   LIBCMTD:stdexcpt.obj
 0001:000e2fa0       ??0bad_typeid@std@@QAE@ABV01@@Z 004e3fa0 f   LIBCMTD:stdexcpt.obj
 0001:000e2fd0       ??0bad_typeid@std@@QAE@PBD@Z 004e3fd0 f   LIBCMTD:stdexcpt.obj
 0001:000e3000       ??0exception@std@@QAE@ABQBD@Z 004e4000 f   LIBCMTD:stdexcpt.obj
 0001:000e3040       ??0exception@std@@QAE@ABQBDH@Z 004e4040 f   LIBCMTD:stdexcpt.obj
 0001:000e3070       ??0exception@std@@QAE@ABV01@@Z 004e4070 f   LIBCMTD:stdexcpt.obj
 0001:000e30b0       ??0exception@std@@QAE@XZ   004e40b0 f   LIBCMTD:stdexcpt.obj
 0001:000e30e0       ??1__non_rtti_object@std@@UAE@XZ 004e40e0 f   LIBCMTD:stdexcpt.obj
 0001:000e3100       ??1bad_cast@std@@UAE@XZ    004e4100 f   LIBCMTD:stdexcpt.obj
 0001:000e3120       ??1bad_typeid@std@@UAE@XZ  004e4120 f   LIBCMTD:stdexcpt.obj
 0001:000e3140       ??1exception@std@@UAE@XZ   004e4140 f   LIBCMTD:stdexcpt.obj
 0001:000e3160       ??4exception@std@@QAEAAV01@ABV01@@Z 004e4160 f   LIBCMTD:stdexcpt.obj
 0001:000e31b0       ??_G__non_rtti_object@std@@UAEPAXI@Z 004e41b0 f i LIBCMTD:stdexcpt.obj
 0001:000e31b0       ??_E__non_rtti_object@std@@UAEPAXI@Z 004e41b0 f i LIBCMTD:stdexcpt.obj
 0001:000e31e0       ??_Ebad_cast@std@@UAEPAXI@Z 004e41e0 f i LIBCMTD:stdexcpt.obj
 0001:000e31e0       ??_Gbad_cast@std@@UAEPAXI@Z 004e41e0 f i LIBCMTD:stdexcpt.obj
 0001:000e3210       ??_Gbad_typeid@std@@UAEPAXI@Z 004e4210 f i LIBCMTD:stdexcpt.obj
 0001:000e3210       ??_Ebad_typeid@std@@UAEPAXI@Z 004e4210 f i LIBCMTD:stdexcpt.obj
 0001:000e3240       ??_Gexception@std@@UAEPAXI@Z 004e4240 f i LIBCMTD:stdexcpt.obj
 0001:000e3240       ??_Eexception@std@@UAEPAXI@Z 004e4240 f i LIBCMTD:stdexcpt.obj
 0001:000e3270       ?_Copy_str@exception@std@@AAEXPBD@Z 004e4270 f   LIBCMTD:stdexcpt.obj
 0001:000e32d0       ?_Tidy@exception@std@@AAEXXZ 004e42d0 f   LIBCMTD:stdexcpt.obj
 0001:000e3310       ?what@exception@std@@UBEPBDXZ 004e4310 f   LIBCMTD:stdexcpt.obj
 0001:000e3390       ___crtCloseThreadpoolTimer 004e4390 f   LIBCMTD:winapisupp.obj
 0001:000e33c0       ___crtCloseThreadpoolWait  004e43c0 f   LIBCMTD:winapisupp.obj
 0001:000e33f0       ___crtCreateEventExW       004e43f0 f   LIBCMTD:winapisupp.obj
 0001:000e3450       ___crtCreateSemaphoreExW   004e4450 f   LIBCMTD:winapisupp.obj
 0001:000e34b0       ___crtCreateSymbolicLinkW  004e44b0 f   LIBCMTD:winapisupp.obj
 0001:000e34f0       ___crtCreateThreadpoolTimer 004e44f0 f   LIBCMTD:winapisupp.obj
 0001:000e3530       ___crtCreateThreadpoolWait 004e4530 f   LIBCMTD:winapisupp.obj
 0001:000e3570       ___crtFlsAlloc             004e4570 f   LIBCMTD:winapisupp.obj
 0001:000e35a0       ___crtFlsFree              004e45a0 f   LIBCMTD:winapisupp.obj
 0001:000e35e0       ___crtFlsGetValue          004e45e0 f   LIBCMTD:winapisupp.obj
 0001:000e3620       ___crtFlsSetValue          004e4620 f   LIBCMTD:winapisupp.obj
 0001:000e3660       ___crtFlushProcessWriteBuffers 004e4660 f   LIBCMTD:winapisupp.obj
 0001:000e3690       ___crtFreeLibraryWhenCallbackReturns 004e4690 f   LIBCMTD:winapisupp.obj
 0001:000e36c0       ___crtGetCurrentProcessorNumber 004e46c0 f   LIBCMTD:winapisupp.obj
 0001:000e36f0       ___crtGetFileInformationByHandleEx 004e46f0 f   LIBCMTD:winapisupp.obj
 0001:000e3730       ___crtGetLogicalProcessorInformation 004e4730 f   LIBCMTD:winapisupp.obj
 0001:000e3770       ___crtGetShowWindowMode    004e4770 f   LIBCMTD:winapisupp.obj
 0001:000e37a0       ___crtGetTickCount64       004e47a0 f   LIBCMTD:winapisupp.obj
 0001:000e37d0       ___crtInitializeCriticalSectionEx 004e47d0 f   LIBCMTD:winapisupp.obj
 0001:000e3820       ___crtIsPackagedApp        004e4820 f   LIBCMTD:winapisupp.obj
 0001:000e3860       ___crtLoadWinApiPointers   004e4860 f   LIBCMTD:winapisupp.obj
 0001:000e3d00       ___crtSetFileInformationByHandle 004e4d00 f   LIBCMTD:winapisupp.obj
 0001:000e3d40       ___crtSetThreadStackGuarantee 004e4d40 f   LIBCMTD:winapisupp.obj
 0001:000e3d70       ___crtSetThreadpoolTimer   004e4d70 f   LIBCMTD:winapisupp.obj
 0001:000e3db0       ___crtSetThreadpoolWait    004e4db0 f   LIBCMTD:winapisupp.obj
 0001:000e3de0       ___crtSetUnhandledExceptionFilter 004e4de0 f   LIBCMTD:winapisupp.obj
 0001:000e3df0       ___crtSleep                004e4df0 f   LIBCMTD:winapisupp.obj
 0001:000e3e00       ___crtTerminateProcess     004e4e00 f   LIBCMTD:winapisupp.obj
 0001:000e3e20       ___crtUnhandledException   004e4e20 f   LIBCMTD:winapisupp.obj
 0001:000e3e40       ___crtWaitForThreadpoolTimerCallbacks 004e4e40 f   LIBCMTD:winapisupp.obj
 0001:000e3e70       __FF_MSGBANNER             004e4e70 f   LIBCMTD:crt0msg.obj
 0001:000e3ec0       __GET_RTERRMSG             004e4ec0 f   LIBCMTD:crt0msg.obj
 0001:000e3f00       __NMSG_WRITE               004e4f00 f   LIBCMTD:crt0msg.obj
 0001:000e42c0       __set_abort_behavior       004e52c0 f   LIBCMTD:abort.obj
 0001:000e42f0       _abort                     004e52f0 f   LIBCMTD:abort.obj
 0001:000e4360       ___getlocaleinfo           004e5360 f   LIBCMTD:inithelp.obj
 0001:000e4660       __initp_misc_purevirt      004e5660 f   LIBCMTD:inithelp.obj
 0001:000e4670       ?_query_new_handler@@YAP6AHI@ZXZ 004e5670 f   LIBCMTD:handler.obj
 0001:000e4690       ?_set_new_handler@@YAP6AHI@ZH@Z 004e5690 f   LIBCMTD:handler.obj
 0001:000e46d0       ?_set_new_handler@@YAP6AHI@ZP6AHI@Z@Z 004e56d0 f   LIBCMTD:handler.obj
 0001:000e4710       __callnewh                 004e5710 f   LIBCMTD:handler.obj
 0001:000e4750       __initp_heap_handler       004e5750 f   LIBCMTD:handler.obj
 0001:000e4bf0       __CrtCheckMemory           004e5bf0 f   LIBCMTD:dbgheap.obj
 0001:000e5050       __CrtDoForAllClientObjects 004e6050 f   LIBCMTD:dbgheap.obj
 0001:000e5180       __CrtDumpMemoryLeaks       004e6180 f   LIBCMTD:dbgheap.obj
 0001:000e5220       __CrtGetAllocHook          004e6220 f   LIBCMTD:dbgheap.obj
 0001:000e5230       __CrtGetCheckCount         004e6230 f   LIBCMTD:dbgheap.obj
 0001:000e5240       __CrtGetDumpClient         004e6240 f   LIBCMTD:dbgheap.obj
 0001:000e5250       __CrtIsMemoryBlock         004e6250 f   LIBCMTD:dbgheap.obj
 0001:000e53c0       __CrtIsValidHeapPointer    004e63c0 f   LIBCMTD:dbgheap.obj
 0001:000e5400       __CrtIsValidPointer        004e6400 f   LIBCMTD:dbgheap.obj
 0001:000e5430       __CrtMemCheckpoint         004e6430 f   LIBCMTD:dbgheap.obj
 0001:000e5660       __CrtMemDifference         004e6660 f   LIBCMTD:dbgheap.obj
 0001:000e58c0       __CrtMemDumpAllObjectsSince 004e68c0 f   LIBCMTD:dbgheap.obj
 0001:000e5900       __CrtMemDumpStatistics     004e6900 f   LIBCMTD:dbgheap.obj
 0001:000e5a20       __CrtReportBlockType       004e6a20 f   LIBCMTD:dbgheap.obj
 0001:000e5a50       __CrtSetAllocHook          004e6a50 f   LIBCMTD:dbgheap.obj
 0001:000e5a70       __CrtSetBreakAlloc         004e6a70 f   LIBCMTD:dbgheap.obj
 0001:000e5a90       __CrtSetCheckCount         004e6a90 f   LIBCMTD:dbgheap.obj
 0001:000e5ab0       __CrtSetDbgBlockType       004e6ab0 f   LIBCMTD:dbgheap.obj
 0001:000e5ba0       __CrtSetDbgFlag            004e6ba0 f   LIBCMTD:dbgheap.obj
 0001:000e5cf0       __CrtSetDebugFillThreshold 004e6cf0 f   LIBCMTD:dbgheap.obj
 0001:000e5d10       __CrtSetDumpClient         004e6d10 f   LIBCMTD:dbgheap.obj
 0001:000e5d30       __aligned_free             004e6d30 f   LIBCMTD:dbgheap.obj
 0001:000e5d50       __aligned_free_dbg         004e6d50 f   LIBCMTD:dbgheap.obj
 0001:000e5e00       __aligned_malloc           004e6e00 f   LIBCMTD:dbgheap.obj
 0001:000e5e20       __aligned_malloc_dbg       004e6e20 f   LIBCMTD:dbgheap.obj
 0001:000e5e40       __aligned_msize            004e6e40 f   LIBCMTD:dbgheap.obj
 0001:000e5e60       __aligned_msize_dbg        004e6e60 f   LIBCMTD:dbgheap.obj
 0001:000e5f80       __aligned_offset_malloc    004e6f80 f   LIBCMTD:dbgheap.obj
 0001:000e5fa0       __aligned_offset_malloc_dbg 004e6fa0 f   LIBCMTD:dbgheap.obj
 0001:000e6180       __aligned_offset_realloc   004e7180 f   LIBCMTD:dbgheap.obj
 0001:000e61b0       __aligned_offset_realloc_dbg 004e71b0 f   LIBCMTD:dbgheap.obj
 0001:000e64c0       __aligned_offset_recalloc  004e74c0 f   LIBCMTD:dbgheap.obj
 0001:000e64f0       __aligned_offset_recalloc_dbg 004e74f0 f   LIBCMTD:dbgheap.obj
 0001:000e65b0       __aligned_realloc          004e75b0 f   LIBCMTD:dbgheap.obj
 0001:000e65d0       __aligned_realloc_dbg      004e75d0 f   LIBCMTD:dbgheap.obj
 0001:000e6600       __aligned_recalloc         004e7600 f   LIBCMTD:dbgheap.obj
 0001:000e6630       __aligned_recalloc_dbg     004e7630 f   LIBCMTD:dbgheap.obj
 0001:000e6660       __calloc_dbg               004e7660 f   LIBCMTD:dbgheap.obj
 0001:000e66c0       __calloc_dbg_impl          004e76c0 f   LIBCMTD:dbgheap.obj
 0001:000e6740       __expand                   004e7740 f   LIBCMTD:dbgheap.obj
 0001:000e6770       __expand_dbg               004e7770 f   LIBCMTD:dbgheap.obj
 0001:000e68a0       __free_dbg                 004e78a0 f   LIBCMTD:dbgheap.obj
 0001:000e6920       __free_dbg_nolock          004e7920 f   LIBCMTD:dbgheap.obj
 0001:000e6e20       __free_nolock              004e7e20 f   LIBCMTD:dbgheap.obj
 0001:000e6e40       __heap_alloc               004e7e40 f   LIBCMTD:dbgheap.obj
 0001:000e6e60       __heap_alloc_dbg           004e7e60 f   LIBCMTD:dbgheap.obj
 0001:000e7280       __malloc_dbg               004e8280 f   LIBCMTD:dbgheap.obj
 0001:000e72b0       __msize                    004e82b0 f   LIBCMTD:dbgheap.obj
 0001:000e72d0       __msize_dbg                004e82d0 f   LIBCMTD:dbgheap.obj
 0001:000e74e0       __nh_malloc                004e84e0 f   LIBCMTD:dbgheap.obj
 0001:000e7500       __nh_malloc_dbg            004e8500 f   LIBCMTD:dbgheap.obj
 0001:000e7790       __realloc_dbg              004e8790 f   LIBCMTD:dbgheap.obj
 0001:000e7830       __recalloc                 004e8830 f   LIBCMTD:dbgheap.obj
 0001:000e7860       __recalloc_dbg             004e8860 f   LIBCMTD:dbgheap.obj
 0001:000e7f80       __except_handler4          004e8f80 f   LIBCMTD:chandler4.obj
 0001:000e8140       ___isa_available_init      004e9140 f   LIBCMTD:cpu_disp.obj
 0001:000e83f0       __CIsqrt                   004e93f0 f   LIBCMTD:sqrt.obj
 0001:000e8404       _sqrt                      004e9404     LIBCMTD:sqrt.obj
 0001:000e84b0       __add_exp                  004e94b0 f   LIBCMTD:util.obj
 0001:000e84e0       __decomp                   004e94e0 f   LIBCMTD:util.obj
 0001:000e8600       __get_exp                  004e9600 f   LIBCMTD:util.obj
 0001:000e8630       __set_bexp                 004e9630 f   LIBCMTD:util.obj
 0001:000e8660       __set_exp                  004e9660 f   LIBCMTD:util.obj
 0001:000e86a0       __sptype                   004e96a0 f   LIBCMTD:util.obj
 0001:000e8720       __errcode                  004e9720 f   LIBCMTD:fpexcept.obj
 0001:000e8790       __except1                  004e9790 f   LIBCMTD:fpexcept.obj
 0001:000e8890       __except2                  004e9890 f   LIBCMTD:fpexcept.obj
 0001:000e89e0       __handle_exc               004e99e0 f   LIBCMTD:fpexcept.obj
 0001:000e8d00       __handle_qnan1             004e9d00 f   LIBCMTD:fpexcept.obj
 0001:000e8d60       __handle_qnan2             004e9d60 f   LIBCMTD:fpexcept.obj
 0001:000e8dd0       __raise_exc                004e9dd0 f   LIBCMTD:fpexcept.obj
 0001:000e8e00       __raise_exc_ex             004e9e00 f   LIBCMTD:fpexcept.obj
 0001:000e9380       __raise_excf               004ea380 f   LIBCMTD:fpexcept.obj
 0001:000e93b0       __set_errno_from_matherr   004ea3b0 f   LIBCMTD:fpexcept.obj
 0001:000e93f0       __umatherr                 004ea3f0 f   LIBCMTD:fpexcept.obj
 0001:000e9490       ___clrfp_sse2              004ea490 f   LIBCMTD:fpctrl.obj
 0001:000e94d0       ___ctrlfp_sse2             004ea4d0 f   LIBCMTD:fpctrl.obj
 0001:000e9530       ___fclrf_sse2              004ea530 f   LIBCMTD:fpctrl.obj
 0001:000e9550       ___get_fpsr_sse2           004ea550 f   LIBCMTD:fpctrl.obj
 0001:000e9580       ___set_fpsr_sse2           004ea580 f   LIBCMTD:fpctrl.obj
 0001:000e9660       ___set_statfp_sse2         004ea660 f   LIBCMTD:fpctrl.obj
 0001:000e9690       ___statfp_sse2             004ea690 f   LIBCMTD:fpctrl.obj
 0001:000e96c0       __clrfp                    004ea6c0 f   LIBCMTD:fpctrl.obj
 0001:000e96e0       __ctrlfp                   004ea6e0 f   LIBCMTD:fpctrl.obj
 0001:000e9710       __set_statfp               004ea710 f   LIBCMTD:fpctrl.obj
 0001:000e9780       __statfp                   004ea780 f   LIBCMTD:fpctrl.obj
 0001:000e9790       ___get_flsindex            004ea790 f   LIBCMTD:tidtable.obj
 0001:000e97a0       ___threadhandle            004ea7a0 f   LIBCMTD:tidtable.obj
 0001:000e97b0       ___threadid                004ea7b0 f   LIBCMTD:tidtable.obj
 0001:000e97c0       __freefls@4                004ea7c0 f   LIBCMTD:tidtable.obj
 0001:000e99c0       __freeptd                  004ea9c0 f   LIBCMTD:tidtable.obj
 0001:000e9a00       __getptd                   004eaa00 f   LIBCMTD:tidtable.obj
 0001:000e9a30       __getptd_noexit            004eaa30 f   LIBCMTD:tidtable.obj
 0001:000e9ae0       __initptd                  004eaae0 f   LIBCMTD:tidtable.obj
 0001:000e9c20       __mtinit                   004eac20 f   LIBCMTD:tidtable.obj
 0001:000e9cd0       __mtterm                   004eacd0 f   LIBCMTD:tidtable.obj
 0001:000e9d00       __CallSettingFrame@12      004ead00 f   LIBCMTD:lowhelpr.obj
 0001:000e9d27       __NLG_Return               004ead27     LIBCMTD:lowhelpr.obj
 0001:000e9d50       ?_inconsistency@@YAXXZ     004ead50 f   LIBCMTD:hooks.obj
 0001:000e9de0       ?terminate@@YAXXZ          004eade0 f   LIBCMTD:hooks.obj
 0001:000e9e60       ?unexpected@@YAXXZ         004eae60 f   LIBCMTD:hooks.obj
 0001:000e9e90       __initp_eh_hooks           004eae90 f   LIBCMTD:hooks.obj
 0001:000e9eb0       ___DestructExceptionObject 004eaeb0 f   LIBCMTD:frame.obj
 0001:000e9fd0       ??0bad_exception@std@@QAE@ABV01@@Z 004eafd0 f i LIBCMTD:frame.obj
 0001:000ea000       ??0bad_exception@std@@QAE@PBD@Z 004eb000 f i LIBCMTD:frame.obj
 0001:000ea030       ??1bad_exception@std@@UAE@XZ 004eb030 f i LIBCMTD:frame.obj
 0001:000ea050       ??_Ebad_exception@std@@UAEPAXI@Z 004eb050 f i LIBCMTD:frame.obj
 0001:000ea050       ??_Gbad_exception@std@@UAEPAXI@Z 004eb050 f i LIBCMTD:frame.obj
 0001:000eac40       ?__uncaught_exception@@YA_NXZ 004ebc40 f   LIBCMTD:frame.obj
 0001:000eac70       ?_is_exception_typeof@@YAHABVtype_info@@PAU_EXCEPTION_POINTERS@@@Z 004ebc70 f   LIBCMTD:frame.obj
 0001:000ead50       __SetWinRTOutOfMemoryExceptionCallback 004ebd50 f   LIBCMTD:frame.obj
 0001:000ead60       ___AdjustPointer           004ebd60 f   LIBCMTD:frame.obj
 0001:000eadb0       ___BuildCatchObject        004ebdb0 f   LIBCMTD:frame.obj
 0001:000eaec0       ___BuildCatchObjectHelper  004ebec0 f   LIBCMTD:frame.obj
 0001:000eb1c0       ___CxxDetectRethrow        004ec1c0 f   LIBCMTD:frame.obj
 0001:000eb240       ___CxxExceptionFilter      004ec240 f   LIBCMTD:frame.obj
 0001:000eb440       ___CxxQueryExceptionSize   004ec440 f   LIBCMTD:frame.obj
 0001:000eb450       ___CxxRegisterExceptionObject 004ec450 f   LIBCMTD:frame.obj
 0001:000eb590       ___CxxUnregisterExceptionObject 004ec590 f   LIBCMTD:frame.obj
 0001:000eb710       ___FrameUnwindFilter       004ec710 f   LIBCMTD:frame.obj
 0001:000eb790       ___FrameUnwindToState      004ec790 f   LIBCMTD:frame.obj
 0001:000eb910       ___GetPlatformExceptionInfo 004ec910 f   LIBCMTD:frame.obj
 0001:000eb9d0       ___InternalCxxFrameHandler 004ec9d0 f   LIBCMTD:frame.obj
 0001:000ebb40       ___TypeMatch               004ecb40 f   LIBCMTD:frame.obj
 0001:000ebc20       ?_Name_base@type_info@@CAPBDPBV1@PAU__type_info_node@@@Z 004ecc20 f   LIBCMTD:typname.obj
 0001:000ebdd0       ?_Name_base_internal@type_info@@CAPBDPBV1@PAU__type_info_node@@@Z 004ecdd0 f   LIBCMTD:typname.obj
 0001:000ebf90       ?_Type_info_dtor@type_info@@CAXPAV1@@Z 004ecf90 f   LIBCMTD:typname.obj
 0001:000ec0a0       ?_Type_info_dtor_internal@type_info@@CAXPAV1@@Z 004ed0a0 f   LIBCMTD:typname.obj
 0001:000ec1b0       ___clean_type_info_names_internal 004ed1b0 f   LIBCMTD:typname.obj
 0001:000ec260       ___unDNameHelper           004ed260 f   LIBCMTD:typname.obj
 0001:000ec2a0       __cfltcvt                  004ed2a0 f   LIBCMTD:cvt.obj
 0001:000ec2d0       __cfltcvt_l                004ed2d0 f   LIBCMTD:cvt.obj
 0001:000ec390       __cftoa                    004ed390 f   LIBCMTD:cvt.obj
 0001:000ec3c0       __cftoa_l                  004ed3c0 f   LIBCMTD:cvt.obj
 0001:000ecc30       __cftoe                    004edc30 f   LIBCMTD:cvt.obj
 0001:000ed070       __cftoe_l                  004ee070 f   LIBCMTD:cvt.obj
 0001:000ed2a0       __cftof                    004ee2a0 f   LIBCMTD:cvt.obj
 0001:000ed550       __cftof_l                  004ee550 f   LIBCMTD:cvt.obj
 0001:000ed750       __cftog                    004ee750 f   LIBCMTD:cvt.obj
 0001:000ed780       __cftog_l                  004ee780 f   LIBCMTD:cvt.obj
 0001:000eda10       __cropzeros                004eea10 f   LIBCMTD:cvt.obj
 0001:000eda30       __cropzeros_l              004eea30 f   LIBCMTD:cvt.obj
 0001:000edb50       __fassign                  004eeb50 f   LIBCMTD:cvt.obj
 0001:000edb70       __fassign_l                004eeb70 f   LIBCMTD:cvt.obj
 0001:000edbc0       __forcdecpt                004eebc0 f   LIBCMTD:cvt.obj
 0001:000edbe0       __forcdecpt_l              004eebe0 f   LIBCMTD:cvt.obj
 0001:000edcb0       __positive                 004eecb0 f   LIBCMTD:cvt.obj
 0001:000edd10       __setdefaultprecision      004eed10 f   LIBCMTD:fp8.obj
 0001:000edd50       __initp_misc_cfltcvt_tab   004eed50 f   LIBCMTD:cmiscdat.obj
 0001:000edd90       __CrtDefaultAllocHook      004eed90 f   LIBCMTD:dbghook.obj
 0001:000edda0       __crt_debugger_hook        004eeda0 f   LIBCMTD:dbghook.obj
 0001:000eddb0       __VEC_memset               004eedb0 f   LIBCMTD:p4_memset.obj
 0001:000ede80       ___addlocaleref            004eee80 f   LIBCMTD:localref.obj
 0001:000edfa0       ___freetlocinfo            004eefa0 f   LIBCMTD:localref.obj
 0001:000ee290       ___removelocaleref         004ef290 f   LIBCMTD:localref.obj
 0001:000ee3b0       ___updatetlocinfo          004ef3b0 f   LIBCMTD:localref.obj
 0001:000ee480       __updatetlocinfoEx_nolock  004ef480 f   LIBCMTD:localref.obj
 0001:000ee500       ___initmbctable            004ef500 f   LIBCMTD:mbctype.obj
 0001:000eeb20       ___updatetmbcinfo          004efb20 f   LIBCMTD:mbctype.obj
 0001:000eec40       __getmbcp                  004efc40 f   LIBCMTD:mbctype.obj
 0001:000eecb0       __setmbcp                  004efcb0 f   LIBCMTD:mbctype.obj
 0001:000eef50       __setmbcp_nolock           004eff50 f   LIBCMTD:mbctype.obj
 0001:000ef2d0       ___init_dummy              004f02d0 f   LIBCMTD:wsetloca.obj
 0001:000ef2e0       __locterm                  004f02e0 f   LIBCMTD:wsetloca.obj
 0001:000ef370       ____setlc_active_func      004f0370 f   LIBCMTD:wsetloca.obj
 0001:000ef380       ____unguarded_readlc_active_add_func 004f0380 f   LIBCMTD:wsetloca.obj
 0001:000ef390       ___copy_locale_name        004f0390 f   LIBCMTD:wsetloca.obj
 0001:000ef430       ___create_locale           004f0430 f   LIBCMTD:wsetloca.obj
 0001:000ef450       ___free_locale             004f0450 f   LIBCMTD:wsetloca.obj
 0001:000ef470       ___get_current_locale      004f0470 f   LIBCMTD:wsetloca.obj
 0001:000ef480       ___lc_lctowcs              004f0480 f   LIBCMTD:wsetloca.obj
 0001:000ef530       ___lc_wcstolc              004f0530 f   LIBCMTD:wsetloca.obj
 0001:000ef750       __configthreadlocale       004f0750 f   LIBCMTD:wsetloca.obj
 0001:000ef8b0       __create_locale            004f08b0 f   LIBCMTD:wsetloca.obj
 0001:000ef920       __expandlocale             004f0920 f   LIBCMTD:wsetloca.obj
 0001:000efe10       __free_locale              004f0e10 f   LIBCMTD:wsetloca.obj
 0001:000eff40       __get_current_locale       004f0f40 f   LIBCMTD:wsetloca.obj
 0001:000f0060       __wcreate_locale           004f1060 f   LIBCMTD:wsetloca.obj
 0001:000f0250       __wcscats                  004f1250 f   LIBCMTD:wsetloca.obj
 0001:000f02d0       __wsetlocale               004f12d0 f   LIBCMTD:wsetloca.obj
 0001:000f1360       __INTRN_LOCALE_CONV        004f2360 f i LIBCMTD:input.obj
 0001:000f1520       __input_l                  004f2520 f   LIBCMTD:input.obj
 0001:000f3420       __input_s_l                004f4420 f   LIBCMTD:inputs.obj
 0001:000f5600       __flsbuf                   004f6600 f   LIBCMTD:_flsbuf.obj
 0001:000f58d0       __output_l                 004f68d0 f   LIBCMTD:output.obj
 0001:000f6f80       _get_int64_arg             004f7f80 f i LIBCMTD:output.obj
 0001:000f6fa0       _get_int_arg               004f7fa0 f i LIBCMTD:output.obj
 0001:000f6fc0       _get_short_arg             004f7fc0 f i LIBCMTD:output.obj
 0001:000f7180       __vscprintf                004f8180 f   LIBCMTD:vsprintf.obj
 0001:000f71a0       __vscprintf_helper         004f81a0 f   LIBCMTD:vsprintf.obj
 0001:000f7290       __vscprintf_l              004f8290 f   LIBCMTD:vsprintf.obj
 0001:000f72b0       __vscprintf_p              004f82b0 f   LIBCMTD:vsprintf.obj
 0001:000f72d0       __vscprintf_p_l            004f82d0 f   LIBCMTD:vsprintf.obj
 0001:000f72f0       __vsprintf_l               004f82f0 f   LIBCMTD:vsprintf.obj
 0001:000f74b0       _vsprintf                  004f84b0 f   LIBCMTD:vsprintf.obj
 0001:000f74d0       __vsnprintf_c              004f84d0 f   LIBCMTD:vsnprnc.obj
 0001:000f7520       __vsnprintf_c_l            004f8520 f   LIBCMTD:vsnprnc.obj
 0001:000f7570       __vsnprintf_helper         004f8570 f   LIBCMTD:vsnprnc.obj
 0001:000f7770       __vsnprintf_s              004f8770 f   LIBCMTD:vsnprnc.obj
 0001:000f77a0       __vsnprintf_s_l            004f87a0 f   LIBCMTD:vsnprnc.obj
 0001:000f7b60       __vsprintf_p               004f8b60 f   LIBCMTD:vsnprnc.obj
 0001:000f7bb0       __vsprintf_p_l             004f8bb0 f   LIBCMTD:vsnprnc.obj
 0001:000f7c00       __vsprintf_s_l             004f8c00 f   LIBCMTD:vsnprnc.obj
 0001:000f7e90       _vsprintf_s                004f8e90 f   LIBCMTD:vsnprnc.obj
 0001:000f7eb0       _memcpy_s                  004f8eb0 f   LIBCMTD:memcpy_s.obj
 0001:000f8080       _wcscpy_s                  004f9080 f   LIBCMTD:wcscpy_s.obj
 0001:000f8390       ___swprintf_l              004f9390 f   LIBCMTD:swprintf.obj
 0001:000f83c0       __scwprintf                004f93c0 f   LIBCMTD:swprintf.obj
 0001:000f83e0       __scwprintf_l              004f93e0 f   LIBCMTD:swprintf.obj
 0001:000f8410       __scwprintf_p              004f9410 f   LIBCMTD:swprintf.obj
 0001:000f8430       __scwprintf_p_l            004f9430 f   LIBCMTD:swprintf.obj
 0001:000f8460       __snwprintf_s              004f9460 f   LIBCMTD:swprintf.obj
 0001:000f8490       __snwprintf_s_l            004f9490 f   LIBCMTD:swprintf.obj
 0001:000f84c0       __swprintf                 004f94c0 f   LIBCMTD:swprintf.obj
 0001:000f86e0       __swprintf_p               004f96e0 f   LIBCMTD:swprintf.obj
 0001:000f8710       __swprintf_p_l             004f9710 f   LIBCMTD:swprintf.obj
 0001:000f8740       __swprintf_s_l             004f9740 f   LIBCMTD:swprintf.obj
 0001:000f8770       _swprintf_s                004f9770 f   LIBCMTD:swprintf.obj
 0001:000f87a0       ___fpecode                 004f97a0 f   LIBCMTD:winsig.obj
 0001:000f87b0       ___get_sigabrt             004f97b0 f   LIBCMTD:winsig.obj
 0001:000f87d0       ___pxcptinfoptrs           004f97d0 f   LIBCMTD:winsig.obj
 0001:000f87e0       __initp_misc_winsig        004f97e0 f   LIBCMTD:winsig.obj
 0001:000f8910       _raise                     004f9910 f   LIBCMTD:winsig.obj
 0001:000f8ca0       _signal                    004f9ca0 f   LIBCMTD:winsig.obj
 0001:000f9050       ___crtMessageBoxW          004fa050 f   LIBCMTD:crtmboxw.obj
 0001:000f9360       ___crtMessageBoxWaitThreadW@4 004fa360 f   LIBCMTD:crtmboxw.obj
 0001:000f93a0       __CrtDbgBreak              004fa3a0 f   LIBCMTD:dbgrptt.obj
 0001:000f93b0       __CrtGetReportHook         004fa3b0 f   LIBCMTD:dbgrptt.obj
 0001:000f93c0       __CrtSetReportFile         004fa3c0 f   LIBCMTD:dbgrptt.obj
 0001:000f94c0       __CrtSetReportHook         004fa4c0 f   LIBCMTD:dbgrptt.obj
 0001:000f94e0       __CrtSetReportMode         004fa4e0 f   LIBCMTD:dbgrptt.obj
 0001:000f9620       __VCrtDbgReportA           004fa620 f   LIBCMTD:dbgrptt.obj
 0001:000f9e90       __VCrtDbgReportW           004fae90 f   LIBCMTD:dbgrptt.obj
 0001:000fa810       _wcscat_s                  004fb810 f   LIBCMTD:wcscat_s.obj
 0001:000fac20       _wcsncat_s                 004fbc20 f   LIBCMTD:wcsncat_s.obj
 0001:000fb110       ___set_app_type            004fc110 f   LIBCMTD:errmode.obj
 0001:000fb120       __set_error_mode           004fc120 f   LIBCMTD:errmode.obj
 0001:000fb620       __i64tow_s                 004fc620 f   LIBCMTD:xtows.obj
 0001:000fb670       __itow_s                   004fc670 f   LIBCMTD:xtows.obj
 0001:000fb6d0       __ltow_s                   004fc6d0 f   LIBCMTD:xtows.obj
 0001:000fb710       __ui64tow_s                004fc710 f   LIBCMTD:xtows.obj
 0001:000fb730       __ultow_s                  004fc730 f   LIBCMTD:xtows.obj
 0001:000fbb50       __fwprintf_l               004fcb50 f   LIBCMTD:fwprintf.obj
 0001:000fbb80       __fwprintf_p               004fcb80 f   LIBCMTD:fwprintf.obj
 0001:000fbbb0       __fwprintf_p_l             004fcbb0 f   LIBCMTD:fwprintf.obj
 0001:000fbbe0       __fwprintf_s_l             004fcbe0 f   LIBCMTD:fwprintf.obj
 0001:000fbc10       _fwprintf                  004fcc10 f   LIBCMTD:fwprintf.obj
 0001:000fbdc0       _fwprintf_s                004fcdc0 f   LIBCMTD:fwprintf.obj
 0001:000fbdf0       __vsnwprintf_s             004fcdf0 f   LIBCMTD:vswprnc.obj
 0001:000fbe20       __vsnwprintf_s_l           004fce20 f   LIBCMTD:vswprnc.obj
 0001:000fc1f0       __vswprintf_c              004fd1f0 f   LIBCMTD:vswprnc.obj
 0001:000fc240       __vswprintf_c_l            004fd240 f   LIBCMTD:vswprnc.obj
 0001:000fc290       __vswprintf_helper         004fd290 f   LIBCMTD:vswprnc.obj
 0001:000fc500       __vswprintf_p              004fd500 f   LIBCMTD:vswprnc.obj
 0001:000fc550       __vswprintf_p_l            004fd550 f   LIBCMTD:vswprnc.obj
 0001:000fc5a0       __vswprintf_s_l            004fd5a0 f   LIBCMTD:vswprnc.obj
 0001:000fc830       _vswprintf_s               004fd830 f   LIBCMTD:vswprnc.obj
 0001:000fc850       __chvalidator              004fd850 f   LIBCMTD:isctype.obj
 0001:000fc8a0       __chvalidator_l            004fd8a0 f   LIBCMTD:isctype.obj
 0001:000fc960       __isctype                  004fd960 f   LIBCMTD:isctype.obj
 0001:000fc9a0       __isctype_l                004fd9a0 f   LIBCMTD:isctype.obj
 0001:000fcaf0       ___ascii_strnicmp          004fdaf0 f   LIBCMTD:_strnicm.obj
 0001:000fd090       __strtof_l                 004fe090 f   LIBCMTD:strtoq.obj
 0001:000fd0c0       __strtoi64                 004fe0c0 f   LIBCMTD:strtoq.obj
 0001:000fd110       __strtoi64_l               004fe110 f   LIBCMTD:strtoq.obj
 0001:000fd130       __strtoimax_l              004fe130 f   LIBCMTD:strtoq.obj
 0001:000fd150       __strtold_l                004fe150 f   LIBCMTD:strtoq.obj
 0001:000fd170       __strtoll_l                004fe170 f   LIBCMTD:strtoq.obj
 0001:000fd190       __strtoui64                004fe190 f   LIBCMTD:strtoq.obj
 0001:000fd1e0       __strtoui64_l              004fe1e0 f   LIBCMTD:strtoq.obj
 0001:000fd200       __strtoull_l               004fe200 f   LIBCMTD:strtoq.obj
 0001:000fd220       __strtoumax_l              004fe220 f   LIBCMTD:strtoq.obj
 0001:000fd240       _strtof                    004fe240 f   LIBCMTD:strtoq.obj
 0001:000fd270       _strtoimax                 004fe270 f   LIBCMTD:strtoq.obj
 0001:000fd290       _strtold                   004fe290 f   LIBCMTD:strtoq.obj
 0001:000fd2b0       _strtoll                   004fe2b0 f   LIBCMTD:strtoq.obj
 0001:000fd2d0       _strtoull                  004fe2d0 f   LIBCMTD:strtoq.obj
 0001:000fd2f0       _strtoumax                 004fe2f0 f   LIBCMTD:strtoq.obj
 0001:000fd310       ___daylight                004fe310 f   LIBCMTD:timeset.obj
 0001:000fd320       ___dstbias                 004fe320 f   LIBCMTD:timeset.obj
 0001:000fd330       ___timezone                004fe330 f   LIBCMTD:timeset.obj
 0001:000fd340       ___tzname                  004fe340 f   LIBCMTD:timeset.obj
 0001:000fd350       __get_daylight             004fe350 f   LIBCMTD:timeset.obj
 0001:000fd3e0       __get_dstbias              004fe3e0 f   LIBCMTD:timeset.obj
 0001:000fd470       __get_timezone             004fe470 f   LIBCMTD:timeset.obj
 0001:000fd500       __get_tzname               004fe500 f   LIBCMTD:timeset.obj
 0001:000fd700       __fcloseall                004fe700 f   LIBCMTD:closeall.obj
 0001:000fd830       __freebuf                  004fe830 f   LIBCMTD:_freebuf.obj
 0001:000fd8c0       __getstream                004fe8c0 f   LIBCMTD:stream.obj
 0001:000fdaf0       __ioinit                   004feaf0 f   LIBCMTD:ioinit.obj
 0001:000fdfd0       __ioterm                   004fefd0 f   LIBCMTD:ioinit.obj
 0001:000fe070       __commit                   004ff070 f   LIBCMTD:commit.obj
 0001:000fe2b0       __vprintf_l                004ff2b0 f   LIBCMTD:vprintf.obj
 0001:000fe2d0       __vprintf_p                004ff2d0 f   LIBCMTD:vprintf.obj
 0001:000fe2f0       __vprintf_p_l              004ff2f0 f   LIBCMTD:vprintf.obj
 0001:000fe310       __vprintf_s_l              004ff310 f   LIBCMTD:vprintf.obj
 0001:000fe330       _vprintf                   004ff330 f   LIBCMTD:vprintf.obj
 0001:000fe350       _vprintf_helper            004ff350 f   LIBCMTD:vprintf.obj
 0001:000fe490       _vprintf_s                 004ff490 f   LIBCMTD:vprintf.obj
 0001:000fe4b0       __ftbuf                    004ff4b0 f   LIBCMTD:_sftbuf.obj
 0001:000fe540       __stbuf                    004ff540 f   LIBCMTD:_sftbuf.obj
 0001:000fe6b0       ___iswcsym                 004ff6b0 f i LIBCMTD:_wctype.obj
 0001:000fe6f0       ___iswcsymf                004ff6f0 f i LIBCMTD:_wctype.obj
 0001:000fe730       __isleadbyte_l             004ff730 f i LIBCMTD:_wctype.obj
 0001:000fe780       __iswalnum_l               004ff780 f i LIBCMTD:_wctype.obj
 0001:000fe7a0       __iswalpha_l               004ff7a0 f i LIBCMTD:_wctype.obj
 0001:000fe7c0       __iswblank_l               004ff7c0 f i LIBCMTD:_wctype.obj
 0001:000fe7f0       __iswcntrl_l               004ff7f0 f i LIBCMTD:_wctype.obj
 0001:000fe810       __iswcsym_l                004ff810 f i LIBCMTD:_wctype.obj
 0001:000fe850       __iswcsymf_l               004ff850 f i LIBCMTD:_wctype.obj
 0001:000fe890       __iswdigit_l               004ff890 f i LIBCMTD:_wctype.obj
 0001:000fe8b0       __iswgraph_l               004ff8b0 f i LIBCMTD:_wctype.obj
 0001:000fe8d0       __iswlower_l               004ff8d0 f i LIBCMTD:_wctype.obj
 0001:000fe8f0       __iswprint_l               004ff8f0 f i LIBCMTD:_wctype.obj
 0001:000fe910       __iswpunct_l               004ff910 f i LIBCMTD:_wctype.obj
 0001:000fe930       __iswspace_l               004ff930 f i LIBCMTD:_wctype.obj
 0001:000fe950       __iswupper_l               004ff950 f i LIBCMTD:_wctype.obj
 0001:000fe970       __iswxdigit_l              004ff970 f i LIBCMTD:_wctype.obj
 0001:000fe990       _isleadbyte                004ff990 f i LIBCMTD:_wctype.obj
 0001:000fe9b0       _iswalnum                  004ff9b0 f i LIBCMTD:_wctype.obj
 0001:000fe9d0       _iswalpha                  004ff9d0 f i LIBCMTD:_wctype.obj
 0001:000fe9f0       _iswascii                  004ff9f0 f i LIBCMTD:_wctype.obj
 0001:000fea20       _iswblank                  004ffa20 f i LIBCMTD:_wctype.obj
 0001:000fea50       _iswcntrl                  004ffa50 f i LIBCMTD:_wctype.obj
 0001:000fea70       _iswdigit                  004ffa70 f i LIBCMTD:_wctype.obj
 0001:000fea90       _iswgraph                  004ffa90 f i LIBCMTD:_wctype.obj
 0001:000feab0       _iswlower                  004ffab0 f i LIBCMTD:_wctype.obj
 0001:000fead0       _iswprint                  004ffad0 f i LIBCMTD:_wctype.obj
 0001:000feaf0       _iswpunct                  004ffaf0 f i LIBCMTD:_wctype.obj
 0001:000feb10       _iswspace                  004ffb10 f i LIBCMTD:_wctype.obj
 0001:000feb30       _iswupper                  004ffb30 f i LIBCMTD:_wctype.obj
 0001:000feb50       _iswxdigit                 004ffb50 f i LIBCMTD:_wctype.obj
 0001:000feea0       ___crtLCMapStringA         004ffea0 f   LIBCMTD:a_map.obj
 0001:000fef00       __RTC_Initialize           004fff00 f   LIBCMTD:initsect.obj
 0001:000fef30       __RTC_Terminate            004fff30 f   LIBCMTD:initsect.obj
 0001:000fef60       __FindPESection            004fff60 f   LIBCMTD:pesect.obj
 0001:000fefe0       __IsNonwritableInCurrentImage 004fffe0 f   LIBCMTD:pesect.obj
 0001:000ff110       __ValidateImageBase        00500110 f   LIBCMTD:pesect.obj
 0001:000ff170       __initp_misc_rand_s        00500170 f   LIBCMTD:rand_s.obj
 0001:000ff180       _rand_s                    00500180 f   LIBCMTD:rand_s.obj
 0001:000ff3e0       _strnlen                   005003e0 f   LIBCMTD:strlen_s.obj
 0001:000ff420       ___wtomb_environ           00500420 f   LIBCMTD:wtombenv.obj
 0001:000ff510       __mbsnbicoll               00500510 f   LIBCMTD:mbsnbico.obj
 0001:000ff530       __mbsnbicoll_l             00500530 f   LIBCMTD:mbsnbico.obj
 0001:000ff7b0       __waccess                  005007b0 f   LIBCMTD:waccess.obj
 0001:000ff7f0       __waccess_s                005007f0 f   LIBCMTD:waccess.obj
 0001:000ffb60       __wstat64i32               00500b60 f   LIBCMTD:wstati32.obj
 0001:001002d0       __wmkdir                   005012d0 f   LIBCMTD:wmkdir.obj
 0001:00100320       __vfprintf_l               00501320 f   LIBCMTD:vfprintf.obj
 0001:00100350       __vfprintf_p               00501350 f   LIBCMTD:vfprintf.obj
 0001:00100370       __vfprintf_p_l             00501370 f   LIBCMTD:vfprintf.obj
 0001:001003a0       __vfprintf_s_l             005013a0 f   LIBCMTD:vfprintf.obj
 0001:001003d0       _vfprintf                  005013d0 f   LIBCMTD:vfprintf.obj
 0001:001003f0       _vfprintf_helper           005013f0 f   LIBCMTD:vfprintf.obj
 0001:001006c0       _vfprintf_s                005016c0 f   LIBCMTD:vfprintf.obj
 0001:001006e0       ?__CxxUnhandledExceptionFilter@@YGJPAU_EXCEPTION_POINTERS@@@Z 005016e0 f   LIBCMTD:unhandld.obj
 0001:00100750       ___CxxSetUnhandledExceptionFilter 00501750 f   LIBCMTD:unhandld.obj
 0001:00100770       __XcptFilter               00501770 f   LIBCMTD:winxfltr.obj
 0001:00100970       ___CppXcptFilter           00501970 f   LIBCMTD:winxfltr.obj
 0001:00100a00       __get_heap_handle          00501a00 f   LIBCMTD:heapinit.obj
 0001:00100a40       __heap_init                00501a40 f   LIBCMTD:heapinit.obj
 0001:00100a70       __heap_term                00501a70 f   LIBCMTD:heapinit.obj
 0001:00100a80       __set_pgmptr               00501a80 f i LIBCMTD:stdargv.obj
 0001:00100a90       __setargv                  00501a90 f   LIBCMTD:stdargv.obj
 0001:00100f60       __setenvp                  00501f60 f   LIBCMTD:stdenvp.obj
 0001:00101100       ___security_init_cookie    00502100 f   LIBCMTD:gs_support.obj
 0001:001011e0       ___crtGetEnvironmentStringsA 005021e0 f   LIBCMTD:a_env.obj
 0001:001012e0       __wincmdln                 005022e0 f   LIBCMTD:wincmdln.obj
 0001:001013c0       ___sys_errlist             005023c0 f   LIBCMTD:syserr.obj
 0001:001013d0       ___sys_nerr                005023d0 f   LIBCMTD:syserr.obj
 0001:00101530       ?_RTC_AllocaFailure@@YAXPAXPAU_RTC_ALLOCA_NODE@@H@Z 00502530 f   LIBCMTD:error.obj
 0001:001016b0       ?_RTC_Failure@@YAXPAXH@Z   005026b0 f   LIBCMTD:error.obj
 0001:00101700       ?_RTC_StackFailure@@YAXPAXPBD@Z 00502700 f   LIBCMTD:error.obj
 0001:00101a80       __RTC_UninitUse            00502a80 f   LIBCMTD:error.obj
 0001:00101b70       ?_RTC_GetErrorFunc@@YAP6AHHPBDH00ZZPBX@Z 00502b70 f   LIBCMTD:userapi.obj
 0001:00101b80       ?_RTC_GetErrorFuncW@@YAP6AHHPB_WH00ZZPBX@Z 00502b80 f   LIBCMTD:userapi.obj
 0001:00101b90       __RTC_GetErrDesc           00502b90 f   LIBCMTD:userapi.obj
 0001:00101bb0       __RTC_NumErrors            00502bb0 f   LIBCMTD:userapi.obj
 0001:00101bc0       __RTC_SetErrorFunc         00502bc0 f   LIBCMTD:userapi.obj
 0001:00101be0       __RTC_SetErrorFuncW        00502be0 f   LIBCMTD:userapi.obj
 0001:00101c00       __RTC_SetErrorType         00502c00 f   LIBCMTD:userapi.obj
 0001:00101c30       __CRT_RTC_INIT             00502c30 f   LIBCMTD:chkesp.obj
 0001:00101c40       __CRT_RTC_INITW            00502c40 f   LIBCMTD:chkesp.obj
 0001:00101c50       __chkesp                   00502c50 f   LIBCMTD:chkesp.obj
 0001:00101c90       __lseeki64                 00502c90 f   LIBCMTD:lseeki64.obj
 0001:00101f00       __lseeki64_nolock          00502f00 f   LIBCMTD:lseeki64.obj
 0001:00101fd0       __mbtowc_l                 00502fd0 f   LIBCMTD:mbtowc.obj
 0001:00102210       _mbtowc                    00503210 f   LIBCMTD:mbtowc.obj
 0001:00102230       __putwch                   00503230 f   LIBCMTD:putwch.obj
 0001:001022c0       __putwch_nolock            005032c0 f   LIBCMTD:putwch.obj
 0001:00102310       __mbstowcs_l               00503310 f   LIBCMTD:mbstowcs.obj
 0001:00102330       __mbstowcs_l_helper        00503330 f   LIBCMTD:mbstowcs.obj
 0001:001026c0       __mbstowcs_s_l             005036c0 f   LIBCMTD:mbstowcs.obj
 0001:00102a80       _mbstowcs                  00503a80 f   LIBCMTD:mbstowcs.obj
 0001:00102ad0       _mbstowcs_s                00503ad0 f   LIBCMTD:mbstowcs.obj
 0001:00102b60       __wcstombs_l               00503b60 f   LIBCMTD:wcstombs.obj
 0001:00102b80       __wcstombs_l_helper        00503b80 f   LIBCMTD:wcstombs.obj
 0001:00103090       __wcstombs_s_l             00504090 f   LIBCMTD:wcstombs.obj
 0001:001033f0       _wcstombs                  005043f0 f   LIBCMTD:wcstombs.obj
 0001:00103410       _wcstombs_s                00504410 f   LIBCMTD:wcstombs.obj
 0001:00103440       __global_unwind2           00504440 f   LIBCMTD:exsup.obj
 0001:001034a5       __local_unwind2            005044a5 f   LIBCMTD:exsup.obj
 0001:00103529       __abnormal_termination     00504529 f   LIBCMTD:exsup.obj
 0001:0010354c       __NLG_Notify1              0050454c f   LIBCMTD:exsup.obj
 0001:00103555       __NLG_Notify               00504555 f   LIBCMTD:exsup.obj
 0001:0010356c       __NLG_Dispatch             0050456c     LIBCMTD:exsup.obj
 0001:0010356c       __NLG_Dispatch2            0050456c     LIBCMTD:exsup.obj
 0001:00103574       __NLG_Call                 00504574 f   LIBCMTD:exsup.obj
 0001:00103576       __NLG_Return2              00504576     LIBCMTD:exsup.obj
 0001:00103580       ___crtsetenv               00504580 f   LIBCMTD:setenv.obj
 0001:00103c50       ___crtwsetenv              00504c50 f   LIBCMTD:wsetenv.obj
 0001:00104480       ___crtGetStringTypeA       00505480 f   LIBCMTD:a_str.obj
 0001:001044d0       ___pctype_func             005054d0 f   LIBCMTD:ctype.obj
 0001:00104520       ___pwctype_func            00505520 f   LIBCMTD:ctype.obj
 0001:00104530       __openfile                 00505530 f   LIBCMTD:_open.obj
 0001:00104d30       __local_unwind4            00505d30 f   LIBCMTD:exsup4.obj
 0001:00104e06       __seh_longjmp_unwind4@4    00505e06 f   LIBCMTD:exsup4.obj
 0001:00104e22       @_EH4_CallFilterFunc@8     00505e22 f   LIBCMTD:exsup4.obj
 0001:00104e39       @_EH4_TransferToHandler@8  00505e39 f   LIBCMTD:exsup4.obj
 0001:00104e52       @_EH4_GlobalUnwind2@8      00505e52 f   LIBCMTD:exsup4.obj
 0001:00104e6b       @_EH4_LocalUnwind@16       00505e6b f   LIBCMTD:exsup4.obj
 0001:00104e90       __wremove                  00505e90 f   LIBCMTD:wunlink.obj
 0001:00104ee0       __wunlink                  00505ee0 f   LIBCMTD:wunlink.obj
 0001:00104f00       __wchmod                   00505f00 f   LIBCMTD:wchmod.obj
 0001:001050b0       __wopen                    005060b0 f   LIBCMTD:wopen.obj
 0001:00105250       __wsopen                   00506250 f   LIBCMTD:wopen.obj
 0001:001052c0       __wsopen_helper            005062c0 f   LIBCMTD:wopen.obj
 0001:00105560       __wsopen_nolock            00506560 f   LIBCMTD:wopen.obj
 0001:001065e0       __wsopen_s                 005075e0 f   LIBCMTD:wopen.obj
 0001:00106610       ___getgmtimebuf            00507610 f   LIBCMTD:gmtime.obj
 0001:00106690       __gmtime32                 00507690 f   LIBCMTD:gmtime.obj
 0001:001066d0       __gmtime32_s               005076d0 f   LIBCMTD:gmtime.obj
 0001:001069b0       __rt_probe_read4@4         005079b0 f   LIBCMTD:sehsupp.obj
 0001:00106a60       __filbuf                   00507a60 f   LIBCMTD:_filbuf.obj
 0001:00106d90       __ismbbalnum               00507d90 f   LIBCMTD:ismbbyte.obj
 0001:00106db0       __ismbbalnum_l             00507db0 f   LIBCMTD:ismbbyte.obj
 0001:00106dd0       __ismbbalpha               00507dd0 f   LIBCMTD:ismbbyte.obj
 0001:00106df0       __ismbbalpha_l             00507df0 f   LIBCMTD:ismbbyte.obj
 0001:00106e10       __ismbbblank               00507e10 f   LIBCMTD:ismbbyte.obj
 0001:00106e40       __ismbbblank_l             00507e40 f   LIBCMTD:ismbbyte.obj
 0001:00106e80       __ismbbgraph               00507e80 f   LIBCMTD:ismbbyte.obj
 0001:00106ea0       __ismbbgraph_l             00507ea0 f   LIBCMTD:ismbbyte.obj
 0001:00106ec0       __ismbbkalnum              00507ec0 f   LIBCMTD:ismbbyte.obj
 0001:00106ee0       __ismbbkalnum_l            00507ee0 f   LIBCMTD:ismbbyte.obj
 0001:00106f00       __ismbbkana                00507f00 f   LIBCMTD:ismbbyte.obj
 0001:00106f20       __ismbbkana_l              00507f20 f   LIBCMTD:ismbbyte.obj
 0001:00106f90       __ismbbkprint              00507f90 f   LIBCMTD:ismbbyte.obj
 0001:00106fb0       __ismbbkprint_l            00507fb0 f   LIBCMTD:ismbbyte.obj
 0001:00106fd0       __ismbbkpunct              00507fd0 f   LIBCMTD:ismbbyte.obj
 0001:00106ff0       __ismbbkpunct_l            00507ff0 f   LIBCMTD:ismbbyte.obj
 0001:00107010       __ismbblead                00508010 f   LIBCMTD:ismbbyte.obj
 0001:00107030       __ismbblead_l              00508030 f   LIBCMTD:ismbbyte.obj
 0001:00107050       __ismbbprint               00508050 f   LIBCMTD:ismbbyte.obj
 0001:00107070       __ismbbprint_l             00508070 f   LIBCMTD:ismbbyte.obj
 0001:00107090       __ismbbpunct               00508090 f   LIBCMTD:ismbbyte.obj
 0001:001070b0       __ismbbpunct_l             005080b0 f   LIBCMTD:ismbbyte.obj
 0001:001070d0       __ismbbtrail               005080d0 f   LIBCMTD:ismbbyte.obj
 0001:001070f0       __ismbbtrail_l             005080f0 f   LIBCMTD:ismbbyte.obj
 0001:00107110       __chdrive                  00508110 f   LIBCMTD:drive.obj
 0001:00107230       __getdrive                 00508230 f   LIBCMTD:drive.obj
 0001:001073e0       __mbctoupper               005083e0 f   LIBCMTD:mbtoupr.obj
 0001:00107400       __mbctoupper_l             00508400 f   LIBCMTD:mbtoupr.obj
 0001:00107580       __wrename                  00508580 f   LIBCMTD:wrename.obj
 0001:001075d0       ___loctotime64_t           005085d0 f   LIBCMTD:dtoxtm64.obj
 0001:00107950       _wcsncpy_s                 00508950 f   LIBCMTD:wcsncpy_s.obj
 0001:00107eb0       ___crtGetLocaleInfoA       00508eb0 f   LIBCMTD:a_loc.obj
 0001:00107f00       _GetTableIndexFromLcid     00508f00 f   LIBCMTD:winapinls.obj
 0001:00107f70       _GetTableIndexFromLocaleName 00508f70 f   LIBCMTD:winapinls.obj
 0001:00108000       ___crtCompareStringEx      00509000 f   LIBCMTD:winapinls.obj
 0001:00108070       ___crtDownlevelLCIDToLocaleName 00509070 f   LIBCMTD:winapinls.obj
 0001:00108140       ___crtDownlevelLocaleNameToLCID 00509140 f   LIBCMTD:winapinls.obj
 0001:001081a0       ___crtEnumSystemLocalesEx  005091a0 f   LIBCMTD:winapinls.obj
 0001:00108210       ___crtGetDateFormatEx      00509210 f   LIBCMTD:winapinls.obj
 0001:00108280       ___crtGetLocaleInfoEx      00509280 f   LIBCMTD:winapinls.obj
 0001:001082e0       ___crtGetTimeFormatEx      005092e0 f   LIBCMTD:winapinls.obj
 0001:00108350       ___crtGetUserDefaultLocaleName 00509350 f   LIBCMTD:winapinls.obj
 0001:001083a0       ___crtIsValidLocaleName    005093a0 f   LIBCMTD:winapinls.obj
 0001:001083e0       ___crtLCMapStringEx        005093e0 f   LIBCMTD:winapinls.obj
 0001:00108450       ___wcsnicmp_ascii          00509450 f   LIBCMTD:winapinls.obj
 0001:00108520       __free_base                00509520 f   LIBCMTD:free.obj
 0001:00108570       __realloc_base             00509570 f   LIBCMTD:realloc.obj
 0001:00108670       __expand_base              00509670 f   LIBCMTD:expand.obj
 0001:001087e0       __heapchk                  005097e0 f   LIBCMTD:heapchk.obj
 0001:00108810       __heapset                  00509810 f   LIBCMTD:heapchk.obj
 0001:00108820       __heap_alloc_base          00509820 f i LIBCMTD:malloc.obj
 0001:00108880       __malloc_base              00509880 f   LIBCMTD:malloc.obj
 0001:00108910       __trandisp1                00509910 f   LIBCMTD:87disp.obj
 0001:00108977       __trandisp2                00509977 f   LIBCMTD:87disp.obj
 0001:00108a03       __rttospopde               00509a03     LIBCMTD:87disp.obj
 0001:00108a08       __rttospop                 00509a08     LIBCMTD:87disp.obj
 0001:00108a0a       __rtnospop                 00509a0a     LIBCMTD:87disp.obj
 0001:00108a0c       __rttosnpop                00509a0c     LIBCMTD:87disp.obj
 0001:00108a0d       __rtnospopde               00509a0d     LIBCMTD:87disp.obj
 0001:00108a14       __rtzeropop                00509a14     LIBCMTD:87disp.obj
 0001:00108a16       __rtzeronpop               00509a16     LIBCMTD:87disp.obj
 0001:00108a1b       __rtonepop                 00509a1b     LIBCMTD:87disp.obj
 0001:00108a1d       __rtonenpop                00509a1d     LIBCMTD:87disp.obj
 0001:00108a22       __tosnan1                  00509a22     LIBCMTD:87disp.obj
 0001:00108a4d       __nosnan2                  00509a4d     LIBCMTD:87disp.obj
 0001:00108a4f       __tosnan2                  00509a4f     LIBCMTD:87disp.obj
 0001:00108a77       __nan2                     00509a77     LIBCMTD:87disp.obj
 0001:00108ab6       __rtindfpop                00509ab6     LIBCMTD:87disp.obj
 0001:00108ab8       __rtindfnpop               00509ab8     LIBCMTD:87disp.obj
 0001:00108ac9       __rttosnpopde              00509ac9     LIBCMTD:87disp.obj
 0001:00108ad3       __rtchsifneg               00509ad3     LIBCMTD:87disp.obj
 0001:00108ae0       __startTwoArgErrorHandling 00509ae0 f   LIBCMTD:genexcep.obj
 0001:00108af7       __startOneArgErrorHandling 00509af7 f   LIBCMTD:genexcep.obj
 0001:00108b40       __twoToTOS                 00509b40 f   LIBCMTD:common.obj
 0001:00108b55       __load_CW                  00509b55 f   LIBCMTD:common.obj
 0001:00108b6c       __convertTOStoQNaN         00509b6c f   LIBCMTD:common.obj
 0001:00108b85       __fload_withFB             00509b85 f   LIBCMTD:common.obj
 0001:00108bc8       __checkTOS_withFB          00509bc8 f   LIBCMTD:common.obj
 0001:00108bde       __fast_exit                00509bde f   LIBCMTD:common.obj
 0001:00108beb       __math_exit                00509beb f   LIBCMTD:common.obj
 0001:00108c15       __check_overflow_exit      00509c15 f   LIBCMTD:common.obj
 0001:00108c29       __check_range_exit         00509c29 f   LIBCMTD:common.obj
 0001:00108cd0       __matherr                  00509cd0 f   LIBCMTD:matherr.obj
 0001:00108ce0       ?_ValidateExecute@@YAHP6GHXZ@Z 00509ce0 f   LIBCMTD:validate.obj
 0001:00108d00       ?_ValidateRead@@YAHPBXI@Z  00509d00 f   LIBCMTD:validate.obj
 0001:00108d20       ?_ValidateWrite@@YAHPAXI@Z 00509d20 f   LIBCMTD:validate.obj
 0001:00108d40       ??0Block@_HeapManager@@QAE@XZ 00509d40 f i LIBCMTD:undname.obj
 0001:00108d60       ??0DName@@QAE@AAPBDD@Z     00509d60 f   LIBCMTD:undname.obj
 0001:00109020       ??0DName@@QAE@ABV0@@Z      0050a020 f i LIBCMTD:undname.obj
 0001:00109040       ??0DName@@QAE@D@Z          0050a040 f   LIBCMTD:undname.obj
 0001:00109120       ??0DName@@QAE@PAV0@@Z      0050a120 f   LIBCMTD:undname.obj
 0001:00109260       ??0DName@@QAE@PBD@Z        0050a260 f   LIBCMTD:undname.obj
 0001:00109350       ??0DName@@QAE@W4DNameStatus@@@Z 0050a350 f   LIBCMTD:undname.obj
 0001:00109470       ??0DName@@QAE@XZ           0050a470 f i LIBCMTD:undname.obj
 0001:00109530       ??0DName@@QAE@_J@Z         0050a530 f   LIBCMTD:undname.obj
 0001:001096b0       ??0DName@@QAE@_K@Z         0050a6b0 f   LIBCMTD:undname.obj
 0001:001097f0       ??0DNameNode@@IAE@XZ       0050a7f0 f   LIBCMTD:undname.obj
 0001:00109810       ??0DNameStatusNode@@AAE@W4DNameStatus@@@Z 0050a810 f   LIBCMTD:undname.obj
 0001:00109860       ??0Replicator@@QAE@XZ      0050a860 f i LIBCMTD:undname.obj
 0001:00109880       ??0UnDecorator@@QAE@PADPBDHP6APADJ@ZK@Z 0050a880 f i LIBCMTD:undname.obj
 0001:00109920       ??0charNode@@QAE@D@Z       0050a920 f   LIBCMTD:undname.obj
 0001:00109950       ??0pDNameNode@@QAE@PAVDName@@@Z 0050a950 f   LIBCMTD:undname.obj
 0001:001099b0       ??0pairNode@@QAE@PAVDNameNode@@0@Z 0050a9b0 f   LIBCMTD:undname.obj
 0001:001099f0       ??0pcharNode@@QAE@PBDH@Z   0050a9f0 f   LIBCMTD:undname.obj
 0001:00109a90       ??2@YAPAXIAAV_HeapManager@@H@Z 0050aa90 f i LIBCMTD:undname.obj
 0001:00109ab0       ??4DName@@QAEAAV0@ABV0@@Z  0050aab0 f   LIBCMTD:undname.obj
 0001:00109ad0       ??4DName@@QAEAAV0@D@Z      0050aad0 f i LIBCMTD:undname.obj
 0001:00109bb0       ??4DName@@QAEAAV0@PAV0@@Z  0050abb0 f   LIBCMTD:undname.obj
 0001:00109ce0       ??4DName@@QAEAAV0@PBD@Z    0050ace0 f   LIBCMTD:undname.obj
 0001:00109dc0       ??4DName@@QAEAAV0@W4DNameStatus@@@Z 0050adc0 f   LIBCMTD:undname.obj
 0001:00109ec0       ??AReplicator@@QBE?AVDName@@H@Z 0050aec0 f   LIBCMTD:undname.obj
 0001:00109f30       ??BUnDecorator@@QAEPADXZ   0050af30 f i LIBCMTD:undname.obj
 0001:0010a1e0       ??H@YA?AVDName@@DABV0@@Z   0050b1e0 f i LIBCMTD:undname.obj
 0001:0010a210       ??H@YA?AVDName@@PBDABV0@@Z 0050b210 f i LIBCMTD:undname.obj
 0001:0010a240       ??H@YA?AVDName@@W4DNameStatus@@ABV0@@Z 0050b240 f i LIBCMTD:undname.obj
 0001:0010a270       ??HDName@@QBE?AV0@ABV0@@Z  0050b270 f   LIBCMTD:undname.obj
 0001:0010a2b0       ??HDName@@QBE?AV0@D@Z      0050b2b0 f   LIBCMTD:undname.obj
 0001:0010a2f0       ??HDName@@QBE?AV0@PAV0@@Z  0050b2f0 f   LIBCMTD:undname.obj
 0001:0010a330       ??HDName@@QBE?AV0@PBD@Z    0050b330 f   LIBCMTD:undname.obj
 0001:0010a370       ??HDName@@QBE?AV0@W4DNameStatus@@@Z 0050b370 f   LIBCMTD:undname.obj
 0001:0010a3b0       ??YDName@@QAEAAV0@ABV0@@Z  0050b3b0 f   LIBCMTD:undname.obj
 0001:0010a420       ??YDName@@QAEAAV0@D@Z      0050b420 f   LIBCMTD:undname.obj
 0001:0010a4a0       ??YDName@@QAEAAV0@PAV0@@Z  0050b4a0 f   LIBCMTD:undname.obj
 0001:0010a550       ??YDName@@QAEAAV0@PBD@Z    0050b550 f   LIBCMTD:undname.obj
 0001:0010a5f0       ??YDName@@QAEAAV0@W4DNameStatus@@@Z 0050b5f0 f   LIBCMTD:undname.obj
 0001:0010a650       ??YReplicator@@QAEAAV0@ABVDName@@@Z 0050b650 f   LIBCMTD:undname.obj
 0001:0010a6e0       ??_5DName@@QAEAAV0@ABV0@@Z 0050b6e0 f   LIBCMTD:undname.obj
 0001:0010a740       ?Constructor@_HeapManager@@QAEXP6APAXI@ZP6AXPAX@Z@Z 0050b740 f i LIBCMTD:undname.obj
 0001:0010a780       ?Destructor@_HeapManager@@QAEXXZ 0050b780 f i LIBCMTD:undname.obj
 0001:0010a7d0       ?UScore@UnDecorator@@SAPBDW4Tokens@@@Z 0050b7d0 f   LIBCMTD:undname.obj
 0001:0010a800       ?append@DName@@AAEXPAVDNameNode@@@Z 0050b800 f   LIBCMTD:undname.obj
 0001:0010a890       ?composeDeclaration@UnDecorator@@CA?AVDName@@ABV2@@Z 0050b890 f i LIBCMTD:undname.obj
 0001:0010c510       ?dbGetString@DName@@QBEPADXZ 0050d510 f   LIBCMTD:undname.obj
 0001:0010c530       ?doAccessSpecifiers@UnDecorator@@SAHXZ 0050d530 f i LIBCMTD:undname.obj
 0001:0010c560       ?doAllocationLanguage@UnDecorator@@SAHXZ 0050d560 f i LIBCMTD:undname.obj
 0001:0010c590       ?doAllocationModel@UnDecorator@@SAHXZ 0050d590 f i LIBCMTD:undname.obj
 0001:0010c5c0       ?doEcsu@UnDecorator@@SAHXZ 0050d5c0 f i LIBCMTD:undname.obj
 0001:0010c5f0       ?doEllipsis@UnDecorator@@SAHXZ 0050d5f0 f i LIBCMTD:undname.obj
 0001:0010c620       ?doFunctionReturns@UnDecorator@@SAHXZ 0050d620 f i LIBCMTD:undname.obj
 0001:0010c650       ?doMSKeywords@UnDecorator@@SAHXZ 0050d650 f i LIBCMTD:undname.obj
 0001:0010c680       ?doMemberTypes@UnDecorator@@SAHXZ 0050d680 f i LIBCMTD:undname.obj
 0001:0010c6b0       ?doNameOnly@UnDecorator@@SAHXZ 0050d6b0 f i LIBCMTD:undname.obj
 0001:0010c6c0       ?doNoIdentCharCheck@UnDecorator@@SAHXZ 0050d6c0 f i LIBCMTD:undname.obj
 0001:0010c6d0       ?doPchar@DName@@AAEXPBDH@Z 0050d6d0 f   LIBCMTD:undname.obj
 0001:0010c810       ?doPtr64@UnDecorator@@SAHXZ 0050d810 f i LIBCMTD:undname.obj
 0001:0010c840       ?doRestrictionSpec@UnDecorator@@SAHXZ 0050d840 f i LIBCMTD:undname.obj
 0001:0010c870       ?doThisTypes@UnDecorator@@SAHXZ 0050d870 f i LIBCMTD:undname.obj
 0001:0010c8a0       ?doThrowTypes@UnDecorator@@SAHXZ 0050d8a0 f i LIBCMTD:undname.obj
 0001:0010c8d0       ?doTypeOnly@UnDecorator@@SAHXZ 0050d8d0 f i LIBCMTD:undname.obj
 0001:0010c8e0       ?doUnderScore@UnDecorator@@SAHXZ 0050d8e0 f i LIBCMTD:undname.obj
 0001:0010c910       ?getArgumentList@UnDecorator@@CA?AVDName@@XZ 0050d910 f   LIBCMTD:undname.obj
 0001:0010ca60       ?getArgumentTypes@UnDecorator@@CA?AVDName@@XZ 0050da60 f   LIBCMTD:undname.obj
 0001:0010cbc0       ?getArrayType@UnDecorator@@CA?AVDName@@ABV2@@Z 0050dbc0 f i LIBCMTD:undname.obj
 0001:0010ce00       ?getBasedType@UnDecorator@@CA?AVDName@@XZ 0050de00 f   LIBCMTD:undname.obj
 0001:0010cec0       ?getBasicDataType@UnDecorator@@CA?AVDName@@ABV2@@Z 0050dec0 f   LIBCMTD:undname.obj
 0001:0010d480       ?getCallIndex@UnDecorator@@CA?AVDName@@XZ 0050e480 f i LIBCMTD:undname.obj
 0001:0010d4a0       ?getCallingConvention@UnDecorator@@CA?AVDName@@XZ 0050e4a0 f   LIBCMTD:undname.obj
 0001:0010d630       ?getDataIndirectType@UnDecorator@@CA?AVDName@@ABV2@PBD0H@Z 0050e630 f   LIBCMTD:undname.obj
 0001:0010dd50       ?getDataIndirectType@UnDecorator@@CA?AVDName@@XZ 0050ed50 f i LIBCMTD:undname.obj
 0001:0010dd90       ?getDataType@UnDecorator@@CA?AVDName@@PAV2@@Z 0050ed90 f   LIBCMTD:undname.obj
 0001:0010deb0       ?getDecoratedName@UnDecorator@@CA?AVDName@@XZ 0050eeb0 f   LIBCMTD:undname.obj
 0001:0010e1d0       ?getDimension@UnDecorator@@CA?AVDName@@_N@Z 0050f1d0 f   LIBCMTD:undname.obj
 0001:0010e480       ?getDispatchTarget@UnDecorator@@CA?AVDName@@XZ 0050f480 f   LIBCMTD:undname.obj
 0001:0010e520       ?getDisplacement@UnDecorator@@CA?AVDName@@XZ 0050f520 f i LIBCMTD:undname.obj
 0001:0010e540       ?getECSUDataType@UnDecorator@@CA?AVDName@@XZ 0050f540 f   LIBCMTD:undname.obj
 0001:0010e710       ?getECSUName@UnDecorator@@CA?AVDName@@XZ 0050f710 f i LIBCMTD:undname.obj
 0001:0010e730       ?getEnumType@UnDecorator@@CA?AVDName@@XZ 0050f730 f i LIBCMTD:undname.obj
 0001:0010e880       ?getExtendedDataIndirectType@UnDecorator@@CA?AVDName@@AAPBDAA_NH@Z 0050f880 f   LIBCMTD:undname.obj
 0001:0010ead0       ?getExternalDataType@UnDecorator@@CA?AVDName@@ABV2@@Z 0050fad0 f i LIBCMTD:undname.obj
 0001:0010eb60       ?getFunctionIndirectType@UnDecorator@@CA?AVDName@@ABV2@@Z 0050fb60 f   LIBCMTD:undname.obj
 0001:0010efd0       ?getGuardNumber@UnDecorator@@CA?AVDName@@XZ 0050ffd0 f i LIBCMTD:undname.obj
 0001:0010eff0       ?getLastChar@DName@@QBEDXZ 0050fff0 f i LIBCMTD:undname.obj
 0001:0010f020       ?getLastChar@DNameStatusNode@@UBEDXZ 00510020 f i LIBCMTD:undname.obj
 0001:0010f050       ?getLastChar@charNode@@UBEDXZ 00510050 f i LIBCMTD:undname.obj
 0001:0010f070       ?getLastChar@pDNameNode@@UBEDXZ 00510070 f i LIBCMTD:undname.obj
 0001:0010f0a0       ?getLastChar@pairNode@@UBEDXZ 005100a0 f i LIBCMTD:undname.obj
 0001:0010f0f0       ?getLastChar@pcharNode@@UBEDXZ 005100f0 f i LIBCMTD:undname.obj
 0001:0010f130       ?getLexicalFrame@UnDecorator@@CA?AVDName@@XZ 00510130 f i LIBCMTD:undname.obj
 0001:0010f170       ?getMemory@_HeapManager@@QAEPAXIH@Z 00510170 f   LIBCMTD:undname.obj
 0001:0010f280       ?getNumberOfDimensions@UnDecorator@@CAHXZ 00510280 f   LIBCMTD:undname.obj
 0001:0010f380       ?getOperatorName@UnDecorator@@CA?AVDName@@_NPA_N@Z 00510380 f i LIBCMTD:undname.obj
 0001:0010fd10       ?getPointerType@UnDecorator@@CA?AVDName@@ABV2@0@Z 00510d10 f i LIBCMTD:undname.obj
 0001:0010fd40       ?getPointerTypeArray@UnDecorator@@CA?AVDName@@ABV2@0@Z 00510d40 f i LIBCMTD:undname.obj
 0001:0010fd70       ?getPrimaryDataType@UnDecorator@@CA?AVDName@@ABV2@@Z 00510d70 f   LIBCMTD:undname.obj
 0001:00110110       ?getPtrRefDataType@UnDecorator@@CA?AVDName@@ABV2@H@Z 00511110 f i LIBCMTD:undname.obj
 0001:00110250       ?getPtrRefType@UnDecorator@@CA?AVDName@@ABV2@0PBD@Z 00511250 f   LIBCMTD:undname.obj
 0001:001103c0       ?getReferenceType@UnDecorator@@CA?AVDName@@ABV2@0PBD@Z 005113c0 f i LIBCMTD:undname.obj
 0001:001103e0       ?getRestrictionSpec@UnDecorator@@CA?AVDName@@XZ 005113e0 f   LIBCMTD:undname.obj
 0001:00110530       ?getReturnType@UnDecorator@@CA?AVDName@@PAV2@@Z 00511530 f   LIBCMTD:undname.obj
 0001:00110580       ?getScope@UnDecorator@@CA?AVDName@@XZ 00511580 f   LIBCMTD:undname.obj
 0001:00110a70       ?getScopedName@UnDecorator@@CA?AVDName@@XZ 00511a70 f   LIBCMTD:undname.obj
 0001:00110b90       ?getSignedDimension@UnDecorator@@CA?AVDName@@XZ 00511b90 f   LIBCMTD:undname.obj
 0001:00110c10       ?getStorageConvention@UnDecorator@@CA?AVDName@@XZ 00511c10 f i LIBCMTD:undname.obj
 0001:00110c30       ?getString@DName@@QBEPADPAD0@Z 00511c30 f i LIBCMTD:undname.obj
 0001:00110c70       ?getString@DName@@QBEPADPADH@Z 00511c70 f i LIBCMTD:undname.obj
 0001:00110d00       ?getString@DNameStatusNode@@UBEPADPAD0@Z 00511d00 f i LIBCMTD:undname.obj
 0001:00110d40       ?getString@charNode@@UBEPADPAD0@Z 00511d40 f i LIBCMTD:undname.obj
 0001:00110d70       ?getString@pDNameNode@@UBEPADPAD0@Z 00511d70 f i LIBCMTD:undname.obj
 0001:00110db0       ?getString@pairNode@@UBEPADPAD0@Z 00511db0 f i LIBCMTD:undname.obj
 0001:00110e10       ?getString@pcharNode@@UBEPADPAD0@Z 00511e10 f i LIBCMTD:undname.obj
 0001:00110e40       ?getStringEncoding@UnDecorator@@CA?AVDName@@PADH@Z 00511e40 f   LIBCMTD:undname.obj
 0001:00110f50       ?getStringHelper@@YAPADPAD00H@Z 00511f50 f i LIBCMTD:undname.obj
 0001:00110f90       ?getSymbolName@UnDecorator@@CA?AVDName@@XZ 00511f90 f i LIBCMTD:undname.obj
 0001:00111020       ?getTemplateArgumentList@UnDecorator@@CA?AVDName@@XZ 00512020 f   LIBCMTD:undname.obj
 0001:00111340       ?getTemplateConstant@UnDecorator@@CA?AVDName@@XZ 00512340 f   LIBCMTD:undname.obj
 0001:00111830       ?getTemplateName@UnDecorator@@CA?AVDName@@_N@Z 00512830 f   LIBCMTD:undname.obj
 0001:00111a00       ?getThisType@UnDecorator@@CA?AVDName@@XZ 00512a00 f i LIBCMTD:undname.obj
 0001:00111a40       ?getThrowTypes@UnDecorator@@CA?AVDName@@XZ 00512a40 f   LIBCMTD:undname.obj
 0001:00111af0       ?getTypeEncoding@UnDecorator@@CAHXZ 00512af0 f i LIBCMTD:undname.obj
 0001:00112530       ?getVCallThunkType@UnDecorator@@CA?AVDName@@XZ 00513530 f i LIBCMTD:undname.obj
 0001:00112590       ?getVbTableType@UnDecorator@@CA?AVDName@@ABV2@@Z 00513590 f i LIBCMTD:undname.obj
 0001:001125b0       ?getVdispMapType@UnDecorator@@CA?AVDName@@ABV2@@Z 005135b0 f i LIBCMTD:undname.obj
 0001:00112620       ?getVfTableType@UnDecorator@@CA?AVDName@@ABV2@@Z 00513620 f i LIBCMTD:undname.obj
 0001:001127e0       ?getZName@UnDecorator@@CA?AVDName@@_N0@Z 005137e0 f   LIBCMTD:undname.obj
 0001:00112a90       ?haveTemplateParameters@UnDecorator@@SAHXZ 00513a90 f i LIBCMTD:undname.obj
 0001:00112aa0       ?isArray@DName@@QBEHXZ     00513aa0 f i LIBCMTD:undname.obj
 0001:00112ac0       ?isComArray@DName@@QBEHXZ  00513ac0 f i LIBCMTD:undname.obj
 0001:00112ae0       ?isEmpty@DName@@QBEHXZ     00513ae0 f i LIBCMTD:undname.obj
 0001:00112b10       ?isFull@Replicator@@QBEHXZ 00513b10 f i LIBCMTD:undname.obj
 0001:00112b40       ?isNoTE@DName@@QBEHXZ      00513b40 f i LIBCMTD:undname.obj
 0001:00112b60       ?isPinPtr@DName@@QBEHXZ    00513b60 f i LIBCMTD:undname.obj
 0001:00112b80       ?isPtrRef@DName@@QBEHXZ    00513b80 f i LIBCMTD:undname.obj
 0001:00112ba0       ?isUDC@DName@@QBEHXZ       00513ba0 f i LIBCMTD:undname.obj
 0001:00112be0       ?isUDTThunk@DName@@QBEHXZ  00513be0 f i LIBCMTD:undname.obj
 0001:00112c20       ?isVCallThunk@DName@@QBEHXZ 00513c20 f i LIBCMTD:undname.obj
 0001:00112c40       ?isValid@DName@@QBEHXZ     00513c40 f i LIBCMTD:undname.obj
 0001:00112c80       ?length@DName@@QBEHXZ      00513c80 f i LIBCMTD:undname.obj
 0001:00112cb0       ?length@DNameStatusNode@@UBEHXZ 00513cb0 f i LIBCMTD:undname.obj
 0001:00112cd0       ?length@charNode@@UBEHXZ   00513cd0 f i LIBCMTD:undname.obj
 0001:00112ce0       ?length@pDNameNode@@UBEHXZ 00513ce0 f i LIBCMTD:undname.obj
 0001:00112d10       ?length@pairNode@@UBEHXZ   00513d10 f i LIBCMTD:undname.obj
 0001:00112d60       ?length@pcharNode@@UBEHXZ  00513d60 f i LIBCMTD:undname.obj
 0001:00112d80       ?make@DNameStatusNode@@SAPAV1@W4DNameStatus@@@Z 00513d80 f i LIBCMTD:undname.obj
 0001:00112e30       ?setIsArray@DName@@QAEXXZ  00513e30 f i LIBCMTD:undname.obj
 0001:00112e50       ?setIsComArray@DName@@QAEXXZ 00513e50 f i LIBCMTD:undname.obj
 0001:00112e70       ?setIsNoTE@DName@@QAEXXZ   00513e70 f i LIBCMTD:undname.obj
 0001:00112e90       ?setIsPinPtr@DName@@QAEXXZ 00513e90 f i LIBCMTD:undname.obj
 0001:00112eb0       ?setIsUDC@DName@@QAEXXZ    00513eb0 f i LIBCMTD:undname.obj
 0001:00112ee0       ?setIsVCallThunk@DName@@QAEXXZ 00513ee0 f i LIBCMTD:undname.obj
 0001:00112f00       ?setPtrRef@DName@@QAEAAV1@XZ 00513f00 f i LIBCMTD:undname.obj
 0001:00112f20       ?status@DName@@QBE?AW4DNameStatus@@XZ 00513f20 f i LIBCMTD:undname.obj
 0001:00113020       ___unDName                 00514020 f   LIBCMTD:undname.obj
 0001:00113100       ___unDNameEx               00514100 f   LIBCMTD:undname.obj
 0001:001131e0       __fptostr                  005141e0 f   LIBCMTD:_fptostr.obj
 0001:00113500       ___crt_atoflt_l            00514500 f   LIBCMTD:atodbl.obj
 0001:00113610       __atodbl                   00514610 f   LIBCMTD:atodbl.obj
 0001:00113630       __atodbl_l                 00514630 f   LIBCMTD:atodbl.obj
 0001:00113730       __atoflt                   00514730 f   LIBCMTD:atodbl.obj
 0001:00113750       __atoflt_l                 00514750 f   LIBCMTD:atodbl.obj
 0001:00113770       __atoldbl                  00514770 f   LIBCMTD:atodbl.obj
 0001:00113790       __atoldbl_l                00514790 f   LIBCMTD:atodbl.obj
 0001:00113890       ___dtold                   00514890 f   LIBCMTD:cfout.obj
 0001:001139f0       __fltout2                  005149f0 f   LIBCMTD:cfout.obj
 0001:00113aa0       __get_output_format        00514aa0 f   LIBCMTD:outputformat.obj
 0001:00113ab0       __set_output_format        00514ab0 f   LIBCMTD:outputformat.obj
 0001:00113b50       __controlfp_s              00514b50 f   LIBCMTD:contrlfp.obj
 0001:00113c40       __fptrap                   00514c40 f   LIBCMTD:crt0fp.obj
 0001:00113c50       ___free_lconv_mon          00514c50 f   LIBCMTD:initmon.obj
 0001:00113e00       ___init_monetary           00514e00 f   LIBCMTD:initmon.obj
 0001:00114410       ___free_lconv_num          00515410 f   LIBCMTD:initnum.obj
 0001:001144c0       ___init_numeric            005154c0 f   LIBCMTD:initnum.obj
 0001:00114890       ___free_lc_time            00515890 f   LIBCMTD:inittime.obj
 0001:001151c0       ___init_time               005161c0 f   LIBCMTD:inittime.obj
 0001:001161c0       _localeconv                005171c0 f   LIBCMTD:lconv.obj
 0001:00116210       ___init_collate            00517210 f   LIBCMTD:initcoll.obj
 0001:00116220       _wcscmp                    00517220 f   LIBCMTD:wcscmp.obj
 0001:00116280       _wcscspn                   00517280 f   LIBCMTD:wcscspn.obj
 0001:001162f0       _wcsnlen                   005172f0 f   LIBCMTD:wcslen_s.obj
 0001:00116330       _wcsncmp                   00517330 f   LIBCMTD:wcsncmp.obj
 0001:00116390       _wcspbrk                   00517390 f   LIBCMTD:wcspbrk.obj
 0001:00116f20       ___get_qualified_locale    00517f20 f   LIBCMTD:getqloc.obj
 0001:00117ef0       ___get_qualified_locale_downlevel 00518ef0 f   LIBCMTD:getqloc_downlevel.obj
 0001:001181c0       __ungetc_nolock            005191c0 f   LIBCMTD:ungetc.obj
 0001:001183f0       _ungetc                    005193f0 f   LIBCMTD:ungetc.obj
 0001:00118500       __getbuf                   00519500 f   LIBCMTD:_getbuf.obj
 0001:001185d0       __wctomb_l                 005195d0 f   LIBCMTD:wctomb.obj
 0001:00118650       __wctomb_s_l               00519650 f   LIBCMTD:wctomb.obj
 0001:001189a0       _wctomb                    005199a0 f   LIBCMTD:wctomb.obj
 0001:001189f0       _wctomb_s                  005199f0 f   LIBCMTD:wctomb.obj
 0001:00118a10       __output_p_l               00519a10 f   LIBCMTD:outputp.obj
 0001:0011c810       __validate_param_reuseA    0051d810 f   LIBCMTD:outputp.obj
 0001:0011cb00       _get_crtdouble_arg         0051db00 f i LIBCMTD:outputp.obj
 0001:0011ccc0       __output_s_l               0051dcc0 f   LIBCMTD:outputs.obj
 0001:0011e670       ___vswprintf_l             0051f670 f   LIBCMTD:vswprint.obj
 0001:0011e690       __vscwprintf               0051f690 f   LIBCMTD:vswprint.obj
 0001:0011e6b0       __vscwprintf_helper        0051f6b0 f   LIBCMTD:vswprint.obj
 0001:0011e7a0       __vscwprintf_l             0051f7a0 f   LIBCMTD:vswprint.obj
 0001:0011e7c0       __vscwprintf_p             0051f7c0 f   LIBCMTD:vswprint.obj
 0001:0011e7e0       __vscwprintf_p_l           0051f7e0 f   LIBCMTD:vswprint.obj
 0001:0011e800       __vswprintf                0051f800 f   LIBCMTD:vswprint.obj
 0001:0011e820       __vswprintf_l              0051f820 f   LIBCMTD:vswprint.obj
 0001:0011ea40       __woutput_l                0051fa40 f   LIBCMTD:woutput.obj
 0001:00120460       __i64toa_s                 00521460 f   LIBCMTD:xtoas.obj
 0001:001204b0       __itoa_s                   005214b0 f   LIBCMTD:xtoas.obj
 0001:00120510       __ltoa_s                   00521510 f   LIBCMTD:xtoas.obj
 0001:00120550       __ui64toa_s                00521550 f   LIBCMTD:xtoas.obj
 0001:00120570       __ultoa_s                  00521570 f   LIBCMTD:xtoas.obj
 0001:00120970       __vfwprintf_l              00521970 f   LIBCMTD:vfwprint.obj
 0001:001209a0       __vfwprintf_p              005219a0 f   LIBCMTD:vfwprint.obj
 0001:001209c0       __vfwprintf_p_l            005219c0 f   LIBCMTD:vfwprint.obj
 0001:001209f0       __vfwprintf_s_l            005219f0 f   LIBCMTD:vfwprint.obj
 0001:00120a20       _vfwprintf                 00521a20 f   LIBCMTD:vfwprint.obj
 0001:00120a40       _vfwprintf_helper          00521a40 f   LIBCMTD:vfwprint.obj
 0001:00120bf0       _vfwprintf_s               00521bf0 f   LIBCMTD:vfwprint.obj
 0001:00120c10       __woutput_s_l              00521c10 f   LIBCMTD:woutputs.obj
 0001:00122360       __validate_param_reuseW    00523360 f   LIBCMTD:woutputp.obj
 0001:00122640       __woutput_p_l              00523640 f   LIBCMTD:woutputp.obj
 0001:00126140       __strtod_l                 00527140 f   LIBCMTD:strtod.obj
 0001:00126350       _strtod                    00527350 f   LIBCMTD:strtod.obj
 0001:00126370       __iswctype_l               00527370 f   LIBCMTD:iswctype.obj
 0001:00126390       _is_wctype                 00527390 f   LIBCMTD:iswctype.obj
 0001:001263b0       _iswctype                  005273b0 f   LIBCMTD:iswctype.obj
 0001:00126410       __strnicoll                00527410 f   LIBCMTD:strnicol.obj
 0001:00126450       __strnicoll_l              00527450 f   LIBCMTD:strnicol.obj
 0001:00126b70       ___crtCompareStringA       00527b70 f   LIBCMTD:a_cmp.obj
 0001:00126bd0       __towlower_l               00527bd0 f   LIBCMTD:towlower.obj
 0001:00126d20       _towlower                  00527d20 f   LIBCMTD:towlower.obj
 0001:00126d40       __wfullpath                00527d40 f   LIBCMTD:wfullpat.obj
 0001:00126d60       __wfullpath_dbg            00527d60 f   LIBCMTD:wfullpat.obj
 0001:00127080       ___wdtoxmode               00528080 f   LIBCMTD:wstat.obj
 0001:00127260       __wstat32                  00528260 f   LIBCMTD:wstat.obj
 0001:00127df0       ?_RTC_GetSrcLine@@YAHPAEPA_WKPAH1K@Z 00528df0 f   LIBCMTD:pdblkup.obj
 0001:001280a0       ___termconout              005290a0 f   LIBCMTD:initcon.obj
 0001:001280d0       ___initconout              005290d0 f   LIBCMTD:initcon.obj
 0001:00128100       _wcschr                    00529100 f   LIBCMTD:wcschr.obj
 0001:00128280       __wcsnicoll                00529280 f   LIBCMTD:wcsnicol.obj
 0001:001284d0       __wcsnicoll_l              005294d0 f   LIBCMTD:wcsnicol.obj
 0001:001287c0       __wsetenvp                 005297c0 f   LIBCMTD:wstdenvp.obj
 0001:00128950       ___mbtow_environ           00529950 f   LIBCMTD:mbtowenv.obj
 0001:00128a40       ___crtGetEnvironmentStringsW 00529a40 f   LIBCMTD:w_env.obj
 0001:00128af0       __mbsnbcmp                 00529af0 f   LIBCMTD:mbsnbcmp.obj
 0001:00128b10       __mbsnbcmp_l               00529b10 f   LIBCMTD:mbsnbcmp.obj
 0001:00128e30       __mbsnbicmp                00529e30 f   LIBCMTD:mbsnbicm.obj
 0001:00128e50       __mbsnbicmp_l              00529e50 f   LIBCMTD:mbsnbicm.obj
 0001:00129390       __chsize                   0052a390 f   LIBCMTD:chsize.obj
 0001:001293d0       __chsize_nolock            0052a3d0 f   LIBCMTD:chsize.obj
 0001:00129680       __chsize_s                 0052a680 f   LIBCMTD:chsize.obj
 0001:00129950       __87except                 0052a950 f   LIBCMTD:87except.obj
 0001:00129b50       __CopyMan                  0052ab50 f i LIBCMTD:intrncvt.obj
 0001:00129ba0       __FillZeroMan              0052aba0 f i LIBCMTD:intrncvt.obj
 0001:00129bd0       __IncMan                   0052abd0 f i LIBCMTD:intrncvt.obj
 0001:00129c80       __IsZeroMan                0052ac80 f i LIBCMTD:intrncvt.obj
 0001:00129cc0       __RoundMan                 0052acc0 f i LIBCMTD:intrncvt.obj
 0001:00129da0       __ShrMan                   0052ada0 f i LIBCMTD:intrncvt.obj
 0001:00129e90       __ZeroTail                 0052ae90 f i LIBCMTD:intrncvt.obj
 0001:00129f20       ___addl                    0052af20 f i LIBCMTD:intrncvt.obj
 0001:00129f60       __ld12cvt                  0052af60 f i LIBCMTD:intrncvt.obj
 0001:0012a220       __ld12tod                  0052b220 f   LIBCMTD:intrncvt.obj
 0001:0012a240       __ld12tof                  0052b240 f   LIBCMTD:intrncvt.obj
 0001:0012a260       __ld12told                 0052b260 f   LIBCMTD:intrncvt.obj
 0001:0012a360       ___STRINGTOLD_L            0052b360 f   LIBCMTD:strgtold.obj
 0001:0012a3d0       ___ld12mul                 0052b3d0 f i LIBCMTD:strgtold.obj
 0001:0012a7e0       ___multtenpow12            0052b7e0 f i LIBCMTD:strgtold.obj
 0001:0012a8c0       ___shl_12                  0052b8c0 f i LIBCMTD:strgtold.obj
 0001:0012a940       ___shr_12                  0052b940 f i LIBCMTD:strgtold.obj
 0001:0012a9c0       ___strgtold12_l            0052b9c0 f   LIBCMTD:strgtold.obj
 0001:0012b4b0       _$I10_OUTPUT               0052c4b0 f   LIBCMTD:x10fout.obj
 0001:0012bac0       ___add_12                  0052cac0 f i LIBCMTD:x10fout.obj
 0001:0012bd70       ___control87_2             0052cd70 f   LIBCMTD:ieee87.obj
 0001:0012c210       __clearfp                  0052d210 f   LIBCMTD:ieee87.obj
 0001:0012c250       __control87                0052d250 f i LIBCMTD:ieee87.obj
 0001:0012c300       __controlfp                0052d300 f   LIBCMTD:ieee87.obj
 0001:0012c320       __fpreset                  0052d320 f   LIBCMTD:ieee87.obj
 0001:0012c4e0       __set_controlfp            0052d4e0 f   LIBCMTD:ieee87.obj
 0001:0012c570       __statusfp                 0052d570 f   LIBCMTD:ieee87.obj
 0001:0012c5b0       __statusfp2                0052d5b0 f   LIBCMTD:ieee87.obj
 0001:0012c5f0       __wtoi                     0052d5f0 f   LIBCMTD:wtox.obj
 0001:0012c610       __wtoi64                   0052d610 f   LIBCMTD:wtox.obj
 0001:0012c630       __wtoi64_l                 0052d630 f   LIBCMTD:wtox.obj
 0001:0012c650       __wtoi_l                   0052d650 f   LIBCMTD:wtox.obj
 0001:0012c670       __wtol                     0052d670 f   LIBCMTD:wtox.obj
 0001:0012c690       __wtol_l                   0052d690 f   LIBCMTD:wtox.obj
 0001:0012c6b0       __wtoll                    0052d6b0 f   LIBCMTD:wtox.obj
 0001:0012c6d0       __wtoll_l                  0052d6d0 f   LIBCMTD:wtox.obj
 0001:0012c6f0       __wcsicmp                  0052d6f0 f   LIBCMTD:wcsicmp.obj
 0001:0012c8c0       __wcsicmp_l                0052d8c0 f   LIBCMTD:wcsicmp.obj
 0001:0012cb30       __wcsnicmp                 0052db30 f   LIBCMTD:wcsnicmp.obj
 0001:0012cd20       __wcsnicmp_l               0052dd20 f   LIBCMTD:wcsnicmp.obj
 0001:0012cf80       __fputwc_nolock            0052df80 f   LIBCMTD:fputwc.obj
 0001:0012d270       _fputwc                    0052e270 f   LIBCMTD:fputwc.obj
 0001:0012d380       _putwc                     0052e380 f   LIBCMTD:fputwc.obj
 0001:0012d760       __wcstol_l                 0052e760 f   LIBCMTD:wcstol.obj
 0001:0012d780       __wcstoul_l                0052e780 f   LIBCMTD:wcstol.obj
 0001:0012d7a0       _wcstol                    0052e7a0 f   LIBCMTD:wcstol.obj
 0001:0012d7c0       _wcstoul                   0052e7c0 f   LIBCMTD:wcstol.obj
 0001:0012d7e0       __fltin2                   0052e7e0 f   LIBCMTD:cfin.obj
 0001:0012d8c0       ___crtLCMapStringW         0052e8c0 f   LIBCMTD:w_map.obj
 0001:0012d900       __wgetcwd                  0052e900 f   LIBCMTD:wgetcwd.obj
 0001:0012d920       __wgetcwd_dbg              0052e920 f   LIBCMTD:wgetcwd.obj
 0001:0012d950       __wgetdcwd                 0052e950 f   LIBCMTD:wgetcwd.obj
 0001:0012d970       __wgetdcwd_dbg             0052e970 f   LIBCMTD:wgetcwd.obj
 0001:0012dc70       __fstat32                  0052ec70 f   LIBCMTD:fstat.obj
 0001:0012e2f0       _wcsrchr                   0052f2f0 f   LIBCMTD:wcsrchr.obj
 0001:0012e490       ___loctotime32_t           0052f490 f   LIBCMTD:dtoxtime.obj
 0001:0012e790       __wmakepath_s              0052f790 f   LIBCMTD:wmakepath_s.obj
 0001:0012eb50       __wsplitpath_s             0052fb50 f   LIBCMTD:wsplitpath_s.obj
 0001:0012f190       ___crtCompareStringW       00530190 f   LIBCMTD:w_cmp.obj
 0001:0012f230       ___mtold12                 00530230 f   LIBCMTD:mantold.obj
 0001:0012f8d0       __wcstof_l                 005308d0 f   LIBCMTD:wcstoq.obj
 0001:0012f9e0       __wcstoi64                 005309e0 f   LIBCMTD:wcstoq.obj
 0001:0012fa30       __wcstoi64_l               00530a30 f   LIBCMTD:wcstoq.obj
 0001:0012fa50       __wcstoimax_l              00530a50 f   LIBCMTD:wcstoq.obj
 0001:0012fa70       __wcstold_l                00530a70 f   LIBCMTD:wcstoq.obj
 0001:0012fa90       __wcstoll_l                00530a90 f   LIBCMTD:wcstoq.obj
 0001:0012fab0       __wcstoui64                00530ab0 f   LIBCMTD:wcstoq.obj
 0001:0012fb00       __wcstoui64_l              00530b00 f   LIBCMTD:wcstoq.obj
 0001:0012fb20       __wcstoull_l               00530b20 f   LIBCMTD:wcstoq.obj
 0001:0012fb40       __wcstoumax_l              00530b40 f   LIBCMTD:wcstoq.obj
 0001:0012fb60       _wcstof                    00530b60 f   LIBCMTD:wcstoq.obj
 0001:0012fb80       _wcstoimax                 00530b80 f   LIBCMTD:wcstoq.obj
 0001:0012fba0       _wcstold                   00530ba0 f   LIBCMTD:wcstoq.obj
 0001:0012fbc0       _wcstoll                   00530bc0 f   LIBCMTD:wcstoq.obj
 0001:0012fbe0       _wcstoull                  00530be0 f   LIBCMTD:wcstoq.obj
 0001:0012fc00       _wcstoumax                 00530c00 f   LIBCMTD:wcstoq.obj
 0001:0012fc20       __flswbuf                  00530c20 f   LIBCMTD:_flswbuf.obj
 0001:0012ff10       __wchartodigit             00530f10 f   LIBCMTD:wchtodig.obj
 0001:00130230       __wcstod_l                 00531230 f   LIBCMTD:wcstod.obj
 0001:001303f0       _wcstod                    005313f0 f   LIBCMTD:wcstod.obj
 0001:00130410       __wfltin2                  00531410 f   LIBCMTD:wcfin.obj
 0001:001304f0       ___WSTRINGTOLD_L           005314f0 f   LIBCMTD:wstrgtold.obj
 0001:00130560       ___wstrgtold12_l           00531560 f   LIBCMTD:wstrgtold.obj
 0001:00131058       _ImmAssociateContext@8     00532058 f   imm32:IMM32.dll
 0001:0013105e       _QueryPerformanceCounter@4 0053205e f   kernel32:KERNEL32.dll
 0001:00131064       _QueryPerformanceFrequency@4 00532064 f   kernel32:KERNEL32.dll
 0001:0013106a       _GetFullPathNameA@16       0053206a f   kernel32:KERNEL32.dll
 0001:00131070       _LocalFileTimeToFileTime@8 00532070 f   kernel32:KERNEL32.dll
 0001:00131076       _SetFileAttributesA@8      00532076 f   kernel32:KERNEL32.dll
 0001:0013107c       _GetVersion@0              0053207c f   kernel32:KERNEL32.dll
 0001:00131082       _GetLocalTime@4            00532082 f   kernel32:KERNEL32.dll
 0001:00131088       _DosDateTimeToFileTime@12  00532088 f   kernel32:KERNEL32.dll
 0001:0013108e       _SetVolumeLabelA@8         0053208e f   kernel32:KERNEL32.dll
 0001:00131094       _GetVolumeInformationA@32  00532094 f   kernel32:KERNEL32.dll
 0001:0013109a       _GetLocaleInfoA@16         0053209a f   kernel32:KERNEL32.dll
 0001:001310a0       _HeapAlloc@12              005320a0 f   kernel32:KERNEL32.dll
 0001:001310a6       _HeapFree@12               005320a6 f   kernel32:KERNEL32.dll
 0001:001310ac       _GetProcessHeap@0          005320ac f   kernel32:KERNEL32.dll
 0001:001310b2       _ReleaseMutex@4            005320b2 f   kernel32:KERNEL32.dll
 0001:001310b8       _CreateMutexA@12           005320b8 f   kernel32:KERNEL32.dll
 0001:001310be       _GetCurrentProcess@0       005320be f   kernel32:KERNEL32.dll
 0001:001310c4       _lstrcpynA@12              005320c4 f   kernel32:KERNEL32.dll
 0001:001310ca       _lstrcatA@8                005320ca f   kernel32:KERNEL32.dll
 0001:001310d0       _GetFileType@4             005320d0 f   kernel32:KERNEL32.dll
 0001:001310d6       _FatalExit@4               005320d6 f   kernel32:KERNEL32.dll
 0001:001310dc       _DuplicateHandle@28        005320dc f   kernel32:KERNEL32.dll
 0001:001310e2       _ReleaseSemaphore@12       005320e2 f   kernel32:KERNEL32.dll
 0001:001310e8       _GetCurrentThread@0        005320e8 f   kernel32:KERNEL32.dll
 0001:001310ee       _GetCurrentThreadId@0      005320ee f   kernel32:KERNEL32.dll
 0001:001310f4       _SetThreadPriority@8       005320f4 f   kernel32:KERNEL32.dll
 0001:001310fa       _TlsAlloc@0                005320fa f   kernel32:KERNEL32.dll
 0001:00131100       _TlsGetValue@4             00532100 f   kernel32:KERNEL32.dll
 0001:00131106       _TlsSetValue@8             00532106 f   kernel32:KERNEL32.dll
 0001:0013110c       _GetSystemTime@4           0053210c f   kernel32:KERNEL32.dll
 0001:00131112       _CreateSemaphoreA@16       00532112 f   kernel32:KERNEL32.dll
 0001:00131118       _EncodePointer@4           00532118 f   kernel32:KERNEL32.dll
 0001:0013111e       _DecodePointer@4           0053211e f   kernel32:KERNEL32.dll
 0001:00131124       _RaiseException@16         00532124 f   kernel32:KERNEL32.dll
 0001:0013112a       _RtlUnwind@16              0053212a f   kernel32:KERNEL32.dll
 0001:00131130       _IsDebuggerPresent@0       00532130 f   kernel32:KERNEL32.dll
 0001:00131136       _IsProcessorFeaturePresent@4 00532136 f   kernel32:KERNEL32.dll
 0001:0013113c       _GetModuleFileNameW@12     0053213c f   kernel32:KERNEL32.dll
 0001:00131142       _GetModuleHandleExW@12     00532142 f   kernel32:KERNEL32.dll
 0001:00131148       _GetSystemTimeAsFileTime@4 00532148 f   kernel32:KERNEL32.dll
 0001:0013114e       _WriteConsoleW@20          0053214e f   kernel32:KERNEL32.dll
 0001:00131154       _GetTimeZoneInformation@4  00532154 f   kernel32:KERNEL32.dll
 0001:0013115a       _SetStdHandle@8            0053215a f   kernel32:KERNEL32.dll
 0001:00131160       _ExitProcess@4             00532160 f   kernel32:KERNEL32.dll
 0001:00131166       _AreFileApisANSI@0         00532166 f   kernel32:KERNEL32.dll
 0001:0013116c       _GetCommandLineA@0         0053216c f   kernel32:KERNEL32.dll
 0001:00131172       _GetConsoleCP@0            00532172 f   kernel32:KERNEL32.dll
 0001:00131178       _GetConsoleMode@8          00532178 f   kernel32:KERNEL32.dll
 0001:0013117e       _SetFilePointerEx@20       0053217e f   kernel32:KERNEL32.dll
 0001:00131184       _ReadConsoleW@20           00532184 f   kernel32:KERNEL32.dll
 0001:0013118a       _GetCPInfo@8               0053218a f   kernel32:KERNEL32.dll
 0001:00131190       _GetDriveTypeW@4           00532190 f   kernel32:KERNEL32.dll
 0001:00131196       _SetEnvironmentVariableA@8 00532196 f   kernel32:KERNEL32.dll
 0001:0013119c       _SetCurrentDirectoryA@4    0053219c f   kernel32:KERNEL32.dll
 0001:001311a2       _GetCurrentDirectoryA@8    005321a2 f   kernel32:KERNEL32.dll
 0001:001311a8       _GetFileInformationByHandle@8 005321a8 f   kernel32:KERNEL32.dll
 0001:001311ae       _PeekNamedPipe@24          005321ae f   kernel32:KERNEL32.dll
 0001:001311b4       _ExitThread@4              005321b4 f   kernel32:KERNEL32.dll
 0001:001311ba       _LoadLibraryExW@12         005321ba f   kernel32:KERNEL32.dll
 0001:001311c0       _FatalAppExitA@8           005321c0 f   kernel32:KERNEL32.dll
 0001:001311c6       _UnhandledExceptionFilter@4 005321c6 f   kernel32:KERNEL32.dll
 0001:001311cc       _SetUnhandledExceptionFilter@4 005321cc f   kernel32:KERNEL32.dll
 0001:001311d2       _SetLastError@4            005321d2 f   kernel32:KERNEL32.dll
 0001:001311d8       _InitializeCriticalSectionAndSpinCount@8 005321d8 f   kernel32:KERNEL32.dll
 0001:001311de       _CreateEventW@16           005321de f   kernel32:KERNEL32.dll
 0001:001311e4       _TerminateProcess@8        005321e4 f   kernel32:KERNEL32.dll
 0001:001311ea       _TlsFree@4                 005321ea f   kernel32:KERNEL32.dll
 0001:001311f0       _GetStartupInfoW@4         005321f0 f   kernel32:KERNEL32.dll
 0001:001311f6       _GetModuleHandleW@4        005321f6 f   kernel32:KERNEL32.dll
 0001:001311fc       _CreateSemaphoreW@16       005321fc f   kernel32:KERNEL32.dll
 0001:00131202       _HeapValidate@12           00532202 f   kernel32:KERNEL32.dll
 0001:00131208       _GetSystemInfo@4           00532208 f   kernel32:KERNEL32.dll
 0001:0013120e       _IsValidCodePage@4         0053220e f   kernel32:KERNEL32.dll
 0001:00131214       _GetACP@0                  00532214 f   kernel32:KERNEL32.dll
 0001:0013121a       _GetOEMCP@0                0053221a f   kernel32:KERNEL32.dll
 0001:00131220       _SetConsoleCtrlHandler@8   00532220 f   kernel32:KERNEL32.dll
 0001:00131226       _OutputDebugStringW@4      00532226 f   kernel32:KERNEL32.dll
 0001:0013122c       _WaitForSingleObjectEx@12  0053222c f   kernel32:KERNEL32.dll
 0001:00131232       _GetFileAttributesExW@12   00532232 f   kernel32:KERNEL32.dll
 0001:00131238       _FindFirstFileExW@24       00532238 f   kernel32:KERNEL32.dll
 0001:0013123e       _SystemTimeToTzSpecificLocalTime@12 0053223e f   kernel32:KERNEL32.dll
 0001:00131244       _CreateDirectoryW@8        00532244 f   kernel32:KERNEL32.dll
 0001:0013124a       _GetCurrentProcessId@0     0053224a f   kernel32:KERNEL32.dll
 0001:00131250       _GetEnvironmentStringsW@0  00532250 f   kernel32:KERNEL32.dll
 0001:00131256       _FreeEnvironmentStringsW@4 00532256 f   kernel32:KERNEL32.dll
 0001:0013125c       _SetEnvironmentVariableW@8 0053225c f   kernel32:KERNEL32.dll
 0001:00131262       _GetStringTypeW@16         00532262 f   kernel32:KERNEL32.dll
 0001:00131268       _DeleteFileW@4             00532268 f   kernel32:KERNEL32.dll
 0001:0013126e       _SetFileAttributesW@8      0053226e f   kernel32:KERNEL32.dll
 0001:00131274       _CreateFileW@28            00532274 f   kernel32:KERNEL32.dll
 0001:0013127a       _SetCurrentDirectoryW@4    0053227a f   kernel32:KERNEL32.dll
 0001:00131280       _GetCurrentDirectoryW@8    00532280 f   kernel32:KERNEL32.dll
 0001:00131286       _MoveFileExW@12            00532286 f   kernel32:KERNEL32.dll
 0001:0013128c       _GetDateFormatW@24         0053228c f   kernel32:KERNEL32.dll
 0001:00131292       _GetTimeFormatW@24         00532292 f   kernel32:KERNEL32.dll
 0001:00131298       _CompareStringW@24         00532298 f   kernel32:KERNEL32.dll
 0001:0013129e       _LCMapStringW@24           0053229e f   kernel32:KERNEL32.dll
 0001:001312a4       _GetLocaleInfoW@16         005322a4 f   kernel32:KERNEL32.dll
 0001:001312aa       _IsValidLocale@8           005322aa f   kernel32:KERNEL32.dll
 0001:001312b0       _GetUserDefaultLCID@0      005322b0 f   kernel32:KERNEL32.dll
 0001:001312b6       _EnumSystemLocalesW@8      005322b6 f   kernel32:KERNEL32.dll
 0001:001312bc       _HeapReAlloc@16            005322bc f   kernel32:KERNEL32.dll
 0001:001312c2       _HeapSize@12               005322c2 f   kernel32:KERNEL32.dll
 0001:001312c8       _HeapQueryInformation@20   005322c8 f   kernel32:KERNEL32.dll
 0001:001312ce       _GetFullPathNameW@16       005322ce f   kernel32:KERNEL32.dll
 0001:001312d4       _VirtualQuery@12           005322d4 f   kernel32:KERNEL32.dll
 0001:001312da       _OemToCharA@8              005322da f   user32:USER32.dll
 0001:001312e0       _CharToOemA@8              005322e0 f   user32:USER32.dll
 0001:001312e6       _wvsprintfA@12             005322e6 f   user32:USER32.dll
 0001:001312ec       _OpenProcessToken@12       005322ec f   advapi32:ADVAPI32.dll
 0001:001312f2       _AdjustTokenPrivileges@24  005322f2 f   advapi32:ADVAPI32.dll
 0001:001312f8       _GetKernelObjectSecurity@20 005322f8 f   advapi32:ADVAPI32.dll
 0001:001312fe       _GetSecurityDescriptorControl@12 005322fe f   advapi32:ADVAPI32.dll
 0001:00131304       _GetSecurityDescriptorDacl@16 00532304 f   advapi32:ADVAPI32.dll
 0001:0013130a       _GetSecurityDescriptorGroup@12 0053230a f   advapi32:ADVAPI32.dll
 0001:00131310       _GetSecurityDescriptorOwner@12 00532310 f   advapi32:ADVAPI32.dll
 0001:00131316       _GetSecurityDescriptorSacl@16 00532316 f   advapi32:ADVAPI32.dll
 0001:0013131c       _IsValidAcl@4              0053231c f   advapi32:ADVAPI32.dll
 0001:00131322       _IsValidSecurityDescriptor@4 00532322 f   advapi32:ADVAPI32.dll
 0001:00131328       _IsValidSid@4              00532328 f   advapi32:ADVAPI32.dll
 0001:0013132e       _SetKernelObjectSecurity@12 0053232e f   advapi32:ADVAPI32.dll
 0001:00131334       _LookupPrivilegeValueA@12  00532334 f   advapi32:ADVAPI32.dll
 0001:0013133a       _GetSecurityDescriptorLength@4 0053233a f   advapi32:ADVAPI32.dll
 0001:00131340       __mktemp                   00532340 f   LIBCMTD:mktemp.obj
 0001:00131340       _mktemp                    00532340 f   LIBCMTD:mktemp.obj
 0001:00131400       __mktemp_s                 00532400 f   LIBCMTD:mktemp.obj
 0001:00131920       __rmdir                    00532920 f   LIBCMTD:rmdir.obj
 0001:00131920       _rmdir                     00532920 f   LIBCMTD:rmdir.obj
 0001:00131970       __ismbstrail               00532970 f   LIBCMTD:ismbstr.obj
 0001:00131990       __ismbstrail_l             00532990 f   LIBCMTD:ismbstr.obj
 0001:00131b50       __wrmdir                   00532b50 f   LIBCMTD:wrmdir.obj
 0001:00131b92       _RemoveDirectoryW@4        00532b92 f   kernel32:KERNEL32.dll
 0002:00000000       ___xc_a                    00566000     LIBCMTD:crt0init.obj
 0002:00000688       ___xc_z                    00566688     LIBCMTD:crt0init.obj
 0002:0000078c       ___xi_a                    0056678c     LIBCMTD:crt0init.obj
 0002:00000aa8       ___xi_z                    00566aa8     LIBCMTD:crt0init.obj
 0002:00000bac       ___xp_a                    00566bac     LIBCMTD:crt0init.obj
 0002:00000ec0       ___xp_z                    00566ec0     LIBCMTD:crt0init.obj
 0002:00000fc4       ___xt_a                    00566fc4     LIBCMTD:crt0init.obj
 0002:000010c8       ___xt_z                    005670c8     LIBCMTD:crt0init.obj
 0002:0000120c       ??_7error_category@std@@6B@ 0056720c     AboutBox.obj
 0002:00001230       ??_7_Generic_error_category@std@@6B@ 00567230     AboutBox.obj
 0002:00001250       ??_C@_07DCLBNMLN@generic?$AA@ 00567250     AboutBox.obj
 0002:0000125c       ??_C@_0O@BFJCFAAK@unknown?5error?$AA@ 0056725c     AboutBox.obj
 0002:00001270       ??_7_Iostream_error_category@std@@6B@ 00567270     AboutBox.obj
 0002:00001290       ??_C@_08LLGCOLLL@iostream?$AA@ 00567290     AboutBox.obj
 0002:0000129c       ??_C@_0BG@PADBLCHM@iostream?5stream?5error?$AA@ 0056729c     AboutBox.obj
 0002:000012bc       ??_7_System_error_category@std@@6B@ 005672bc     AboutBox.obj
 0002:000012dc       ??_C@_06FHFOAHML@system?$AA@ 005672dc     AboutBox.obj
 0002:000012e8       ??_C@_1IO@FEAPGJBD@?$AAC?$AA?3?$AA?2?$AAP?$AAr?$AAo?$AAg?$AAr?$AAa?$AAm?$AA?5?$AAF?$AAi?$AAl?$AAe?$AAs?$AA?5?$AA?$CI?$AAx?$AA8?$AA6?$AA?$CJ?$AA?2?$AAM?$AAi?$AAc?$AAr?$AAo?$AAs?$AAo?$AAf?$AAt@ 005672e8     AboutBox.obj
 0002:00001394       ??_C@_0BA@JFNIOLAK@string?5too?5long?$AA@ 00567394     AboutBox.obj
 0002:000013a8       ??_C@_0BI@CFPLBAOH@invalid?5string?5position?$AA@ 005673a8     AboutBox.obj
 0002:000013c4       ??_C@_1CK@EOPGIILJ@?$AAi?$AAn?$AAv?$AAa?$AAl?$AAi?$AAd?$AA?5?$AAn?$AAu?$AAl?$AAl?$AA?5?$AAp?$AAo?$AAi?$AAn?$AAt?$AAe?$AAr?$AA?$AA@ 005673c4     AboutBox.obj
 0002:000013fc       ??_7AccelKeys@@6B@         005673fc     AccelKeys.obj
 0002:00001418       ??_7AuthDialog@@6B@        00567418     AuthDialog.obj
 0002:0000443c       ??_C@_15GANGMFKL@?$AA?$CF?$AAs?$AA?$AA@ 0056a43c     ClientConnection.obj
 0002:00004448       ??_C@_1JA@EADLBAJ@?$AAC?$AA?3?$AA?2?$AAP?$AAr?$AAo?$AAg?$AAr?$AAa?$AAm?$AA?5?$AAF?$AAi?$AAl?$AAe?$AAs?$AA?5?$AA?$CI?$AAx?$AA8?$AA6?$AA?$CJ?$AA?2?$AAM?$AAi?$AAc?$AAr?$AAo?$AAs?$AAo?$AAf?$AAt@ 0056a448     ClientConnection.obj
 0002:000044f4       ??_C@_1DC@POOIKBAO@?$AAI?$AAT?$AAE?$AAR?$AAA?$AAT?$AAO?$AAR?$AA?5?$AAL?$AAI?$AAS?$AAT?$AA?5?$AAC?$AAO?$AAR?$AAR?$AAU?$AAP?$AAT?$AAE?$AAD?$AA?$CB?$AA?$AA@ 0056a4f4     ClientConnection.obj
 0002:00004530       ?npos@?$basic_string@DU?$char_traits@D@std@@V?$allocator@D@2@@std@@2IB 0056a530     ClientConnection.obj
 0002:00004538       ??_7ClientConnection@@6B@  0056a538     ClientConnection.obj
 0002:0000454c       ??_7Exception@@6B@         0056a54c     ClientConnection.obj
 0002:0000455c       ??_7QuietException@@6B@    0056a55c     ClientConnection.obj
 0002:0000456c       ??_7WarningException@@6B@  0056a56c     ClientConnection.obj
 0002:0000457c       ??_7ErrorException@@6B@    0056a57c     ClientConnection.obj
 0002:0000458c       ??_7Exception@rdr@@6B@     0056a58c     ClientConnection.obj
 0002:00004598       ??_7EndOfStream@rdr@@6B@   0056a598     ClientConnection.obj
 0002:000045a0       ??_C@_0CP@OMDKALDH@Failed?5to?5create?5timer?5for?5emula@ 0056a5a0     ClientConnection.obj
 0002:000045d8       ??_C@_0BE@MPKJBKJ@fake?5L?5Ctrl?5raised?6?$AA@ 0056a5d8     ClientConnection.obj
 0002:000045f0       ??_C@_0BD@GJBBBIGL@fake?5L?5Alt?5raised?6?$AA@ 0056a5f0     ClientConnection.obj
 0002:00004608       ??_C@_0BE@KFOLBGJD@fake?5R?5Ctrl?5raised?6?$AA@ 0056a608     ClientConnection.obj
 0002:00004620       ??_C@_0BD@MEDIHBIH@fake?5R?5Alt?5raised?6?$AA@ 0056a620     ClientConnection.obj
 0002:00004638       ??_C@_0BE@IHMAFBCP@fake?5R?5Alt?5pressed?6?$AA@ 0056a638     ClientConnection.obj
 0002:00004650       ??_C@_0BF@JNHLFGDF@fake?5R?5Ctrl?5pressed?6?$AA@ 0056a650     ClientConnection.obj
 0002:0000466c       ??_C@_0BE@CONBNGBF@fake?5L?5Alt?5pressed?6?$AA@ 0056a66c     ClientConnection.obj
 0002:00004684       ??_C@_0BF@FLNOJOAA@fake?5L?5Ctrl?5pressed?6?$AA@ 0056a684     ClientConnection.obj
 0002:000046a0       ??_C@_0DD@FBPPEKPN@Buffer?5cleared?0?5sync?5should?5be?5b@ 0056a6a0     ClientConnection.obj
 0002:000046e0       ??_C@_1IM@EINEHPHE@?$AAC?$AA?3?$AA?2?$AAP?$AAr?$AAo?$AAg?$AAr?$AAa?$AAm?$AA?5?$AAF?$AAi?$AAl?$AAe?$AAs?$AA?5?$AA?$CI?$AAx?$AA8?$AA6?$AA?$CJ?$AA?2?$AAM?$AAi?$AAc?$AAr?$AAo?$AAs?$AAo?$AAf?$AAt@ 0056a6e0     ClientConnection.obj
 0002:00004788       ??_C@_1EG@FOHJJHAC@?$AAv?$AAe?$AAc?$AAt?$AAo?$AAr?$AA?5?$AAi?$AAt?$AAe?$AAr?$AAa?$AAt?$AAo?$AAr?$AA?5?$AAn?$AAo?$AAt?$AA?5?$AAd?$AAe?$AAr?$AAe?$AAf?$AAe?$AAr?$AAe?$AAn?$AAc?$AAa?$AAb@ 0056a788     ClientConnection.obj
 0002:000047dc       ??_C@_0CE@OFMIGAMM@Standard?5C?$CL?$CL?5Libraries?5Out?5of?5Ra@ 0056a7dc     ClientConnection.obj
 0002:00004808       ??_C@_1FG@IBPIFFN@?$AA?$CC?$AAS?$AAt?$AAa?$AAn?$AAd?$AAa?$AAr?$AAd?$AA?5?$AAC?$AA?$CL?$AA?$CL?$AA?5?$AAL?$AAi?$AAb?$AAr?$AAa?$AAr?$AAi?$AAe?$AAs?$AA?5?$AAO?$AAu?$AAt?$AA?5?$AAo?$AAf?$AA?5?$AAR@ 0056a808     ClientConnection.obj
 0002:00004870       ??_C@_1NI@PPPKFEAA@?$AAs?$AAt?$AAd?$AA?3?$AA?3?$AA_?$AAV?$AAe?$AAc?$AAt?$AAo?$AAr?$AA_?$AAc?$AAo?$AAn?$AAs?$AAt?$AA_?$AAi?$AAt?$AAe?$AAr?$AAa?$AAt?$AAo?$AAr?$AA?$DM?$AAc?$AAl?$AAa?$AAs@ 0056a870     ClientConnection.obj
 0002:00004974       ??_C@_1BO@MEPPHOO@?$AA?$CC?$AAo?$AAu?$AAt?$AA?5?$AAo?$AAf?$AA?5?$AAr?$AAa?$AAn?$AAg?$AAe?$AA?$CC?$AA?$AA@ 0056a974     ClientConnection.obj
 0002:00004998       ??_C@_0BD@OLBABOEK@vector?$DMT?$DO?5too?5long?$AA@ 0056a998     ClientConnection.obj
 0002:000049b0       ??_C@_1DM@HINDPMBP@?$AAv?$AAe?$AAc?$AAt?$AAo?$AAr?$AA?5?$AAi?$AAt?$AAe?$AAr?$AAa?$AAt?$AAo?$AAr?$AAs?$AA?5?$AAi?$AAn?$AAc?$AAo?$AAm?$AAp?$AAa?$AAt?$AAi?$AAb?$AAl?$AAe?$AA?$AA@ 0056a9b0     ClientConnection.obj
 0002:000049f8       ??_C@_0CI@FNPHFCCM@Standard?5C?$CL?$CL?5Libraries?5Invalid?5A@ 0056a9f8     ClientConnection.obj
 0002:00004a28       ??_C@_1FO@GJIHNDLM@?$AA?$CC?$AAS?$AAt?$AAa?$AAn?$AAd?$AAa?$AAr?$AAd?$AA?5?$AAC?$AA?$CL?$AA?$CL?$AA?5?$AAL?$AAi?$AAb?$AAr?$AAa?$AAr?$AAi?$AAe?$AAs?$AA?5?$AAI?$AAn?$AAv?$AAa?$AAl?$AAi?$AAd?$AA?5@ 0056aa28     ClientConnection.obj
 0002:00004a98       ??_C@_1NC@CDEGKPGM@?$AAs?$AAt?$AAd?$AA?3?$AA?3?$AA_?$AAV?$AAe?$AAc?$AAt?$AAo?$AAr?$AA_?$AAc?$AAo?$AAn?$AAs?$AAt?$AA_?$AAi?$AAt?$AAe?$AAr?$AAa?$AAt?$AAo?$AAr?$AA?$DM?$AAc?$AAl?$AAa?$AAs@ 0056aa98     ClientConnection.obj
 0002:00004b94       ??_C@_1CG@JNLFBNGN@?$AA?$CC?$AAi?$AAn?$AAv?$AAa?$AAl?$AAi?$AAd?$AA?5?$AAa?$AAr?$AAg?$AAu?$AAm?$AAe?$AAn?$AAt?$AA?$CC?$AA?$AA@ 0056ab94     ClientConnection.obj
 0002:00004bc8       ??_C@_1EE@EJDKCLKB@?$AAv?$AAe?$AAc?$AAt?$AAo?$AAr?$AA?5?$AAi?$AAt?$AAe?$AAr?$AAa?$AAt?$AAo?$AAr?$AA?5?$AAn?$AAo?$AAt?$AA?5?$AAi?$AAn?$AAc?$AAr?$AAe?$AAm?$AAe?$AAn?$AAt?$AAa?$AAb?$AAl@ 0056abc8     ClientConnection.obj
 0002:00004c20       ??_C@_1NK@NAGJJBIN@?$AAs?$AAt?$AAd?$AA?3?$AA?3?$AA_?$AAV?$AAe?$AAc?$AAt?$AAo?$AAr?$AA_?$AAc?$AAo?$AAn?$AAs?$AAt?$AA_?$AAi?$AAt?$AAe?$AAr?$AAa?$AAt?$AAo?$AAr?$AA?$DM?$AAc?$AAl?$AAa?$AAs@ 0056ac20     ClientConnection.obj
 0002:00004d28       ??_C@_1NC@EDCKMCKF@?$AAs?$AAt?$AAd?$AA?3?$AA?3?$AA_?$AAV?$AAe?$AAc?$AAt?$AAo?$AAr?$AA_?$AAc?$AAo?$AAn?$AAs?$AAt?$AA_?$AAi?$AAt?$AAe?$AAr?$AAa?$AAt?$AAo?$AAr?$AA?$DM?$AAc?$AAl?$AAa?$AAs@ 0056ad28     ClientConnection.obj
 0002:00004e28       ??_C@_1IK@GEHGEPIJ@?$AAC?$AA?3?$AA?2?$AAP?$AAr?$AAo?$AAg?$AAr?$AAa?$AAm?$AA?5?$AAF?$AAi?$AAl?$AAe?$AAs?$AA?5?$AA?$CI?$AAx?$AA8?$AA6?$AA?$CJ?$AA?2?$AAM?$AAi?$AAc?$AAr?$AAo?$AAs?$AAo?$AAf?$AAt@ 0056ae28     ClientConnection.obj
 0002:00004ed0       ??_C@_1EK@PPDBPCAN@?$AAm?$AAa?$AAp?$AA?1?$AAs?$AAe?$AAt?$AA?5?$AAe?$AAr?$AAa?$AAs?$AAe?$AA?5?$AAi?$AAt?$AAe?$AAr?$AAa?$AAt?$AAo?$AAr?$AA?5?$AAo?$AAu?$AAt?$AAs?$AAi?$AAd?$AAe?$AA?5?$AAr@ 0056aed0     ClientConnection.obj
 0002:00004f28       ??_C@_1DO@CFEEPGGJ@?$AAm?$AAa?$AAp?$AA?1?$AAs?$AAe?$AAt?$AA?5?$AAi?$AAt?$AAe?$AAr?$AAa?$AAt?$AAo?$AAr?$AAs?$AA?5?$AAi?$AAn?$AAc?$AAo?$AAm?$AAp?$AAa?$AAt?$AAi?$AAb?$AAl?$AAe?$AA?$AA@ 0056af28     ClientConnection.obj
 0002:00004f78       ??_C@_1BCA@FJBOOAKK@?$AAs?$AAt?$AAd?$AA?3?$AA?3?$AA_?$AAT?$AAr?$AAe?$AAe?$AA_?$AAc?$AAo?$AAn?$AAs?$AAt?$AA_?$AAi?$AAt?$AAe?$AAr?$AAa?$AAt?$AAo?$AAr?$AA?$DM?$AAc?$AAl?$AAa?$AAs?$AAs?$AA?5@ 0056af78     ClientConnection.obj
 0002:000050d8       ??_C@_1BCA@BOPBOHDJ@?$AAs?$AAt?$AAd?$AA?3?$AA?3?$AA_?$AAT?$AAr?$AAe?$AAe?$AA_?$AAc?$AAo?$AAn?$AAs?$AAt?$AA_?$AAi?$AAt?$AAe?$AAr?$AAa?$AAt?$AAo?$AAr?$AA?$DM?$AAc?$AAl?$AAa?$AAs?$AAs?$AA?5@ 0056b0d8     ClientConnection.obj
 0002:00005238       ??_C@_1EG@EHJFMBHJ@?$AAm?$AAa?$AAp?$AA?1?$AAs?$AAe?$AAt?$AA?5?$AAi?$AAt?$AAe?$AAr?$AAa?$AAt?$AAo?$AAr?$AA?5?$AAn?$AAo?$AAt?$AA?5?$AAi?$AAn?$AAc?$AAr?$AAe?$AAm?$AAe?$AAn?$AAt?$AAa?$AAb@ 0056b238     ClientConnection.obj
 0002:00005290       ??_C@_1BCA@PJODAJGP@?$AAs?$AAt?$AAd?$AA?3?$AA?3?$AA_?$AAT?$AAr?$AAe?$AAe?$AA_?$AAc?$AAo?$AAn?$AAs?$AAt?$AA_?$AAi?$AAt?$AAe?$AAr?$AAa?$AAt?$AAo?$AAr?$AA?$DM?$AAc?$AAl?$AAa?$AAs?$AAs?$AA?5@ 0056b290     ClientConnection.obj
 0002:000053f0       ??_C@_1BCA@LOAMAOPM@?$AAs?$AAt?$AAd?$AA?3?$AA?3?$AA_?$AAT?$AAr?$AAe?$AAe?$AA_?$AAc?$AAo?$AAn?$AAs?$AAt?$AA_?$AAi?$AAt?$AAe?$AAr?$AAa?$AAt?$AAo?$AAr?$AA?$DM?$AAc?$AAl?$AAa?$AAs?$AAs?$AA?5@ 0056b3f0     ClientConnection.obj
 0002:0000554c       ??_C@_1CO@DGLIKNHI@?$AAi?$AAn?$AAv?$AAa?$AAl?$AAi?$AAd?$AA?5?$AAi?$AAt?$AAe?$AAr?$AAa?$AAt?$AAo?$AAr?$AA?5?$AAr?$AAa?$AAn?$AAg?$AAe?$AA?$AA@ 0056b54c     ClientConnection.obj
 0002:00005588       ??_C@_1IO@LKIDJAMC@?$AAC?$AA?3?$AA?2?$AAP?$AAr?$AAo?$AAg?$AAr?$AAa?$AAm?$AA?5?$AAF?$AAi?$AAl?$AAe?$AAs?$AA?5?$AA?$CI?$AAx?$AA8?$AA6?$AA?$CJ?$AA?2?$AAM?$AAi?$AAc?$AAr?$AAo?$AAs?$AAo?$AAf?$AAt@ 0056b588     ClientConnection.obj
 0002:00006218       ?formatDIB@ClipboardSettings@@2IB 0056c218     Clipboard.obj
 0002:0000621c       ?formatUnicodeText@ClipboardSettings@@2IB 0056c21c     Clipboard.obj
 0002:00006220       ?defaultLimitText@ClipboardSettings@@2HB 0056c220     Clipboard.obj
 0002:00006224       ?defaultLimitRTF@ClipboardSettings@@2HB 0056c224     Clipboard.obj
 0002:00006228       ?defaultLimitHTML@ClipboardSettings@@2HB 0056c228     Clipboard.obj
 0002:0000622c       ?defaultLimitDIB@ClipboardSettings@@2HB 0056c22c     Clipboard.obj
 0002:00006230       ?defaultLimit@ClipboardSettings@@2HB 0056c230     Clipboard.obj
 0002:00006240       ??_C@_02LMMGGCAJ@?3?5?$AA@ 0056c240     Clipboard.obj
 0002:00006248       ??_7OutStream@rdr@@6B@     0056c248     Clipboard.obj
 0002:00006264       ??_7MemOutStream@rdr@@6B@  0056c264     Clipboard.obj
 0002:00006280       ??_7InStream@rdr@@6B@      0056c280     Clipboard.obj
 0002:00006294       ??_C@_0BB@HABGOPEN@rdr?3?3EndOfStream?$AA@ 0056c294     Clipboard.obj
 0002:000062ac       ??_7MemInStream@rdr@@6B@   0056c2ac     Clipboard.obj
 0002:000062c0       ??_C@_07KPPHNOFD@overrun?$AA@ 0056c2c0     Clipboard.obj
 0002:000062cc       ??_C@_1DM@KDEKGMPF@?$AAs?$AAt?$AAr?$AAi?$AAn?$AAg?$AA?5?$AAi?$AAt?$AAe?$AAr?$AAa?$AAt?$AAo?$AAr?$AAs?$AA?5?$AAi?$AAn?$AAc?$AAo?$AAm?$AAp?$AAa?$AAt?$AAi?$AAb?$AAl?$AAe?$AA?$AA@ 0056c2cc     Clipboard.obj
 0002:00006318       ??_C@_1MG@CLNEOJNJ@?$AAs?$AAt?$AAd?$AA?3?$AA?3?$AA_?$AAS?$AAt?$AAr?$AAi?$AAn?$AAg?$AA_?$AAc?$AAo?$AAn?$AAs?$AAt?$AA_?$AAi?$AAt?$AAe?$AAr?$AAa?$AAt?$AAo?$AAr?$AA?$DM?$AAc?$AAl?$AAa?$AAs@ 0056c318     Clipboard.obj
 0002:00006408       ??_C@_1MA@BDELDFHB@?$AAs?$AAt?$AAd?$AA?3?$AA?3?$AA_?$AAS?$AAt?$AAr?$AAi?$AAn?$AAg?$AA_?$AAc?$AAo?$AAn?$AAs?$AAt?$AA_?$AAi?$AAt?$AAe?$AAr?$AAa?$AAt?$AAo?$AAr?$AA?$DM?$AAc?$AAl?$AAa?$AAs@ 0056c408     Clipboard.obj
 0002:000064f0       ??_C@_1EG@CNCHLAOB@?$AAs?$AAt?$AAr?$AAi?$AAn?$AAg?$AA?5?$AAi?$AAt?$AAe?$AAr?$AAa?$AAt?$AAo?$AAr?$AA?5?$AAn?$AAo?$AAt?$AA?5?$AAd?$AAe?$AAr?$AAe?$AAf?$AAe?$AAr?$AAe?$AAn?$AAc?$AAa?$AAb@ 0056c4f0     Clipboard.obj
 0002:00006548       ??_C@_1MM@BFHGHMKD@?$AAs?$AAt?$AAd?$AA?3?$AA?3?$AA_?$AAS?$AAt?$AAr?$AAi?$AAn?$AAg?$AA_?$AAc?$AAo?$AAn?$AAs?$AAt?$AA_?$AAi?$AAt?$AAe?$AAr?$AAa?$AAt?$AAo?$AAr?$AA?$DM?$AAc?$AAl?$AAa?$AAs@ 0056c548     Clipboard.obj
 0002:00006640       ??_C@_1EE@HAKOGNPH@?$AAs?$AAt?$AAr?$AAi?$AAn?$AAg?$AA?5?$AAi?$AAt?$AAe?$AAr?$AAa?$AAt?$AAo?$AAr?$AA?5?$AAn?$AAo?$AAt?$AA?5?$AAi?$AAn?$AAc?$AAr?$AAe?$AAm?$AAe?$AAn?$AAt?$AAa?$AAb?$AAl@ 0056c640     Clipboard.obj
 0002:00006698       ??_C@_1MO@GAPGDMNB@?$AAs?$AAt?$AAd?$AA?3?$AA?3?$AA_?$AAS?$AAt?$AAr?$AAi?$AAn?$AAg?$AA_?$AAc?$AAo?$AAn?$AAs?$AAt?$AA_?$AAi?$AAt?$AAe?$AAr?$AAa?$AAt?$AAo?$AAr?$AA?$DM?$AAc?$AAl?$AAa?$AAs@ 0056c698     Clipboard.obj
 0002:000068e4       ??_7Daemon@@6B@            0056c8e4     Daemon.obj
 0002:00006958       ??_7Except@@6B@            0056c958     dh.obj
 0002:00006960       ?cb64@Base64@@1QBDB        0056c960     DSMPlugin.obj
 0002:000069a8       ?cd64@Base64@@1QBDB        0056c9a8     DSMPlugin.obj
 0002:00006ba8       ??_7CDSMPlugin@@6B@        0056cba8     DSMPlugin.obj
 0002:00006c84       ??_7ViewerDirectxClass@@6B@ 0056cc84     directxviewer.obj
 0002:00007878       ??_7FileTransfer@@6B@      0056d878     FileTransfer.obj
 0002:00007880       ??_C@_1II@KCNBAEMF@?$AAC?$AA?3?$AA?2?$AAP?$AAr?$AAo?$AAg?$AAr?$AAa?$AAm?$AA?5?$AAF?$AAi?$AAl?$AAe?$AAs?$AA?5?$AA?$CI?$AAx?$AA8?$AA6?$AA?$CJ?$AA?2?$AAM?$AAi?$AAc?$AAr?$AAo?$AAs?$AAo?$AAf?$AAt@ 0056d880     FileTransfer.obj
 0002:00007928       ??_C@_1EC@HILJLMMC@?$AAl?$AAi?$AAs?$AAt?$AA?5?$AAi?$AAt?$AAe?$AAr?$AAa?$AAt?$AAo?$AAr?$AA?5?$AAn?$AAo?$AAt?$AA?5?$AAd?$AAe?$AAr?$AAe?$AAf?$AAe?$AAr?$AAe?$AAn?$AAc?$AAa?$AAb?$AAl?$AAe@ 0056d928     FileTransfer.obj
 0002:00007978       ??_C@_1MG@EPLOJHHC@?$AAs?$AAt?$AAd?$AA?3?$AA?3?$AA_?$AAL?$AAi?$AAs?$AAt?$AA_?$AAc?$AAo?$AAn?$AAs?$AAt?$AA_?$AAi?$AAt?$AAe?$AAr?$AAa?$AAt?$AAo?$AAr?$AA?$DM?$AAc?$AAl?$AAa?$AAs?$AAs?$AA?5@ 0056d978     FileTransfer.obj
 0002:00007a68       ??_C@_1DI@MDELDGPI@?$AAl?$AAi?$AAs?$AAt?$AA?5?$AAi?$AAt?$AAe?$AAr?$AAa?$AAt?$AAo?$AAr?$AAs?$AA?5?$AAi?$AAn?$AAc?$AAo?$AAm?$AAp?$AAa?$AAt?$AAi?$AAb?$AAl?$AAe?$AA?$AA@ 0056da68     FileTransfer.obj
 0002:00007ab0       ??_C@_1MI@GPPAEAHC@?$AAs?$AAt?$AAd?$AA?3?$AA?3?$AA_?$AAL?$AAi?$AAs?$AAt?$AA_?$AAc?$AAo?$AAn?$AAs?$AAt?$AA_?$AAi?$AAt?$AAe?$AAr?$AAa?$AAt?$AAo?$AAr?$AA?$DM?$AAc?$AAl?$AAa?$AAs?$AAs?$AA?5@ 0056dab0     FileTransfer.obj
 0002:00007ba0       ??_C@_1MG@GDGHDIKC@?$AAs?$AAt?$AAd?$AA?3?$AA?3?$AA_?$AAS?$AAt?$AAr?$AAi?$AAn?$AAg?$AA_?$AAc?$AAo?$AAn?$AAs?$AAt?$AA_?$AAi?$AAt?$AAe?$AAr?$AAa?$AAt?$AAo?$AAr?$AA?$DM?$AAc?$AAl?$AAa?$AAs@ 0056dba0     FileTransfer.obj
 0002:00007c90       ??_C@_1BHA@MHIPJLE@?$AAs?$AAt?$AAd?$AA?3?$AA?3?$AA_?$AAV?$AAe?$AAc?$AAt?$AAo?$AAr?$AA_?$AAc?$AAo?$AAn?$AAs?$AAt?$AA_?$AAi?$AAt?$AAe?$AAr?$AAa?$AAt?$AAo?$AAr?$AA?$DM?$AAc?$AAl?$AAa?$AAs@ 0056dc90     FileTransfer.obj
 0002:00007e50       ??_C@_1EA@DOGAGKDH@?$AAl?$AAi?$AAs?$AAt?$AA?5?$AAi?$AAt?$AAe?$AAr?$AAa?$AAt?$AAo?$AAr?$AA?5?$AAn?$AAo?$AAt?$AA?5?$AAi?$AAn?$AAc?$AAr?$AAe?$AAm?$AAe?$AAn?$AAt?$AAa?$AAb?$AAl?$AAe?$AA?$AA@ 0056de50     FileTransfer.obj
 0002:00007ea0       ??_C@_1MI@MPANKJLH@?$AAs?$AAt?$AAd?$AA?3?$AA?3?$AA_?$AAL?$AAi?$AAs?$AAt?$AA_?$AAc?$AAo?$AAn?$AAs?$AAt?$AA_?$AAi?$AAt?$AAe?$AAr?$AAa?$AAt?$AAo?$AAr?$AA?$DM?$AAc?$AAl?$AAa?$AAs?$AAs?$AA?5@ 0056dea0     FileTransfer.obj
 0002:00007f90       ??_C@_1BGO@ENKEMOHL@?$AAs?$AAt?$AAd?$AA?3?$AA?3?$AA_?$AAV?$AAe?$AAc?$AAt?$AAo?$AAr?$AA_?$AAc?$AAo?$AAn?$AAs?$AAt?$AA_?$AAi?$AAt?$AAe?$AAr?$AAa?$AAt?$AAo?$AAr?$AA?$DM?$AAc?$AAl?$AAa?$AAs@ 0056df90     FileTransfer.obj
 0002:00008148       ??_C@_1BGI@CFILNOOP@?$AAs?$AAt?$AAd?$AA?3?$AA?3?$AA_?$AAV?$AAe?$AAc?$AAt?$AAo?$AAr?$AA_?$AAc?$AAo?$AAn?$AAs?$AAt?$AA_?$AAi?$AAt?$AAe?$AAr?$AAa?$AAt?$AAo?$AAr?$AA?$DM?$AAc?$AAl?$AAa?$AAs@ 0056e148     FileTransfer.obj
 0002:000082f8       ??_C@_0BB@MOGOBHAF@list?$DMT?$DO?5too?5long?$AA@ 0056e2f8     FileTransfer.obj
 0002:00008310       __real@408f400000000000    0056e310     FileTransfer.obj
 0002:00008320       __real@4090000000000000    0056e320     FileTransfer.obj
 0002:00008330       __xmm@41f00000000000000000000000000000 0056e330     FileTransfer.obj
 0002:00008470       ??_7CTitleBar@@6B@         0056e470     FullScreenTitleBar.obj
 0002:0000a099       ??_C@_00CNPNBAHC@?$AA@     00570099     KeyMap.obj
 0002:0000a09c       ??_C@_0L@CHNLBEOL@Left?5Ctrl?5?$AA@ 0057009c     KeyMap.obj
 0002:0000a0ac       ??_C@_0M@NMDFIPMB@Right?5Ctrl?5?$AA@ 005700ac     KeyMap.obj
 0002:0000a0bc       ??_C@_09FFBHDBBC@Left?5Alt?5?$AA@ 005700bc     KeyMap.obj
 0002:0000a0c8       ??_C@_0L@GPMAHOEN@Right?5Alt?5?$AA@ 005700c8     KeyMap.obj
 0002:0000a0d8       ??_C@_09BJLKDKJA@extended?5?$AA@ 005700d8     KeyMap.obj
 0002:0000a0e4       ??_C@_0CG@MIFGIGMN@?5?5Fake?5release?5?$CFs?$CI?$CFsVirtKey?50x?$CF0@ 005700e4     KeyMap.obj
 0002:0000a114       ??_C@_0CB@DKENIJGF@Fake?5press?5?$CFs?$CI?$CFsVirtKey?50x?$CF02x?$CJ?6@ 00570114     KeyMap.obj
 0002:0000a140       ??_C@_1EI@FHEHNNNM@?$AAm?$AAa?$AAp?$AA?1?$AAs?$AAe?$AAt?$AA?5?$AAi?$AAt?$AAe?$AAr?$AAa?$AAt?$AAo?$AAr?$AA?5?$AAn?$AAo?$AAt?$AA?5?$AAd?$AAe?$AAr?$AAe?$AAf?$AAe?$AAr?$AAe?$AAn?$AAc?$AAa@ 00570140     KeyMap.obj
 0002:0000a198       ??_C@_1BBO@BNBDBNPC@?$AAs?$AAt?$AAd?$AA?3?$AA?3?$AA_?$AAT?$AAr?$AAe?$AAe?$AA_?$AAc?$AAo?$AAn?$AAs?$AAt?$AA_?$AAi?$AAt?$AAe?$AAr?$AAa?$AAt?$AAo?$AAr?$AA?$DM?$AAc?$AAl?$AAa?$AAs?$AAs?$AA?5@ 00570198     KeyMap.obj
 0002:0000a2f0       ??_C@_1BBO@LNOEPBAI@?$AAs?$AAt?$AAd?$AA?3?$AA?3?$AA_?$AAT?$AAr?$AAe?$AAe?$AA_?$AAc?$AAo?$AAn?$AAs?$AAt?$AA_?$AAi?$AAt?$AAe?$AAr?$AAa?$AAt?$AAo?$AAr?$AA?$DM?$AAc?$AAl?$AAa?$AAs?$AAs?$AA?5@ 005702f0     KeyMap.obj
 0002:0000a448       ??_C@_1CE@IGJMOCCK@?$AAi?$AAn?$AAv?$AAa?$AAl?$AAi?$AAd?$AA?5?$AAo?$AAp?$AAe?$AAr?$AAa?$AAt?$AAo?$AAr?$AA?$DM?$AA?$AA@ 00570448     KeyMap.obj
 0002:0000a478       ??_C@_1EM@MHOKKPFH@?$AAm?$AAa?$AAp?$AA?1?$AAs?$AAe?$AAt?$AA?5?$AAi?$AAn?$AAs?$AAe?$AAr?$AAt?$AA?5?$AAi?$AAt?$AAe?$AAr?$AAa?$AAt?$AAo?$AAr?$AA?5?$AAo?$AAu?$AAt?$AAs?$AAi?$AAd?$AAe?$AA?5@ 00570478     KeyMap.obj
 0002:0000a4d8       ??_C@_1EG@OKCGOALM@?$AAm?$AAa?$AAp?$AA?1?$AAs?$AAe?$AAt?$AA?5?$AAi?$AAt?$AAe?$AAr?$AAa?$AAt?$AAo?$AAr?$AA?5?$AAn?$AAo?$AAt?$AA?5?$AAd?$AAe?$AAc?$AAr?$AAe?$AAm?$AAe?$AAn?$AAt?$AAa?$AAb@ 005704d8     KeyMap.obj
 0002:0000a530       ??_C@_1BCA@KNBLFKO@?$AAs?$AAt?$AAd?$AA?3?$AA?3?$AA_?$AAT?$AAr?$AAe?$AAe?$AA_?$AAc?$AAo?$AAn?$AAs?$AAt?$AA_?$AAi?$AAt?$AAe?$AAr?$AAa?$AAt?$AAo?$AAr?$AA?$DM?$AAc?$AAl?$AAa?$AAs?$AAs?$AA?5@ 00570530     KeyMap.obj
 0002:0000a690       ??_C@_1BCA@ENDOLCDN@?$AAs?$AAt?$AAd?$AA?3?$AA?3?$AA_?$AAT?$AAr?$AAe?$AAe?$AA_?$AAc?$AAo?$AAn?$AAs?$AAt?$AA_?$AAi?$AAt?$AAe?$AAr?$AAa?$AAt?$AAo?$AAr?$AA?$DM?$AAc?$AAl?$AAa?$AAs?$AAs?$AA?5@ 00570690     KeyMap.obj
 0002:0000a7ec       ??_C@_0BE@JONHPENG@map?1set?$DMT?$DO?5too?5long?$AA@ 005707ec     KeyMap.obj
 0002:0000ab30       ?ToDebug@Log@@2HB          00570b30     Log.obj
 0002:0000ab34       ?ToFile@Log@@2HB           00570b34     Log.obj
 0002:0000ab38       ?ToConsole@Log@@2HB        00570b38     Log.obj
 0002:0000ab7c       ??_7Log@@6B@               00570b7c     Log.obj
 0002:0000acac       ??_7MRU@@6B@               00570cac     MRU.obj
 0002:0000ad04       ??_7SessionDialog@@6B@     00570d04     SessionDialog.obj
 0002:0000ae58       ??_7TextChat@@6B@          00570e58     TextChat.obj
 0002:0000be20       ??_7VNCOptions@@6B@        00571e20     VNCOptions.obj
 0002:0000c1e8       ??_7VNCviewerApp@@6B@      005721e8     VNCviewerApp.obj
 0002:0000c278       ??_7VNCviewerApp32@@6B@    00572278     VNCviewerApp32.obj
 0002:0000c28c       ??_7CZipUnZip32@@6B@       0057228c     ZipUnzip32.obj
 0002:0000d034       ??_7FdInStream@rdr@@6B@    00573034     rdr:FdInStream.obj
 0002:0000d048       ??_7SystemException@rdr@@6B@ 00573048     rdr:FdInStream.obj
 0002:0000d04c       ??_C@_0P@LAFNMDGF@rdr?3?3Exception?$AA@ 0057304c     rdr:FdInStream.obj
 0002:0000d05c       ??_C@_0BH@DGPOIADI@rdr?3?3SystemException?3?5?$AA@ 0057305c     rdr:FdInStream.obj
 0002:0000d074       ??_C@_02GFKOMOKH@?5?$CI?$AA@ 00573074     rdr:FdInStream.obj
 0002:0000d078       ??_C@_02DPKJAMEF@?$CFd?$AA@ 00573078     rdr:FdInStream.obj
 0002:0000d07c       ??_C@_01PKGAHCOL@?$CJ?$AA@ 0057307c     rdr:FdInStream.obj
 0002:0000d084       ??_7TimedOut@rdr@@6B@      00573084     rdr:FdInStream.obj
 0002:0000d088       ??_C@_0O@HCIEMIJD@rdr?3?3TimedOut?$AA@ 00573088     rdr:FdInStream.obj
 0002:0000d098       ??_C@_0CK@GGMCIOP@FdInStream?5overrun?3?5max?5itemSize@ 00573098     rdr:FdInStream.obj
 0002:0000d0c4       ??_C@_0BH@PADGDDNG@select?5returned?5EINTR?6?$AA@ 005730c4     rdr:FdInStream.obj
 0002:0000d0dc       ??_C@_04POLDLDMI@read?$AA@ 005730dc     rdr:FdInStream.obj
 0002:0000d0e4       ??_C@_06LGNCCACI@select?$AA@ 005730e4     rdr:FdInStream.obj
 0002:0000d0ec       ??_C@_0BF@HIEOHKLB@read?5returned?5EINTR?6?$AA@ 005730ec     rdr:FdInStream.obj
 0002:0000d108       ??_7ZlibInStream@rdr@@6B@  00573108     rdr:ZlibInStream.obj
 0002:0000d118       ??_C@_05DFCKICEH@1?42?45?$AA@ 00573118     rdr:ZlibInStream.obj
 0002:0000d120       ??_C@_0CB@FIOBDKFL@ZlibInStream?3?5inflateInit?5failed@ 00573120     rdr:ZlibInStream.obj
 0002:0000d144       ??_C@_0CM@MBCLANJG@ZlibInStream?5overrun?3?5max?5itemSi@ 00573144     rdr:ZlibInStream.obj
 0002:0000d170       ??_C@_0CL@ILOIFHLI@ZlibInStream?5overrun?3?5no?5underly@ 00573170     rdr:ZlibInStream.obj
 0002:0000d19c       ??_C@_0BN@BBDCOGPA@ZlibInStream?3?5inflate?5failed?$AA@ 0057319c     rdr:ZlibInStream.obj
 0002:0000d1c0       ??_7ZlibOutStream@rdr@@6B@ 005731c0     rdr:ZlibOutStream.obj
 0002:0000d1d4       ??_C@_0CC@OHBBCBML@ZlibOutStream?3?5deflateInit?5faile@ 005731d4     rdr:ZlibOutStream.obj
 0002:0000d1f8       ??_C@_0BO@GKFEGHBJ@ZlibOutStream?3?5deflate?5failed?$AA@ 005731f8     rdr:ZlibOutStream.obj
 0002:0000d218       ??_C@_0CN@KABDFOKL@ZlibOutStream?5overrun?3?5max?5itemS@ 00573218     rdr:ZlibOutStream.obj
 0002:0000d248       ??_C@_0CO@LFBKFKEC@z?5out?5buf?5not?5full?0?5but?5in?5data?5@ 00573248     rdr:ZlibOutStream.obj
 0002:0000d278       _mask_bits                 00573278     unz32lib:windll.obj
 0002:0000d2bc       _VersionDate               005732bc     unz32lib:windll.obj
 0002:0000d2d0       _CentSigMsg                005732d0     unz32lib:windll.obj
 0002:0000d318       _EndSigMsg                 00573318     unz32lib:windll.obj
 0002:0000d364       _SeekMsg                   00573364     unz32lib:windll.obj
 0002:0000d3a0       _FilenameNotMatched        005733a0     unz32lib:windll.obj
 0002:0000d3c4       _ExclFilenameNotMatched    005733c4     unz32lib:windll.obj
 0002:0000d3f8       _ReportMsg                 005733f8     unz32lib:windll.obj
 0002:0000d488       _Zipnfo                    00573488     unz32lib:windll.obj
 0002:0000d490       _CompiledWith              00573490     unz32lib:windll.obj
 0002:0000dc70       _ydays                     00573c70     unz32lib:fileio.obj
 0002:0000ffcc       _TruncEAs                  00575fcc     unz32lib:extract.obj
 0002:0000fff8       _TruncNTSD                 00575ff8     unz32lib:extract.obj
 0002:00010e98       _deflate_copyright         00576e98     zlibstat:deflate.obj
 0002:00010f60       _z_errmsg                  00576f60     zlibstat:zutil.obj
 0002:00010f88       _inflate_copyright         00576f88     zlibstat:inftrees.obj
 0002:000110b8       __length_code              005770b8     zlibstat:trees.obj
 0002:000111b8       __dist_code                005771b8     zlibstat:trees.obj
 0002:00011af4       ??_7omni_thread@@6B@       00577af4     omnithread:nt.obj
 0002:00011b04       ??_7_internal_omni_thread_dummy@@6B@ 00577b04     omnithread:nt.obj
 0002:00011b10       ?value@?$integral_constant@_N$0A@@std@@2_NB 00577b10     libcpmtd:stdthrow.obj
 0002:00011b11       ?value@?$integral_constant@_N$00@std@@2_NB 00577b11     libcpmtd:stdthrow.obj
 0002:00011b12       ?has_quiet_NaN@_Num_float_base@std@@2_NB 00577b12     libcpmtd:xthrow.obj
 0002:00011b13       ?has_signaling_NaN@_Num_float_base@std@@2_NB 00577b13     libcpmtd:xthrow.obj
 0002:00011b14       ?is_bounded@_Num_float_base@std@@2_NB 00577b14     libcpmtd:xthrow.obj
 0002:00011b15       ?is_exact@_Num_float_base@std@@2_NB 00577b15     libcpmtd:xthrow.obj
 0002:00011b16       ?is_iec559@_Num_float_base@std@@2_NB 00577b16     libcpmtd:xthrow.obj
 0002:00011b17       ?is_integer@_Num_float_base@std@@2_NB 00577b17     libcpmtd:xthrow.obj
 0002:00011b18       ?is_modulo@_Num_float_base@std@@2_NB 00577b18     libcpmtd:xthrow.obj
 0002:00011b19       ?is_signed@_Num_float_base@std@@2_NB 00577b19     libcpmtd:xthrow.obj
 0002:00011b1a       ?is_specialized@_Num_float_base@std@@2_NB 00577b1a     libcpmtd:xthrow.obj
 0002:00011b1b       ?tinyness_before@_Num_float_base@std@@2_NB 00577b1b     libcpmtd:xthrow.obj
 0002:00011b1c       ?traps@_Num_float_base@std@@2_NB 00577b1c     libcpmtd:xthrow.obj
 0002:00011b20       ?round_style@_Num_float_base@std@@2W4float_round_style@2@B 00577b20     libcpmtd:xthrow.obj
 0002:00011b24       ?radix@_Num_float_base@std@@2HB 00577b24     libcpmtd:xthrow.obj
 0002:00011b28       ?value@?$integral_constant@I$01@std@@2IB 00577b28     libcpmtd:xthrow.obj
 0002:00011b2c       ?is_signed@?$numeric_limits@D@std@@2_NB 00577b2c     libcpmtd:xthrow.obj
 0002:00011b30       ?digits@?$numeric_limits@D@std@@2HB 00577b30     libcpmtd:xthrow.obj
 0002:00011b34       ?digits10@?$numeric_limits@D@std@@2HB 00577b34     libcpmtd:xthrow.obj
 0002:00011b38       ?is_signed@?$numeric_limits@_W@std@@2_NB 00577b38     libcpmtd:xthrow.obj
 0002:00011b3c       ?digits@?$numeric_limits@_W@std@@2HB 00577b3c     libcpmtd:xthrow.obj
 0002:00011b40       ?table_size@?$ctype@D@std@@2IB 00577b40     libcpmtd:xthrow.obj
 0002:00011b44       ?value@?$integral_constant@I$00@std@@2IB 00577b44     libcpmtd:xthrow.obj
 0002:00011b48       ?digits10@?$numeric_limits@_W@std@@2HB 00577b48     libcpmtd:xthrow.obj
 0002:00011b4c       ?value@?$_Maximum@$S@std@@2IB 00577b4c     libcpmtd:xthrow.obj
 0002:00011b50       ?is_modulo@?$numeric_limits@_N@std@@2_NB 00577b50     libcpmtd:xthrow.obj
 0002:00011b51       ?is_signed@?$numeric_limits@_N@std@@2_NB 00577b51     libcpmtd:xthrow.obj
 0002:00011b54       ?digits@?$numeric_limits@_N@std@@2HB 00577b54     libcpmtd:xthrow.obj
 0002:00011b58       ?digits10@?$numeric_limits@_N@std@@2HB 00577b58     libcpmtd:xthrow.obj
 0002:00011b5c       ?value@?$integral_constant@I$0A@@std@@2IB 00577b5c     libcpmtd:xthrow.obj
 0002:00011b60       ?is_signed@?$numeric_limits@C@std@@2_NB 00577b60     libcpmtd:xthrow.obj
 0002:00011b64       ?digits@?$numeric_limits@C@std@@2HB 00577b64     libcpmtd:xthrow.obj
 0002:00011b68       ?digits10@?$numeric_limits@C@std@@2HB 00577b68     libcpmtd:xthrow.obj
 0002:00011b6c       ?is_signed@?$numeric_limits@E@std@@2_NB 00577b6c     libcpmtd:xthrow.obj
 0002:00011b70       ?digits@?$numeric_limits@E@std@@2HB 00577b70     libcpmtd:xthrow.obj
 0002:00011b74       ?digits10@?$numeric_limits@E@std@@2HB 00577b74     libcpmtd:xthrow.obj
 0002:00011b78       ?is_signed@?$numeric_limits@F@std@@2_NB 00577b78     libcpmtd:xthrow.obj
 0002:00011b7c       ?digits@?$numeric_limits@F@std@@2HB 00577b7c     libcpmtd:xthrow.obj
 0002:00011b80       ?digits10@?$numeric_limits@F@std@@2HB 00577b80     libcpmtd:xthrow.obj
 0002:00011b84       ?is_signed@?$numeric_limits@G@std@@2_NB 00577b84     libcpmtd:xthrow.obj
 0002:00011b88       ?digits@?$numeric_limits@G@std@@2HB 00577b88     libcpmtd:xthrow.obj
 0002:00011b8c       ?digits10@?$numeric_limits@G@std@@2HB 00577b8c     libcpmtd:xthrow.obj
 0002:00011b90       ?is_signed@?$numeric_limits@H@std@@2_NB 00577b90     libcpmtd:xthrow.obj
 0002:00011b94       ?digits@?$numeric_limits@H@std@@2HB 00577b94     libcpmtd:xthrow.obj
 0002:00011b98       ?digits10@?$numeric_limits@H@std@@2HB 00577b98     libcpmtd:xthrow.obj
 0002:00011b9c       ?is_signed@?$numeric_limits@I@std@@2_NB 00577b9c     libcpmtd:xthrow.obj
 0002:00011ba0       ?digits@?$numeric_limits@I@std@@2HB 00577ba0     libcpmtd:xthrow.obj
 0002:00011ba4       ?digits10@?$numeric_limits@I@std@@2HB 00577ba4     libcpmtd:xthrow.obj
 0002:00011ba8       ?is_signed@?$numeric_limits@J@std@@2_NB 00577ba8     libcpmtd:xthrow.obj
 0002:00011bac       ?digits@?$numeric_limits@J@std@@2HB 00577bac     libcpmtd:xthrow.obj
 0002:00011bb0       ?digits10@?$numeric_limits@J@std@@2HB 00577bb0     libcpmtd:xthrow.obj
 0002:00011bb8       ?_Names@?$_Regex_traits@D@std@@0QBU?$_Cl_names@D@2@B 00577bb8     libcpmtd:xthrow.obj
 0002:00011c78       ?is_signed@?$numeric_limits@K@std@@2_NB 00577c78     libcpmtd:xthrow.obj
 0002:00011c7c       ?digits@?$numeric_limits@K@std@@2HB 00577c7c     libcpmtd:xthrow.obj
 0002:00011c80       ?digits10@?$numeric_limits@K@std@@2HB 00577c80     libcpmtd:xthrow.obj
 0002:00011c84       ??_C@_05IIMHCHIO@alnum?$AA@ 00577c84     libcpmtd:xthrow.obj
 0002:00011c8c       ??_C@_05IAEKHIAN@alpha?$AA@ 00577c8c     libcpmtd:xthrow.obj
 0002:00011c94       ??_C@_05BABJKOGB@blank?$AA@ 00577c94     libcpmtd:xthrow.obj
 0002:00011c9c       ??_C@_05JMDPEFNK@cntrl?$AA@ 00577c9c     libcpmtd:xthrow.obj
 0002:00011ca4       ??_C@_01LPLHEDKD@d?$AA@    00577ca4     libcpmtd:xthrow.obj
 0002:00011ca8       ??_C@_05ODNOIFML@digit?$AA@ 00577ca8     libcpmtd:xthrow.obj
 0002:00011cb0       ??_C@_05KCJBMLII@graph?$AA@ 00577cb0     libcpmtd:xthrow.obj
 0002:00011cb8       ??_C@_05IPJEPLHL@lower?$AA@ 00577cb8     libcpmtd:xthrow.obj
 0002:00011cc0       ??_C@_05IJDJACGD@print?$AA@ 00577cc0     libcpmtd:xthrow.obj
 0002:00011cc8       ??_C@_05KOBGHFJJ@punct?$AA@ 00577cc8     libcpmtd:xthrow.obj
 0002:00011cd0       ??_C@_05OLNILLAB@space?$AA@ 00577cd0     libcpmtd:xthrow.obj
 0002:00011cd6       ?is_signed@?$numeric_limits@_J@std@@2_NB 00577cd6     libcpmtd:xthrow.obj
 0002:00011cd8       ??_C@_01LKDEMHDF@s?$AA@    00577cd8     libcpmtd:xthrow.obj
 0002:00011cdc       ??_C@_05NECKJAMC@upper?$AA@ 00577cdc     libcpmtd:xthrow.obj
 0002:00011ce4       ??_C@_01NOFIACDB@w?$AA@    00577ce4     libcpmtd:xthrow.obj
 0002:00011ce8       ??_C@_06BAPHGFFK@xdigit?$AA@ 00577ce8     libcpmtd:xthrow.obj
 0002:00011cf0       ?digits@?$numeric_limits@_J@std@@2HB 00577cf0     libcpmtd:xthrow.obj
 0002:00011cf4       ?digits10@?$numeric_limits@_J@std@@2HB 00577cf4     libcpmtd:xthrow.obj
 0002:00011cf8       ?is_signed@?$numeric_limits@_K@std@@2_NB 00577cf8     libcpmtd:xthrow.obj
 0002:00011cfc       ?digits@?$numeric_limits@_K@std@@2HB 00577cfc     libcpmtd:xthrow.obj
 0002:00011d00       ?digits10@?$numeric_limits@_K@std@@2HB 00577d00     libcpmtd:xthrow.obj
 0002:00011d08       ?_Names@?$_Regex_traits@_W@std@@0QBU?$_Cl_names@_W@2@B 00577d08     libcpmtd:xthrow.obj
 0002:00011dc8       ?digits@?$numeric_limits@M@std@@2HB 00577dc8     libcpmtd:xthrow.obj
 0002:00011dcc       ?digits10@?$numeric_limits@M@std@@2HB 00577dcc     libcpmtd:xthrow.obj
 0002:00011dd0       ?max_digits10@?$numeric_limits@M@std@@2HB 00577dd0     libcpmtd:xthrow.obj
 0002:00011dd4       ?max_exponent@?$numeric_limits@M@std@@2HB 00577dd4     libcpmtd:xthrow.obj
 0002:00011dd8       ?max_exponent10@?$numeric_limits@M@std@@2HB 00577dd8     libcpmtd:xthrow.obj
 0002:00011ddc       ?min_exponent@?$numeric_limits@M@std@@2HB 00577ddc     libcpmtd:xthrow.obj
 0002:00011de0       ??_C@_1M@KLMEPMCM@?$AAa?$AAl?$AAn?$AAu?$AAm?$AA?$AA@ 00577de0     libcpmtd:xthrow.obj
 0002:00011dec       ??_C@_1M@DHGLHBMI@?$AAa?$AAl?$AAp?$AAh?$AAa?$AA?$AA@ 00577dec     libcpmtd:xthrow.obj
 0002:00011df8       ?min_exponent10@?$numeric_limits@M@std@@2HB 00577df8     libcpmtd:xthrow.obj
 0002:00011dfc       ??_C@_1M@EJAAJBPE@?$AAb?$AAl?$AAa?$AAn?$AAk?$AA?$AA@ 00577dfc     libcpmtd:xthrow.obj
 0002:00011e08       ??_C@_1M@LMIMILA@?$AAc?$AAn?$AAt?$AAr?$AAl?$AA?$AA@ 00577e08     libcpmtd:xthrow.obj
 0002:00011e14       ??_C@_13GKPPEALH@?$AAd?$AA?$AA@ 00577e14     libcpmtd:xthrow.obj
 0002:00011e18       ??_C@_1M@JDAEIBKG@?$AAd?$AAi?$AAg?$AAi?$AAt?$AA?$AA@ 00577e18     libcpmtd:xthrow.obj
 0002:00011e24       ??_C@_1M@MDKNJLLK@?$AAg?$AAr?$AAa?$AAp?$AAh?$AA?$AA@ 00577e24     libcpmtd:xthrow.obj
 0002:00011e30       ??_C@_1M@LGAECJJD@?$AAl?$AAo?$AAw?$AAe?$AAr?$AA?$AA@ 00577e30     libcpmtd:xthrow.obj
 0002:00011e3c       ??_C@_1M@ELNLAPLA@?$AAp?$AAr?$AAi?$AAn?$AAt?$AA?$AA@ 00577e3c     libcpmtd:xthrow.obj
 0002:00011e48       ??_C@_1M@BPFMAOAO@?$AAp?$AAu?$AAn?$AAc?$AAt?$AA?$AA@ 00577e48     libcpmtd:xthrow.obj
 0002:00011e54       ??_C@_1M@LPGODFOM@?$AAs?$AAp?$AAa?$AAc?$AAe?$AA?$AA@ 00577e54     libcpmtd:xthrow.obj
 0002:00011e60       ??_C@_13KHDBCPJB@?$AAs?$AA?$AA@ 00577e60     libcpmtd:xthrow.obj
 0002:00011e64       ??_C@_1M@PLNFCNIC@?$AAu?$AAp?$AAp?$AAe?$AAr?$AA?$AA@ 00577e64     libcpmtd:xthrow.obj
 0002:00011e70       ??_C@_13CIFDLIMG@?$AAw?$AA?$AA@ 00577e70     libcpmtd:xthrow.obj
 0002:00011e74       ??_C@_1O@OAFMJDHN@?$AAx?$AAd?$AAi?$AAg?$AAi?$AAt?$AA?$AA@ 00577e74     libcpmtd:xthrow.obj
 0002:00011e84       ?digits@?$numeric_limits@N@std@@2HB 00577e84     libcpmtd:xthrow.obj
 0002:00011e88       ?digits10@?$numeric_limits@N@std@@2HB 00577e88     libcpmtd:xthrow.obj
 0002:00011e8c       ?max_digits10@?$numeric_limits@N@std@@2HB 00577e8c     libcpmtd:xthrow.obj
 0002:00011e90       ?max_exponent@?$numeric_limits@N@std@@2HB 00577e90     libcpmtd:xthrow.obj
 0002:00011e94       ?max_exponent10@?$numeric_limits@N@std@@2HB 00577e94     libcpmtd:xthrow.obj
 0002:00011e98       ?min_exponent@?$numeric_limits@N@std@@2HB 00577e98     libcpmtd:xthrow.obj
 0002:00011e9c       ?min_exponent10@?$numeric_limits@N@std@@2HB 00577e9c     libcpmtd:xthrow.obj
 0002:00011ea0       ?digits@?$numeric_limits@O@std@@2HB 00577ea0     libcpmtd:xthrow.obj
 0002:00011ea4       ?digits10@?$numeric_limits@O@std@@2HB 00577ea4     libcpmtd:xthrow.obj
 0002:00011ea8       ?max_digits10@?$numeric_limits@O@std@@2HB 00577ea8     libcpmtd:xthrow.obj
 0002:00011eac       ?max_exponent@?$numeric_limits@O@std@@2HB 00577eac     libcpmtd:xthrow.obj
 0002:00011eb0       ?max_exponent10@?$numeric_limits@O@std@@2HB 00577eb0     libcpmtd:xthrow.obj
 0002:00011eb4       ?min_exponent@?$numeric_limits@O@std@@2HB 00577eb4     libcpmtd:xthrow.obj
 0002:00011eb8       ?min_exponent10@?$numeric_limits@O@std@@2HB 00577eb8     libcpmtd:xthrow.obj
 0002:00011ebc       ?skipws@?$_Iosb@H@std@@2W4_Fmtflags@12@B 00577ebc     libcpmtd:xthrow.obj
 0002:00011ec0       ?unitbuf@?$_Iosb@H@std@@2W4_Fmtflags@12@B 00577ec0     libcpmtd:xthrow.obj
 0002:00011ec4       ?uppercase@?$_Iosb@H@std@@2W4_Fmtflags@12@B 00577ec4     libcpmtd:xthrow.obj
 0002:00011ec8       ?showbase@?$_Iosb@H@std@@2W4_Fmtflags@12@B 00577ec8     libcpmtd:xthrow.obj
 0002:00011ecc       ?showpoint@?$_Iosb@H@std@@2W4_Fmtflags@12@B 00577ecc     libcpmtd:xthrow.obj
 0002:00011ed0       ?showpos@?$_Iosb@H@std@@2W4_Fmtflags@12@B 00577ed0     libcpmtd:xthrow.obj
 0002:00011ed4       ?left@?$_Iosb@H@std@@2W4_Fmtflags@12@B 00577ed4     libcpmtd:xthrow.obj
 0002:00011ed8       ?right@?$_Iosb@H@std@@2W4_Fmtflags@12@B 00577ed8     libcpmtd:xthrow.obj
 0002:00011edc       ?internal@?$_Iosb@H@std@@2W4_Fmtflags@12@B 00577edc     libcpmtd:xthrow.obj
 0002:00011ee0       ?dec@?$_Iosb@H@std@@2W4_Fmtflags@12@B 00577ee0     libcpmtd:xthrow.obj
 0002:00011ee4       ?oct@?$_Iosb@H@std@@2W4_Fmtflags@12@B 00577ee4     libcpmtd:xthrow.obj
 0002:00011ee8       ?hex@?$_Iosb@H@std@@2W4_Fmtflags@12@B 00577ee8     libcpmtd:xthrow.obj
 0002:00011eec       ?_VBITS@?$vector@_NV?$allocator@_N@std@@@std@@2HB 00577eec     libcpmtd:xthrow.obj
 0002:00011ef0       ?scientific@?$_Iosb@H@std@@2W4_Fmtflags@12@B 00577ef0     libcpmtd:xthrow.obj
 0002:00011ef4       ?fixed@?$_Iosb@H@std@@2W4_Fmtflags@12@B 00577ef4     libcpmtd:xthrow.obj
 0002:00011ef8       ?hexfloat@?$_Iosb@H@std@@2W4_Fmtflags@12@B 00577ef8     libcpmtd:xthrow.obj
 0002:00011efc       ?boolalpha@?$_Iosb@H@std@@2W4_Fmtflags@12@B 00577efc     libcpmtd:xthrow.obj
 0002:00011f00       ?_Stdio@?$_Iosb@H@std@@2W4_Fmtflags@12@B 00577f00     libcpmtd:xthrow.obj
 0002:00011f04       ?adjustfield@?$_Iosb@H@std@@2W4_Fmtflags@12@B 00577f04     libcpmtd:xthrow.obj
 0002:00011f08       ?basefield@?$_Iosb@H@std@@2W4_Fmtflags@12@B 00577f08     libcpmtd:xthrow.obj
 0002:00011f0c       ?floatfield@?$_Iosb@H@std@@2W4_Fmtflags@12@B 00577f0c     libcpmtd:xthrow.obj
 0002:00011f10       ?goodbit@?$_Iosb@H@std@@2W4_Iostate@12@B 00577f10     libcpmtd:xthrow.obj
 0002:00011f14       ?eofbit@?$_Iosb@H@std@@2W4_Iostate@12@B 00577f14     libcpmtd:xthrow.obj
 0002:00011f18       ?failbit@?$_Iosb@H@std@@2W4_Iostate@12@B 00577f18     libcpmtd:xthrow.obj
 0002:00011f1c       ?badbit@?$_Iosb@H@std@@2W4_Iostate@12@B 00577f1c     libcpmtd:xthrow.obj
 0002:00011f20       ?_Hardfail@?$_Iosb@H@std@@2W4_Iostate@12@B 00577f20     libcpmtd:xthrow.obj
 0002:00011f24       ?in@?$_Iosb@H@std@@2W4_Openmode@12@B 00577f24     libcpmtd:xthrow.obj
 0002:00011f28       ?out@?$_Iosb@H@std@@2W4_Openmode@12@B 00577f28     libcpmtd:xthrow.obj
 0002:00011f2c       ?ate@?$_Iosb@H@std@@2W4_Openmode@12@B 00577f2c     libcpmtd:xthrow.obj
 0002:00011f30       ?app@?$_Iosb@H@std@@2W4_Openmode@12@B 00577f30     libcpmtd:xthrow.obj
 0002:00011f34       ?trunc@?$_Iosb@H@std@@2W4_Openmode@12@B 00577f34     libcpmtd:xthrow.obj
 0002:00011f38       ?_Nocreate@?$_Iosb@H@std@@2W4_Openmode@12@B 00577f38     libcpmtd:xthrow.obj
 0002:00011f3c       ?_Noreplace@?$_Iosb@H@std@@2W4_Openmode@12@B 00577f3c     libcpmtd:xthrow.obj
 0002:00011f40       ?binary@?$_Iosb@H@std@@2W4_Openmode@12@B 00577f40     libcpmtd:xthrow.obj
 0002:00011f44       ?beg@?$_Iosb@H@std@@2W4_Seekdir@12@B 00577f44     libcpmtd:xthrow.obj
 0002:00011f48       ?cur@?$_Iosb@H@std@@2W4_Seekdir@12@B 00577f48     libcpmtd:xthrow.obj
 0002:00011f4c       ?end@?$_Iosb@H@std@@2W4_Seekdir@12@B 00577f4c     libcpmtd:xthrow.obj
 0002:00011f50       ?has_denorm@_Num_base@std@@2W4float_denorm_style@2@B 00577f50     libcpmtd:xthrow.obj
 0002:00011f54       ?collate@?$_Locbase@H@std@@2HB 00577f54     libcpmtd:xthrow.obj
 0002:00011f58       ?ctype@?$_Locbase@H@std@@2HB 00577f58     libcpmtd:xthrow.obj
 0002:00011f5c       ?has_denorm_loss@_Num_base@std@@2_NB 00577f5c     libcpmtd:xthrow.obj
 0002:00011f60       ?monetary@?$_Locbase@H@std@@2HB 00577f60     libcpmtd:xthrow.obj
 0002:00011f64       ?has_infinity@_Num_base@std@@2_NB 00577f64     libcpmtd:xthrow.obj
 0002:00011f68       ?numeric@?$_Locbase@H@std@@2HB 00577f68     libcpmtd:xthrow.obj
 0002:00011f6c       ?has_quiet_NaN@_Num_base@std@@2_NB 00577f6c     libcpmtd:xthrow.obj
 0002:00011f70       ?time@?$_Locbase@H@std@@2HB 00577f70     libcpmtd:xthrow.obj
 0002:00011f74       ?messages@?$_Locbase@H@std@@2HB 00577f74     libcpmtd:xthrow.obj
 0002:00011f78       ?has_signaling_NaN@_Num_base@std@@2_NB 00577f78     libcpmtd:xthrow.obj
 0002:00011f7c       ?all@?$_Locbase@H@std@@2HB 00577f7c     libcpmtd:xthrow.obj
 0002:00011f80       ?none@?$_Locbase@H@std@@2HB 00577f80     libcpmtd:xthrow.obj
 0002:00011f84       ?is_bounded@_Num_base@std@@2_NB 00577f84     libcpmtd:xthrow.obj
 0002:00011f85       ?is_exact@_Num_base@std@@2_NB 00577f85     libcpmtd:xthrow.obj
 0002:00011f86       ?is_iec559@_Num_base@std@@2_NB 00577f86     libcpmtd:xthrow.obj
 0002:00011f87       ?is_integer@_Num_base@std@@2_NB 00577f87     libcpmtd:xthrow.obj
 0002:00011f88       ?is_modulo@_Num_base@std@@2_NB 00577f88     libcpmtd:xthrow.obj
 0002:00011f89       ?is_signed@_Num_base@std@@2_NB 00577f89     libcpmtd:xthrow.obj
 0002:00011f8a       ?is_specialized@_Num_base@std@@2_NB 00577f8a     libcpmtd:xthrow.obj
 0002:00011f8b       ?tinyness_before@_Num_base@std@@2_NB 00577f8b     libcpmtd:xthrow.obj
 0002:00011f8c       ?traps@_Num_base@std@@2_NB 00577f8c     libcpmtd:xthrow.obj
 0002:00011f90       ?round_style@_Num_base@std@@2W4float_round_style@2@B 00577f90     libcpmtd:xthrow.obj
 0002:00011f94       ?digits@_Num_base@std@@2HB 00577f94     libcpmtd:xthrow.obj
 0002:00011f98       ?value@?$integral_constant@I$07@std@@2IB 00577f98     libcpmtd:xthrow.obj
 0002:00011f9c       ?digits10@_Num_base@std@@2HB 00577f9c     libcpmtd:xthrow.obj
 0002:00011fa0       ?max_digits10@_Num_base@std@@2HB 00577fa0     libcpmtd:xthrow.obj
 0002:00011fa4       ?max_exponent@_Num_base@std@@2HB 00577fa4     libcpmtd:xthrow.obj
 0002:00011fa8       ?max_exponent10@_Num_base@std@@2HB 00577fa8     libcpmtd:xthrow.obj
 0002:00011fac       ?min_exponent@_Num_base@std@@2HB 00577fac     libcpmtd:xthrow.obj
 0002:00011fb0       ?value@?$integral_constant@H$0A@@std@@2HB 00577fb0     libcpmtd:xthrow.obj
 0002:00011fb4       ?min_exponent10@_Num_base@std@@2HB 00577fb4     libcpmtd:xthrow.obj
 0002:00011fb8       ?radix@_Num_base@std@@2HB  00577fb8     libcpmtd:xthrow.obj
 0002:00011fbc       ?is_bounded@_Num_int_base@std@@2_NB 00577fbc     libcpmtd:xthrow.obj
 0002:00011fbd       ?is_exact@_Num_int_base@std@@2_NB 00577fbd     libcpmtd:xthrow.obj
 0002:00011fbe       ?is_integer@_Num_int_base@std@@2_NB 00577fbe     libcpmtd:xthrow.obj
 0002:00011fbf       ?is_modulo@_Num_int_base@std@@2_NB 00577fbf     libcpmtd:xthrow.obj
 0002:00011fc0       ?value@?$integral_constant@I$03@std@@2IB 00577fc0     libcpmtd:xthrow.obj
 0002:00011fc4       ?is_specialized@_Num_int_base@std@@2_NB 00577fc4     libcpmtd:xthrow.obj
 0002:00011fc8       ?radix@_Num_int_base@std@@2HB 00577fc8     libcpmtd:xthrow.obj
 0002:00011fcc       ?has_denorm@_Num_float_base@std@@2W4float_denorm_style@2@B 00577fcc     libcpmtd:xthrow.obj
 0002:00011fd0       ?has_denorm_loss@_Num_float_base@std@@2_NB 00577fd0     libcpmtd:xthrow.obj
 0002:00011fd1       ?has_infinity@_Num_float_base@std@@2_NB 00577fd1     libcpmtd:xthrow.obj
 0002:00011fd8       ??_7bad_alloc@std@@6B@     00577fd8     libcpmtd:xthrow.obj
 0002:00011fe0       ??_C@_0P@GHFPNOJB@bad?5allocation?$AA@ 00577fe0     libcpmtd:xthrow.obj
 0002:00011ff4       ??_7logic_error@std@@6B@   00577ff4     libcpmtd:xthrow.obj
 0002:00012000       ??_7invalid_argument@std@@6B@ 00578000     libcpmtd:xthrow.obj
 0002:0001200c       ??_7length_error@std@@6B@  0057800c     libcpmtd:xthrow.obj
 0002:00012018       ??_7out_of_range@std@@6B@  00578018     libcpmtd:xthrow.obj
 0002:00012024       ??_7runtime_error@std@@6B@ 00578024     libcpmtd:xthrow.obj
 0002:00012030       ??_7overflow_error@std@@6B@ 00578030     libcpmtd:xthrow.obj
 0002:0001203c       ??_7bad_function_call@std@@6B@ 0057803c     libcpmtd:xthrow.obj
 0002:00012044       ??_C@_0BC@DPJNKNAF@bad?5function?5call?$AA@ 00578044     libcpmtd:xthrow.obj
 0002:0001205c       ??_7regex_error@std@@6B@   0057805c     libcpmtd:xthrow.obj
 0002:00012068       ??_C@_0FI@CMNGHIFF@regex_error?$CIerror_collate?$CJ?3?5The?5@ 00578068     libcpmtd:xthrow.obj
 0002:000120c0       ??_C@_0FE@LJMHKIOC@regex_error?$CIerror_ctype?$CJ?3?5The?5ex@ 005780c0     libcpmtd:xthrow.obj
 0002:00012118       ??_C@_0GI@HEGGMMDL@regex_error?$CIerror_escape?$CJ?3?5The?5e@ 00578118     libcpmtd:xthrow.obj
 0002:00012180       ??_C@_0FA@HFMLPGNN@regex_error?$CIerror_backref?$CJ?3?5The?5@ 00578180     libcpmtd:xthrow.obj
 0002:000121d0       ??_C@_0EH@LGEANNAL@regex_error?$CIerror_brack?$CJ?3?5The?5ex@ 005781d0     libcpmtd:xthrow.obj
 0002:00012218       ??_C@_0EH@CAGOJGLE@regex_error?$CIerror_paren?$CJ?3?5The?5ex@ 00578218     libcpmtd:xthrow.obj
 0002:00012260       ??_C@_0EH@DICJJKLO@regex_error?$CIerror_brace?$CJ?3?5The?5ex@ 00578260     libcpmtd:xthrow.obj
 0002:000122a8       ??_C@_0FM@BLDIHIBB@regex_error?$CIerror_badbrace?$CJ?3?5The@ 005782a8     libcpmtd:xthrow.obj
 0002:00012308       ??_C@_0HA@ICNJLCMC@regex_error?$CIerror_range?$CJ?3?5The?5ex@ 00578308     libcpmtd:xthrow.obj
 0002:00012378       ??_C@_0GP@PICOBCHA@regex_error?$CIerror_space?$CJ?3?5There?5@ 00578378     libcpmtd:xthrow.obj
 0002:000123e8       ??_C@_0FK@LCHHHEOA@regex_error?$CIerror_badrepeat?$CJ?3?5On@ 005783e8     libcpmtd:xthrow.obj
 0002:00012448       ??_C@_0HL@NEKOFBJA@regex_error?$CIerror_complexity?$CJ?3?5T@ 00578448     libcpmtd:xthrow.obj
 0002:000124c8       ??_C@_0JC@HCDLJLGO@regex_error?$CIerror_stack?$CJ?3?5There?5@ 005784c8     libcpmtd:xthrow.obj
 0002:0001255c       ??_C@_0BJ@CHBLKGNM@regex_error?$CIerror_parse?$CJ?$AA@ 0057855c     libcpmtd:xthrow.obj
 0002:00012578       ??_C@_0BK@DFJCACNI@regex_error?$CIerror_syntax?$CJ?$AA@ 00578578     libcpmtd:xthrow.obj
 0002:00012594       ??_C@_0M@KGKAAGCA@regex_error?$AA@ 00578594     libcpmtd:xthrow.obj
 0002:000125a0       ??_C@_1FA@OCLBCAFA@?$AAf?$AA?3?$AA?2?$AAd?$AAd?$AA?2?$AAv?$AAc?$AAt?$AAo?$AAo?$AAl?$AAs?$AA?2?$AAc?$AAr?$AAt?$AA?2?$AAc?$AAr?$AAt?$AAw?$AA3?$AA2?$AA?2?$AAs?$AAt?$AAd?$AAh?$AAp?$AAp?$AA?2@ 005785a0     libcpmtd:xthrow.obj
 0002:00012ac0       ??_C@_0BC@CIJDGCDI@permission?5denied?$AA@ 00578ac0     libcpmtd:syserror.obj
 0002:00012ad4       ??_C@_0M@MIDIAGJP@file?5exists?$AA@ 00578ad4     libcpmtd:syserror.obj
 0002:00012ae0       ??_C@_0P@FDINDDOK@no?5such?5device?$AA@ 00578ae0     libcpmtd:syserror.obj
 0002:00012af0       ??_C@_0BC@EJHOMAAK@filename?5too?5long?$AA@ 00578af0     libcpmtd:syserror.obj
 0002:00012b04       ??_C@_0BI@NGCEHDD@device?5or?5resource?5busy?$AA@ 00578b04     libcpmtd:syserror.obj
 0002:00012b1c       ??_C@_08GLNPIFBN@io?5error?$AA@ 00578b1c     libcpmtd:syserror.obj
 0002:00012b28       ??_C@_0BE@JIDOCPHM@directory?5not?5empty?$AA@ 00578b28     libcpmtd:syserror.obj
 0002:00012b3c       ??_C@_0BB@FCMFBGOM@invalid?5argument?$AA@ 00578b3c     libcpmtd:syserror.obj
 0002:00012b50       ??_C@_0BD@IJDJKDEA@no?5space?5on?5device?$AA@ 00578b50     libcpmtd:syserror.obj
 0002:00012b64       ??_C@_0BK@NDOCBPGE@no?5such?5file?5or?5directory?$AA@ 00578b64     libcpmtd:syserror.obj
 0002:00012b80       ??_C@_0BH@KEFGLDAF@function?5not?5supported?$AA@ 00578b80     libcpmtd:syserror.obj
 0002:00012b98       ??_C@_0BC@NJECKMKE@no?5lock?5available?$AA@ 00578b98     libcpmtd:syserror.obj
 0002:00012bac       ??_C@_0BC@ENOOLCNF@not?5enough?5memory?$AA@ 00578bac     libcpmtd:syserror.obj
 0002:00012bc0       ??_C@_0BP@LKNGHENJ@resource?5unavailable?5try?5again?$AA@ 00578bc0     libcpmtd:syserror.obj
 0002:00012be0       ??_C@_0BC@PPHBOELF@cross?5device?5link?$AA@ 00578be0     libcpmtd:syserror.obj
 0002:00012bf4       ??_C@_0BD@MOLBPMEA@operation?5canceled?$AA@ 00578bf4     libcpmtd:syserror.obj
 0002:00012c08       ??_C@_0BE@GHAFMPAH@too?5many?5files?5open?$AA@ 00578c08     libcpmtd:syserror.obj
 0002:00012c1c       ??_C@_0BC@FNODOBAE@permission_denied?$AA@ 00578c1c     libcpmtd:syserror.obj
 0002:00012c30       ??_C@_0P@LNDJPBFK@address_in_use?$AA@ 00578c30     libcpmtd:syserror.obj
 0002:00012c40       ??_C@_0BG@IPMGOJF@address_not_available?$AA@ 00578c40     libcpmtd:syserror.obj
 0002:00012c58       ??_C@_0BN@LCBDHODA@address_family_not_supported?$AA@ 00578c58     libcpmtd:syserror.obj
 0002:00012c78       ??_C@_0BP@FOJJHMCC@connection_already_in_progress?$AA@ 00578c78     libcpmtd:syserror.obj
 0002:00012c98       ??_C@_0BE@DLHHIBGN@bad_file_descriptor?$AA@ 00578c98     libcpmtd:syserror.obj
 0002:00012cac       ??_C@_0BD@OJMJDIGI@connection_aborted?$AA@ 00578cac     libcpmtd:syserror.obj
 0002:00012cc0       ??_C@_0BD@NGKCIFEP@connection_refused?$AA@ 00578cc0     libcpmtd:syserror.obj
 0002:00012cd4       ??_C@_0BB@JOANDNCK@connection_reset?$AA@ 00578cd4     libcpmtd:syserror.obj
 0002:00012ce8       ??_C@_0BN@JLJNLKLK@destination_address_required?$AA@ 00578ce8     libcpmtd:syserror.obj
 0002:00012d08       ??_C@_0M@IJGMGFGP@bad_address?$AA@ 00578d08     libcpmtd:syserror.obj
 0002:00012d14       ??_C@_0BB@KKNHPPIN@host_unreachable?$AA@ 00578d14     libcpmtd:syserror.obj
 0002:00012d28       ??_C@_0BG@DJGBJIIK@operation_in_progress?$AA@ 00578d28     libcpmtd:syserror.obj
 0002:00012d40       ??_C@_0M@EGEKIIMP@interrupted?$AA@ 00578d40     libcpmtd:syserror.obj
 0002:00012d4c       ??_C@_0BB@FFIHMIPJ@invalid_argument?$AA@ 00578d4c     libcpmtd:syserror.obj
 0002:00012d60       ??_C@_0BC@FIFLCHLO@already_connected?$AA@ 00578d60     libcpmtd:syserror.obj
 0002:00012d74       ??_C@_0BE@GJJJJDDA@too_many_files_open?$AA@ 00578d74     libcpmtd:syserror.obj
 0002:00012d88       ??_C@_0N@HPMLKHPL@message_size?$AA@ 00578d88     libcpmtd:syserror.obj
 0002:00012d98       ??_C@_0BC@LEEIKBAL@filename_too_long?$AA@ 00578d98     libcpmtd:syserror.obj
 0002:00012dac       ??_C@_0N@FCPALPJK@network_down?$AA@ 00578dac     libcpmtd:syserror.obj
 0002:00012dbc       ??_C@_0O@EHNDLHIG@network_reset?$AA@ 00578dbc     libcpmtd:syserror.obj
 0002:00012dcc       ??_C@_0BE@JFNJIDNF@network_unreachable?$AA@ 00578dcc     libcpmtd:syserror.obj
 0002:00012de0       ??_C@_0BA@FDIJKJCL@no_buffer_space?$AA@ 00578de0     libcpmtd:syserror.obj
 0002:00012df0       ??_C@_0BD@JHIHCGKP@no_protocol_option?$AA@ 00578df0     libcpmtd:syserror.obj
 0002:00012e04       ??_C@_0O@GBCLHHD@not_connected?$AA@ 00578e04     libcpmtd:syserror.obj
 0002:00012e14       ??_C@_0N@IMHKKLEM@not_a_socket?$AA@ 00578e14     libcpmtd:syserror.obj
 0002:00012e24       ??_C@_0BI@ICEIDKLJ@operation_not_supported?$AA@ 00578e24     libcpmtd:syserror.obj
 0002:00012e3c       ??_C@_0BH@KAPBAIJF@protocol_not_supported?$AA@ 00578e3c     libcpmtd:syserror.obj
 0002:00012e54       ??_C@_0BE@GAOJJFPC@wrong_protocol_type?$AA@ 00578e54     libcpmtd:syserror.obj
 0002:00012e68       ??_C@_09NCHNLHPG@timed_out?$AA@ 00578e68     libcpmtd:syserror.obj
 0002:00012e74       ??_C@_0BG@GDGHKFDH@operation_would_block?$AA@ 00578e74     libcpmtd:syserror.obj
 0002:00012e8c       ??_C@_0BN@LKKBCCDB@address?5family?5not?5supported?$AA@ 00578e8c     libcpmtd:syserror.obj
 0002:00012eac       ??_C@_0P@LDMLAFHI@address?5in?5use?$AA@ 00578eac     libcpmtd:syserror.obj
 0002:00012ebc       ??_C@_0BG@DHPCNBJB@address?5not?5available?$AA@ 00578ebc     libcpmtd:syserror.obj
 0002:00012ed4       ??_C@_0BC@DFIBIBIL@already?5connected?$AA@ 00578ed4     libcpmtd:syserror.obj
 0002:00012ee8       ??_C@_0BH@CAKOHOMI@argument?5list?5too?5long?$AA@ 00578ee8     libcpmtd:syserror.obj
 0002:00012f00       ??_C@_0BH@CGIMPKIM@argument?5out?5of?5domain?$AA@ 00578f00     libcpmtd:syserror.obj
 0002:00012f18       ??_C@_0M@KGHGGJGL@bad?5address?$AA@ 00578f18     libcpmtd:syserror.obj
 0002:00012f24       ??_C@_0BE@MPJPGCEO@bad?5file?5descriptor?$AA@ 00578f24     libcpmtd:syserror.obj
 0002:00012f38       ??_C@_0M@PMMIEFCP@bad?5message?$AA@ 00578f38     libcpmtd:syserror.obj
 0002:00012f44       ??_C@_0M@KPHOFDBE@broken?5pipe?$AA@ 00578f44     libcpmtd:syserror.obj
 0002:00012f50       ??_C@_0BD@MGNDDEGM@connection?5aborted?$AA@ 00578f50     libcpmtd:syserror.obj
 0002:00012f64       ??_C@_0BP@KAIHPOGN@connection?5already?5in?5progress?$AA@ 00578f64     libcpmtd:syserror.obj
 0002:00012f84       ??_C@_0BD@PJLIIJEL@connection?5refused?$AA@ 00578f84     libcpmtd:syserror.obj
 0002:00012f98       ??_C@_0BB@IECNJNOI@connection?5reset?$AA@ 00578f98     libcpmtd:syserror.obj
 0002:00012fac       ??_C@_0BN@KDMIFEIP@destination?5address?5required?$AA@ 00578fac     libcpmtd:syserror.obj
 0002:00012fcc       ??_C@_0BI@BNCLIGPB@executable?5format?5error?$AA@ 00578fcc     libcpmtd:syserror.obj
 0002:00012fe4       ??_C@_0P@DNAJLBJK@file?5too?5large?$AA@ 00578fe4     libcpmtd:syserror.obj
 0002:00012ff4       ??_C@_0BB@DHFDFGDM@host?5unreachable?$AA@ 00578ff4     libcpmtd:syserror.obj
 0002:00013008       ??_C@_0BD@JPHBMONG@identifier?5removed?$AA@ 00579008     libcpmtd:syserror.obj
 0002:0001301c       ??_C@_0BG@CDNPAGJK@illegal?5byte?5sequence?$AA@ 0057901c     libcpmtd:syserror.obj
 0002:00013034       ??_C@_0CD@BNPLBMNA@inappropriate?5io?5control?5operati@ 00579034     libcpmtd:syserror.obj
 0002:00013058       ??_C@_0N@OHAFKDEK@invalid?5seek?$AA@ 00579058     libcpmtd:syserror.obj
 0002:00013068       ??_C@_0P@FLLDBIDK@is?5a?5directory?$AA@ 00579068     libcpmtd:syserror.obj
 0002:00013078       ??_C@_0N@IFLPBIOP@message?5size?$AA@ 00579078     libcpmtd:syserror.obj
 0002:00013088       ??_C@_0N@KIIEAAIO@network?5down?$AA@ 00579088     libcpmtd:syserror.obj
 0002:00013098       ??_C@_0O@FNPDBHEE@network?5reset?$AA@ 00579098     libcpmtd:syserror.obj
 0002:000130a8       ??_C@_0BE@IFNCKGE@network?5unreachable?$AA@ 005790a8     libcpmtd:syserror.obj
 0002:000130bc       ??_C@_0BA@PFFCAOFK@no?5buffer?5space?$AA@ 005790bc     libcpmtd:syserror.obj
 0002:000130cc       ??_C@_0BB@IEPBLJHK@no?5child?5process?$AA@ 005790cc     libcpmtd:syserror.obj
 0002:000130e0       ??_C@_07PLECNNKG@no?5link?$AA@ 005790e0     libcpmtd:syserror.obj
 0002:000130e8       ??_C@_0BF@PBGGPKKE@no?5message?5available?$AA@ 005790e8     libcpmtd:syserror.obj
 0002:00013100       ??_C@_0L@EDOLMPAK@no?5message?$AA@ 00579100     libcpmtd:syserror.obj
 0002:0001310c       ??_C@_0BD@EAMBFIDF@no?5protocol?5option?$AA@ 0057910c     libcpmtd:syserror.obj
 0002:00013120       ??_C@_0BE@MKFDAFMP@no?5stream?5resources?$AA@ 00579120     libcpmtd:syserror.obj
 0002:00013134       ??_C@_0BK@IMCPHCBI@no?5such?5device?5or?5address?$AA@ 00579134     libcpmtd:syserror.obj
 0002:00013150       ??_C@_0BA@ENLPPKBN@no?5such?5process?$AA@ 00579150     libcpmtd:syserror.obj
 0002:00013160       ??_C@_0BA@DOCPFFJG@not?5a?5directory?$AA@ 00579160     libcpmtd:syserror.obj
 0002:00013170       ??_C@_0N@POEIPGGF@not?5a?5socket?$AA@ 00579170     libcpmtd:syserror.obj
 0002:00013180       ??_C@_0N@LGAPMMPI@not?5a?5stream?$AA@ 00579180     libcpmtd:syserror.obj
 0002:00013190       ??_C@_0O@GLMIBBEG@not?5connected?$AA@ 00579190     libcpmtd:syserror.obj
 0002:000131a0       ??_C@_0O@NHEDABJP@not?5supported?$AA@ 005791a0     libcpmtd:syserror.obj
 0002:000131b0       ??_C@_0BG@KDKHOPCO@operation?5in?5progress?$AA@ 005791b0     libcpmtd:syserror.obj
 0002:000131c8       ??_C@_0BI@OHIEJAAB@operation?5not?5permitted?$AA@ 005791c8     libcpmtd:syserror.obj
 0002:000131e0       ??_C@_0BI@LNEGIFLN@operation?5not?5supported?$AA@ 005791e0     libcpmtd:syserror.obj
 0002:000131f8       ??_C@_0BG@OEMDKMEE@operation?5would?5block?$AA@ 005791f8     libcpmtd:syserror.obj
 0002:00013210       ??_C@_0L@BLPOFLNJ@owner?5dead?$AA@ 00579210     libcpmtd:syserror.obj
 0002:0001321c       ??_C@_0P@FNPOCJBE@protocol?5error?$AA@ 0057921c     libcpmtd:syserror.obj
 0002:0001322c       ??_C@_0BH@JPPPLHJB@protocol?5not?5supported?$AA@ 0057922c     libcpmtd:syserror.obj
 0002:00013244       ??_C@_0BG@EICBIHDP@read?5only?5file?5system?$AA@ 00579244     libcpmtd:syserror.obj
 0002:0001325c       ??_C@_0BO@BJBOMOEJ@resource?5deadlock?5would?5occur?$AA@ 0057925c     libcpmtd:syserror.obj
 0002:0001327c       ??_C@_0BE@GOIPJJHG@result?5out?5of?5range?$AA@ 0057927c     libcpmtd:syserror.obj
 0002:00013290       ??_C@_0BG@MPLKFPAE@state?5not?5recoverable?$AA@ 00579290     libcpmtd:syserror.obj
 0002:000132a8       ??_C@_0P@DIIFGFCG@stream?5timeout?$AA@ 005792a8     libcpmtd:syserror.obj
 0002:000132b8       ??_C@_0P@IPFDMIFL@text?5file?5busy?$AA@ 005792b8     libcpmtd:syserror.obj
 0002:000132c8       ??_C@_09KJPPMAOI@timed?5out?$AA@ 005792c8     libcpmtd:syserror.obj
 0002:000132d4       ??_C@_0BO@HACHBEKI@too?5many?5files?5open?5in?5system?$AA@ 005792d4     libcpmtd:syserror.obj
 0002:000132f4       ??_C@_0P@HCOMKFCC@too?5many?5links?$AA@ 005792f4     libcpmtd:syserror.obj
 0002:00013304       ??_C@_0BO@EFGOJEF@too?5many?5symbolic?5link?5levels?$AA@ 00579304     libcpmtd:syserror.obj
 0002:00013324       ??_C@_0BA@KGKGOOJA@value?5too?5large?$AA@ 00579324     libcpmtd:syserror.obj
 0002:00013334       ??_C@_0BE@MIEJDDNH@wrong?5protocol?5type?$AA@ 00579334     libcpmtd:syserror.obj
 0002:00013348       ??_C@_1EO@LHDAJOCM@?$AA_?$AAB?$AAL?$AAO?$AAC?$AAK?$AA_?$AAT?$AAY?$AAP?$AAE?$AA_?$AAI?$AAS?$AA_?$AAV?$AAA?$AAL?$AAI?$AAD?$AA?$CI?$AAp?$AAH?$AAe?$AAa?$AAd?$AA?9?$AA?$DO?$AAn?$AAB?$AAl?$AAo@ 00579348     LIBCMTD:dbgdel.obj
 0002:00013398       ??_C@_1FC@BHNGAOAE@?$AAf?$AA?3?$AA?2?$AAd?$AAd?$AA?2?$AAv?$AAc?$AAt?$AAo?$AAo?$AAl?$AAs?$AA?2?$AAc?$AAr?$AAt?$AA?2?$AAc?$AAr?$AAt?$AAw?$AA3?$AA2?$AA?2?$AAm?$AAi?$AAs?$AAc?$AA?2?$AAd?$AAb@ 00579398     LIBCMTD:dbgdel.obj
 0002:000133ec       ??_C@_0CH@JPGODKFM@f?3?2dd?2vctools?2crt?2crtw32?2misc?2on@ 005793ec     LIBCMTD:onexit.obj
 0002:00013418       __real@0000000000000000    00579418     LIBCMTD:hypot.obj
 0002:00013440       ?ProcessDetach@NativeDll@<CrtImplementationDetails>@@0IB 00579440     LIBCMTD:_trnsctrl_.obj
 0002:00013444       ?ProcessAttach@NativeDll@<CrtImplementationDetails>@@0IB 00579444     LIBCMTD:_trnsctrl_.obj
 0002:00013448       ?ThreadAttach@NativeDll@<CrtImplementationDetails>@@0IB 00579448     LIBCMTD:_trnsctrl_.obj
 0002:0001344c       ?ThreadDetach@NativeDll@<CrtImplementationDetails>@@0IB 0057944c     LIBCMTD:_trnsctrl_.obj
 0002:00013450       ?ProcessVerifier@NativeDll@<CrtImplementationDetails>@@0IB 00579450     LIBCMTD:_trnsctrl_.obj
 0002:00013458       ??_7type_info@@6B@         00579458     LIBCMTD:typinfo.obj
 0002:0001345c       __FPinit                   0057945c     LIBCMTD:fpinit.obj
 0002:00013460       ??_C@_1FC@NCPEPIBI@?$AA?$CI?$AA?$CI?$AA_?$AAD?$AAs?$AAt?$AA?$CJ?$AA?$CJ?$AA?5?$AA?$CB?$AA?$DN?$AA?5?$AAN?$AAU?$AAL?$AAL?$AA?5?$AA?$CG?$AA?$CG?$AA?5?$AA?$CI?$AA?$CI?$AA_?$AAS?$AAi?$AAz?$AAe?$AAI?$AAn?$AAB?$AAy?$AAt@ 00579460     LIBCMTD:strcpy_s.obj
 0002:000134b8       ??_C@_1FA@ILDLFIFE@?$AAf?$AA?3?$AA?2?$AAd?$AAd?$AA?2?$AAv?$AAc?$AAt?$AAo?$AAo?$AAl?$AAs?$AA?2?$AAc?$AAr?$AAt?$AA?2?$AAc?$AAr?$AAt?$AAw?$AA3?$AA2?$AA?2?$AAh?$AA?2?$AAt?$AAc?$AAs?$AAc?$AAp@ 005794b8     LIBCMTD:strcpy_s.obj
 0002:00013508       ??_C@_1BC@CFJEPFGF@?$AAs?$AAt?$AAr?$AAc?$AAp?$AAy?$AA_?$AAs?$AA?$AA@ 00579508     LIBCMTD:strcpy_s.obj
 0002:0001351c       ??_C@_1CG@OFBJMIGJ@?$AA?$CI?$AA?$CI?$AA?$CI?$AA_?$AAS?$AAr?$AAc?$AA?$CJ?$AA?$CJ?$AA?$CJ?$AA?5?$AA?$CB?$AA?$DN?$AA?5?$AAN?$AAU?$AAL?$AAL?$AA?$AA@ 0057951c     LIBCMTD:strcpy_s.obj
 0002:00013544       ??_C@_1CI@HCPHDDLE@?$AAB?$AAu?$AAf?$AAf?$AAe?$AAr?$AA?5?$AAi?$AAs?$AA?5?$AAt?$AAo?$AAo?$AA?5?$AAs?$AAm?$AAa?$AAl?$AAl?$AA?$AA@ 00579544     LIBCMTD:strcpy_s.obj
 0002:0001356c       ??_C@_1DM@MADKGDLO@?$AA?$CI?$AAL?$AA?$CC?$AAB?$AAu?$AAf?$AAf?$AAe?$AAr?$AA?5?$AAi?$AAs?$AA?5?$AAt?$AAo?$AAo?$AA?5?$AAs?$AAm?$AAa?$AAl?$AAl?$AA?$CC?$AA?5?$AA?$CG?$AA?$CG?$AA?5?$AA0?$AA?$CJ?$AA?$AA@ 0057956c     LIBCMTD:strcpy_s.obj
 0002:000135a8       ??_C@_1FA@EDIAPAPE@?$AAf?$AA?3?$AA?2?$AAd?$AAd?$AA?2?$AAv?$AAc?$AAt?$AAo?$AAo?$AAl?$AAs?$AA?2?$AAc?$AAr?$AAt?$AA?2?$AAc?$AAr?$AAt?$AAw?$AA3?$AA2?$AA?2?$AAh?$AA?2?$AAt?$AAc?$AAs?$AAc?$AAa@ 005795a8     LIBCMTD:strcat_s.obj
 0002:000135f8       ??_C@_1BC@HGPNAKGC@?$AAs?$AAt?$AAr?$AAc?$AAa?$AAt?$AA_?$AAs?$AA?$AA@ 005795f8     LIBCMTD:strcat_s.obj
 0002:0001360c       ??_C@_1DM@FHLMIEG@?$AAS?$AAt?$AAr?$AAi?$AAn?$AAg?$AA?5?$AAi?$AAs?$AA?5?$AAn?$AAo?$AAt?$AA?5?$AAn?$AAu?$AAl?$AAl?$AA?5?$AAt?$AAe?$AAr?$AAm?$AAi?$AAn?$AAa?$AAt?$AAe?$AAd?$AA?$AA@ 0057960c     LIBCMTD:strcat_s.obj
 0002:00013648       ??_C@_1FA@MJKDNFFB@?$AA?$CI?$AAL?$AA?$CC?$AAS?$AAt?$AAr?$AAi?$AAn?$AAg?$AA?5?$AAi?$AAs?$AA?5?$AAn?$AAo?$AAt?$AA?5?$AAn?$AAu?$AAl?$AAl?$AA?5?$AAt?$AAe?$AAr?$AAm?$AAi?$AAn?$AAa?$AAt?$AAe?$AAd@ 00579648     LIBCMTD:strcat_s.obj
 0002:000136a0       ??_C@_1BI@GKKCBDMD@?$AAd?$AAs?$AAt?$AA?5?$AA?$CB?$AA?$DN?$AA?5?$AAN?$AAU?$AAL?$AAL?$AA?$AA@ 005796a0     LIBCMTD:stricmp.obj
 0002:000136b8       ??_C@_1FE@PMFLJFHN@?$AAf?$AA?3?$AA?2?$AAd?$AAd?$AA?2?$AAv?$AAc?$AAt?$AAo?$AAo?$AAl?$AAs?$AA?2?$AAc?$AAr?$AAt?$AA?2?$AAc?$AAr?$AAt?$AAw?$AA3?$AA2?$AA?2?$AAs?$AAt?$AAr?$AAi?$AAn?$AAg?$AA?2@ 005796b8     LIBCMTD:stricmp.obj
 0002:0001370c       ??_C@_1BG@GLLONOEH@?$AA_?$AAs?$AAt?$AAr?$AAi?$AAc?$AAm?$AAp?$AA_?$AAl?$AA?$AA@ 0057970c     LIBCMTD:stricmp.obj
 0002:00013724       ??_C@_1BI@DCHLDCPP@?$AAs?$AAr?$AAc?$AA?5?$AA?$CB?$AA?$DN?$AA?5?$AAN?$AAU?$AAL?$AAL?$AA?$AA@ 00579724     LIBCMTD:stricmp.obj
 0002:0001373c       ??_C@_1BC@JLGKKIIG@?$AA_?$AAs?$AAt?$AAr?$AAi?$AAc?$AAm?$AAp?$AA?$AA@ 0057973c     LIBCMTD:stricmp.obj
 0002:00013750       ??_C@_1CC@OLIJCKA@?$AA?$CI?$AAs?$AAt?$AAr?$AAi?$AAn?$AAg?$AA?5?$AA?$CB?$AA?$DN?$AA?5?$AAN?$AAU?$AAL?$AAL?$AA?$CJ?$AA?$AA@ 00579750     LIBCMTD:sscanf.obj
 0002:00013778       ??_C@_1FA@LIFAAFAC@?$AAf?$AA?3?$AA?2?$AAd?$AAd?$AA?2?$AAv?$AAc?$AAt?$AAo?$AAo?$AAl?$AAs?$AA?2?$AAc?$AAr?$AAt?$AA?2?$AAc?$AAr?$AAt?$AAw?$AA3?$AA2?$AA?2?$AAs?$AAt?$AAd?$AAi?$AAo?$AA?2?$AAs@ 00579778     LIBCMTD:sscanf.obj
 0002:000137c8       ??_C@_1BC@KMGJCMNP@?$AAv?$AAs?$AAc?$AAa?$AAn?$AA_?$AAf?$AAn?$AA?$AA@ 005797c8     LIBCMTD:sscanf.obj
 0002:000137dc       ??_C@_1CC@MGIEJOME@?$AA?$CI?$AAf?$AAo?$AAr?$AAm?$AAa?$AAt?$AA?5?$AA?$CB?$AA?$DN?$AA?5?$AAN?$AAU?$AAL?$AAL?$AA?$CJ?$AA?$AA@ 005797dc     LIBCMTD:sscanf.obj
 0002:00013800       ??_C@_1FC@JALKILNE@?$AAf?$AA?3?$AA?2?$AAd?$AAd?$AA?2?$AAv?$AAc?$AAt?$AAo?$AAo?$AAl?$AAs?$AA?2?$AAc?$AAr?$AAt?$AA?2?$AAc?$AAr?$AAt?$AAw?$AA3?$AA2?$AA?2?$AAs?$AAt?$AAd?$AAi?$AAo?$AA?2?$AAs@ 00579800     LIBCMTD:snprintf.obj
 0002:00013854       ??_C@_1BE@CHNFPLHD@?$AA_?$AAs?$AAn?$AAp?$AAr?$AAi?$AAn?$AAt?$AAf?$AA?$AA@ 00579854     LIBCMTD:snprintf.obj
 0002:00013868       ??_C@_1EC@FABAOFFO@?$AA?$CI?$AAc?$AAo?$AAu?$AAn?$AAt?$AA?5?$AA?$DN?$AA?$DN?$AA?5?$AA0?$AA?$CJ?$AA?5?$AA?$HM?$AA?$HM?$AA?5?$AA?$CI?$AAs?$AAt?$AAr?$AAi?$AAn?$AAg?$AA?5?$AA?$CB?$AA?$DN?$AA?5?$AAN?$AAU?$AAL?$AAL?$AA?$CJ@ 00579868     LIBCMTD:snprintf.obj
 0002:000138ac       ??_C@_1BA@KBJJGFFE@?$AAs?$AAp?$AAr?$AAi?$AAn?$AAt?$AAf?$AA?$AA@ 005798ac     LIBCMTD:sprintf.obj
 0002:000138c8       ??_C@_1BA@GLMCNLEM@?$AAW?$AAa?$AAr?$AAn?$AAi?$AAn?$AAg?$AA?$AA@ 005798c8     LIBCMTD:dbgrptw.obj
 0002:000138d8       ??_C@_1M@ILHOPKA@?$AAE?$AAr?$AAr?$AAo?$AAr?$AA?$AA@ 005798d8     LIBCMTD:dbgrptw.obj
 0002:000138e4       ??_C@_1CC@CGHMNGDG@?$AAA?$AAs?$AAs?$AAe?$AAr?$AAt?$AAi?$AAo?$AAn?$AA?5?$AAF?$AAa?$AAi?$AAl?$AAe?$AAd?$AA?$AA@ 005798e4     LIBCMTD:dbgrptw.obj
 0002:00013908       ??_C@_17LGKOMLJ@?$AA?4?$AA?4?$AA?4?$AA?$AA@ 00579908     LIBCMTD:dbgrptw.obj
 0002:00013910       ??_C@_1HI@OFEHGPPC@?$AAm?$AAo?$AAd?$AAe?$AA?5?$AA?$DN?$AA?$DN?$AA?5?$AA_?$AAC?$AAR?$AAT?$AA_?$AAR?$AAP?$AAT?$AAH?$AAO?$AAO?$AAK?$AA_?$AAI?$AAN?$AAS?$AAT?$AAA?$AAL?$AAL?$AA?5?$AA?$HM?$AA?$HM?$AA?5@ 00579910     LIBCMTD:dbgrptw.obj
 0002:00013988       ??_C@_1EO@JACJHHCK@?$AAf?$AA?3?$AA?2?$AAd?$AAd?$AA?2?$AAv?$AAc?$AAt?$AAo?$AAo?$AAl?$AAs?$AA?2?$AAc?$AAr?$AAt?$AA?2?$AAc?$AAr?$AAt?$AAw?$AA3?$AA2?$AA?2?$AAm?$AAi?$AAs?$AAc?$AA?2?$AAd?$AAb@ 00579988     LIBCMTD:dbgrptw.obj
 0002:000139d8       ??_C@_1CI@IIHEAKEI@?$AA_?$AAC?$AAr?$AAt?$AAS?$AAe?$AAt?$AAR?$AAe?$AAp?$AAo?$AAr?$AAt?$AAH?$AAo?$AAo?$AAk?$AAW?$AA2?$AA?$AA@ 005799d8     LIBCMTD:dbgrptw.obj
 0002:00013a00       ??_C@_1CG@JBJEFOCM@?$AAp?$AAf?$AAn?$AAN?$AAe?$AAw?$AAH?$AAo?$AAo?$AAk?$AA?5?$AA?$CB?$AA?$DN?$AA?5?$AAN?$AAU?$AAL?$AAL?$AA?$AA@ 00579a00     LIBCMTD:dbgrptw.obj
 0002:00013a28       ??_C@_1FI@PHIAFFHM@?$AA?$CI?$AA?$CC?$AAT?$AAh?$AAe?$AA?5?$AAh?$AAo?$AAo?$AAk?$AA?5?$AAf?$AAu?$AAn?$AAc?$AAt?$AAi?$AAo?$AAn?$AA?5?$AAi?$AAs?$AA?5?$AAn?$AAo?$AAt?$AA?5?$AAi?$AAn?$AA?5?$AAt?$AAh@ 00579a28     LIBCMTD:dbgrptw.obj
 0002:00013a80       ??_C@_0CH@BBGAHGHC@f?3?2dd?2vctools?2crt?2crtw32?2misc?2db@ 00579a80     LIBCMTD:dbgrptw.obj
 0002:00013aa8       ??_C@_1CI@PGJIFDEK@?$AA_?$AA_?$AAc?$AAr?$AAt?$AAM?$AAe?$AAs?$AAs?$AAa?$AAg?$AAe?$AAW?$AAi?$AAn?$AAd?$AAo?$AAw?$AAW?$AA?$AA@ 00579aa8     LIBCMTD:dbgrptw.obj
 0002:00013ad0       ??_C@_1GI@DEDNNLCI@?$AAw?$AAc?$AAs?$AAc?$AAp?$AAy?$AA_?$AAs?$AA?$CI?$AAs?$AAz?$AAE?$AAx?$AAe?$AAN?$AAa?$AAm?$AAe?$AA?0?$AA?5?$AA2?$AA6?$AA0?$AA?0?$AA?5?$AAL?$AA?$CC?$AA?$DM?$AAp?$AAr?$AAo?$AAg@ 00579ad0     LIBCMTD:dbgrptw.obj
 0002:00013b38       ??_C@_1CO@EAEJAADC@?$AA?$DM?$AAp?$AAr?$AAo?$AAg?$AAr?$AAa?$AAm?$AA?5?$AAn?$AAa?$AAm?$AAe?$AA?5?$AAu?$AAn?$AAk?$AAn?$AAo?$AAw?$AAn?$AA?$DO?$AA?$AA@ 00579b38     LIBCMTD:dbgrptw.obj
 0002:00013b68       ??_C@_1NO@LECLLHOL@?$AAm?$AAe?$AAm?$AAc?$AAp?$AAy?$AA_?$AAs?$AA?$CI?$AAs?$AAz?$AAS?$AAh?$AAo?$AAr?$AAt?$AAP?$AAr?$AAo?$AAg?$AAN?$AAa?$AAm?$AAe?$AA?0?$AA?5?$AAs?$AAi?$AAz?$AAe?$AAo?$AAf@ 00579b68     LIBCMTD:dbgrptw.obj
 0002:00013c48       ??_C@_1OG@PMPPFHAF@?$AA?6?$AA?6?$AAF?$AAo?$AAr?$AA?5?$AAi?$AAn?$AAf?$AAo?$AAr?$AAm?$AAa?$AAt?$AAi?$AAo?$AAn?$AA?5?$AAo?$AAn?$AA?5?$AAh?$AAo?$AAw?$AA?5?$AAy?$AAo?$AAu?$AAr?$AA?5?$AAp?$AAr@ 00579c48     LIBCMTD:dbgrptw.obj
 0002:00013d30       ??_C@_11LOCGONAA@?$AA?$AA@ 00579d30     LIBCMTD:dbgrptw.obj
 0002:00013d34       ??_C@_1BK@PEDCIPMA@?$AAE?$AAx?$AAp?$AAr?$AAe?$AAs?$AAs?$AAi?$AAo?$AAn?$AA?3?$AA?5?$AA?$AA@ 00579d34     LIBCMTD:dbgrptw.obj
 0002:00013d50       ??_C@_15IABLJNFO@?$AA?6?$AA?6?$AA?$AA@ 00579d50     LIBCMTD:dbgrptw.obj
 0002:00013d58       ??_C@_1BA@GLLGCPCK@?$AA?6?$AAL?$AAi?$AAn?$AAe?$AA?3?$AA?5?$AA?$AA@ 00579d58     LIBCMTD:dbgrptw.obj
 0002:00013d68       ??_C@_1BA@LNHECFIM@?$AA?6?$AAF?$AAi?$AAl?$AAe?$AA?3?$AA?5?$AA?$AA@ 00579d68     LIBCMTD:dbgrptw.obj
 0002:00013d78       ??_C@_1BE@CGCJKGHI@?$AA?6?$AAM?$AAo?$AAd?$AAu?$AAl?$AAe?$AA?3?$AA?5?$AA?$AA@ 00579d78     LIBCMTD:dbgrptw.obj
 0002:00013d90       ??_C@_1KM@HNMIBKJH@?$AAD?$AAe?$AAb?$AAu?$AAg?$AA?5?$AA?$CF?$AAs?$AA?$CB?$AA?6?$AA?6?$AAP?$AAr?$AAo?$AAg?$AAr?$AAa?$AAm?$AA?3?$AA?5?$AA?$CF?$AAs?$AA?$CF?$AAs?$AA?$CF?$AAs?$AA?$CF?$AAs?$AA?$CF?$AAs?$AA?$CF?$AAs@ 00579d90     LIBCMTD:dbgrptw.obj
 0002:00013e3c       ??_C@_1BI@KALLJECN@?$AA?$CI?$AA?$CK?$AA_?$AAe?$AAr?$AAr?$AAn?$AAo?$AA?$CI?$AA?$CJ?$AA?$CJ?$AA?$AA@ 00579e3c     LIBCMTD:dbgrptw.obj
 0002:00013e58       ??_C@_1JI@EACPGHID@?$AAw?$AAc?$AAs?$AAc?$AAp?$AAy?$AA_?$AAs?$AA?$CI?$AAs?$AAz?$AAO?$AAu?$AAt?$AAM?$AAe?$AAs?$AAs?$AAa?$AAg?$AAe?$AA?0?$AA?5?$AA4?$AA0?$AA9?$AA6?$AA?0?$AA?5?$AAL?$AA?$CC?$AA_@ 00579e58     LIBCMTD:dbgrptw.obj
 0002:00013ef0       ??_C@_1FG@BBOLDHGF@?$AA_?$AAC?$AAr?$AAt?$AAD?$AAb?$AAg?$AAR?$AAe?$AAp?$AAo?$AAr?$AAt?$AA?3?$AA?5?$AAS?$AAt?$AAr?$AAi?$AAn?$AAg?$AA?5?$AAt?$AAo?$AAo?$AA?5?$AAl?$AAo?$AAn?$AAg?$AA?5?$AAo@ 00579ef0     LIBCMTD:dbgrptw.obj
 0002:00013f48       ??_C@_1EK@MBDPDCGA@?$AAM?$AAi?$AAc?$AAr?$AAo?$AAs?$AAo?$AAf?$AAt?$AA?5?$AAV?$AAi?$AAs?$AAu?$AAa?$AAl?$AA?5?$AAC?$AA?$CL?$AA?$CL?$AA?5?$AAR?$AAu?$AAn?$AAt?$AAi?$AAm?$AAe?$AA?5?$AAL?$AAi?$AAb@ 00579f48     LIBCMTD:dbgrptw.obj
 0002:00013f94       ??_C@_13LBAGMAIH@?$AA?6?$AA?$AA@ 00579f94     LIBCMTD:wassert.obj
 0002:00013f98       ??_C@_1EO@DPPHNOPL@?$AAf?$AA?3?$AA?2?$AAd?$AAd?$AA?2?$AAv?$AAc?$AAt?$AAo?$AAo?$AAl?$AAs?$AA?2?$AAc?$AAr?$AAt?$AA?2?$AAc?$AAr?$AAt?$AAw?$AA3?$AA2?$AA?2?$AAm?$AAi?$AAs?$AAc?$AA?2?$AAa?$AAs@ 00579f98     LIBCMTD:wassert.obj
 0002:00013fe8       ??_C@_1BC@LNOOMFNA@?$AA_?$AAw?$AAa?$AAs?$AAs?$AAe?$AAr?$AAt?$AA?$AA@ 00579fe8     LIBCMTD:wassert.obj
 0002:00014000       ??_C@_1GM@PANFFKAD@?$AAw?$AAc?$AAs?$AAc?$AAp?$AAy?$AA_?$AAs?$AA?$CI?$AA?5?$AAa?$AAs?$AAs?$AAe?$AAr?$AAt?$AAb?$AAu?$AAf?$AA?0?$AA?5?$AA?$CI?$AA6?$AA4?$AA?5?$AA?$CK?$AA?5?$AA9?$AA?$CJ?$AA?0?$AA?5?$AAL@ 0057a000     LIBCMTD:wassert.obj
 0002:0001406c       ??_C@_1CE@OJBNHDMO@?$AAA?$AAs?$AAs?$AAe?$AAr?$AAt?$AAi?$AAo?$AAn?$AA?5?$AAf?$AAa?$AAi?$AAl?$AAe?$AAd?$AA?$CB?$AA?$AA@ 0057a06c     LIBCMTD:wassert.obj
 0002:00014090       ??_C@_1FI@OJONHFCN@?$AAw?$AAc?$AAs?$AAc?$AAa?$AAt?$AA_?$AAs?$AA?$CI?$AA?5?$AAa?$AAs?$AAs?$AAe?$AAr?$AAt?$AAb?$AAu?$AAf?$AA?0?$AA?5?$AA?$CI?$AA6?$AA4?$AA?5?$AA?$CK?$AA?5?$AA9?$AA?$CJ?$AA?0?$AA?5?$AAd@ 0057a090     LIBCMTD:wassert.obj
 0002:000140e8       ??_C@_1FM@JONFCKBO@?$AAw?$AAc?$AAs?$AAc?$AAa?$AAt?$AA_?$AAs?$AA?$CI?$AA?5?$AAa?$AAs?$AAs?$AAe?$AAr?$AAt?$AAb?$AAu?$AAf?$AA?0?$AA?5?$AA?$CI?$AA6?$AA4?$AA?5?$AA?$CK?$AA?5?$AA9?$AA?$CJ?$AA?0?$AA?5?$AAL@ 0057a0e8     LIBCMTD:wassert.obj
 0002:00014144       ??_C@_1BE@PHKBBGE@?$AAP?$AAr?$AAo?$AAg?$AAr?$AAa?$AAm?$AA?3?$AA?5?$AA?$AA@ 0057a144     LIBCMTD:wassert.obj
 0002:00014158       ??_C@_1HA@EPFCONEE@?$AAw?$AAc?$AAs?$AAc?$AAp?$AAy?$AA_?$AAs?$AA?$CI?$AA?5?$AAp?$AAr?$AAo?$AAg?$AAn?$AAa?$AAm?$AAe?$AA?0?$AA?5?$AA2?$AA6?$AA0?$AA?5?$AA?$CL?$AA?5?$AA1?$AA?0?$AA?5?$AAL?$AA?$CC?$AA?$DM@ 0057a158     LIBCMTD:wassert.obj
 0002:000141c8       ??_C@_1LK@LGFOFOMH@?$AAm?$AAe?$AAm?$AAc?$AAp?$AAy?$AA_?$AAs?$AA?$CI?$AAp?$AAc?$AAh?$AA?0?$AA?5?$AAs?$AAi?$AAz?$AAe?$AAo?$AAf?$AA?$CI?$AAT?$AAC?$AAH?$AAA?$AAR?$AA?$CJ?$AA?5?$AA?$CK?$AA?5?$AA?$CI?$AA?$CI@ 0057a1c8     LIBCMTD:wassert.obj
 0002:00014288       ??_C@_1EK@BFAHOLDO@?$AAw?$AAc?$AAs?$AAc?$AAa?$AAt?$AA_?$AAs?$AA?$CI?$AA?5?$AAa?$AAs?$AAs?$AAe?$AAr?$AAt?$AAb?$AAu?$AAf?$AA?0?$AA?5?$AA?$CI?$AA6?$AA4?$AA?5?$AA?$CK?$AA?5?$AA9?$AA?$CJ?$AA?0?$AA?5?$AAp@ 0057a288     LIBCMTD:wassert.obj
 0002:000142d8       ??_C@_1FC@GNPGDADJ@?$AAw?$AAc?$AAs?$AAc?$AAa?$AAt?$AA_?$AAs?$AA?$CI?$AA?5?$AAa?$AAs?$AAs?$AAe?$AAr?$AAt?$AAb?$AAu?$AAf?$AA?0?$AA?5?$AA?$CI?$AA6?$AA4?$AA?5?$AA?$CK?$AA?5?$AA9?$AA?$CJ?$AA?0?$AA?5?$AAn@ 0057a2d8     LIBCMTD:wassert.obj
 0002:00014330       ??_C@_1FG@NHACFNEK@?$AAw?$AAc?$AAs?$AAc?$AAa?$AAt?$AA_?$AAs?$AA?$CI?$AA?5?$AAa?$AAs?$AAs?$AAe?$AAr?$AAt?$AAb?$AAu?$AAf?$AA?0?$AA?5?$AA?$CI?$AA6?$AA4?$AA?5?$AA?$CK?$AA?5?$AA9?$AA?$CJ?$AA?0?$AA?5?$AAL@ 0057a330     LIBCMTD:wassert.obj
 0002:00014388       ??_C@_1O@HEMHKNDC@?$AAF?$AAi?$AAl?$AAe?$AA?3?$AA?5?$AA?$AA@ 0057a388     LIBCMTD:wassert.obj
 0002:00014398       ??_C@_1GG@PKOIFPHI@?$AAw?$AAc?$AAs?$AAn?$AAc?$AAa?$AAt?$AA_?$AAs?$AA?$CI?$AA?5?$AAa?$AAs?$AAs?$AAe?$AAr?$AAt?$AAb?$AAu?$AAf?$AA?0?$AA?5?$AA?$CI?$AA6?$AA4?$AA?5?$AA?$CK?$AA?5?$AA9?$AA?$CJ?$AA?0?$AA?5@ 0057a398     LIBCMTD:wassert.obj
 0002:00014400       ??_C@_1FG@PLMFGJFG@?$AAw?$AAc?$AAs?$AAc?$AAa?$AAt?$AA_?$AAs?$AA?$CI?$AA?5?$AAa?$AAs?$AAs?$AAe?$AAr?$AAt?$AAb?$AAu?$AAf?$AA?0?$AA?5?$AA?$CI?$AA6?$AA4?$AA?5?$AA?$CK?$AA?5?$AA9?$AA?$CJ?$AA?0?$AA?5?$AAd@ 0057a400     LIBCMTD:wassert.obj
 0002:00014458       ??_C@_1FO@HPHMICDB@?$AAw?$AAc?$AAs?$AAc?$AAa?$AAt?$AA_?$AAs?$AA?$CI?$AA?5?$AAa?$AAs?$AAs?$AAe?$AAr?$AAt?$AAb?$AAu?$AAf?$AA?0?$AA?5?$AA?$CI?$AA6?$AA4?$AA?5?$AA?$CK?$AA?5?$AA9?$AA?$CJ?$AA?0?$AA?5?$AAp@ 0057a458     LIBCMTD:wassert.obj
 0002:000144b8       ??_C@_1GO@KNIHEHNA@?$AAw?$AAc?$AAs?$AAn?$AAc?$AAa?$AAt?$AA_?$AAs?$AA?$CI?$AA?5?$AAa?$AAs?$AAs?$AAe?$AAr?$AAt?$AAb?$AAu?$AAf?$AA?0?$AA?5?$AA?$CI?$AA6?$AA4?$AA?5?$AA?$CK?$AA?5?$AA9?$AA?$CJ?$AA?0?$AA?5@ 0057a4b8     LIBCMTD:wassert.obj
 0002:00014528       ??_C@_1HG@FHHFPPED@?$AAw?$AAc?$AAs?$AAn?$AAc?$AAa?$AAt?$AA_?$AAs?$AA?$CI?$AA?5?$AAa?$AAs?$AAs?$AAe?$AAr?$AAt?$AAb?$AAu?$AAf?$AA?0?$AA?5?$AA?$CI?$AA6?$AA4?$AA?5?$AA?$CK?$AA?5?$AA9?$AA?$CJ?$AA?0?$AA?5@ 0057a528     LIBCMTD:wassert.obj
 0002:000145a0       ??_C@_1IC@JGCGJJHO@?$AAw?$AAc?$AAs?$AAc?$AAa?$AAt?$AA_?$AAs?$AA?$CI?$AA?5?$AAa?$AAs?$AAs?$AAe?$AAr?$AAt?$AAb?$AAu?$AAf?$AA?0?$AA?5?$AA?$CI?$AA6?$AA4?$AA?5?$AA?$CK?$AA?5?$AA9?$AA?$CJ?$AA?0?$AA?5?$AAp@ 0057a5a0     LIBCMTD:wassert.obj
 0002:00014628       ??_C@_1FE@NDOBOCBD@?$AAw?$AAc?$AAs?$AAc?$AAa?$AAt?$AA_?$AAs?$AA?$CI?$AA?5?$AAa?$AAs?$AAs?$AAe?$AAr?$AAt?$AAb?$AAu?$AAf?$AA?0?$AA?5?$AA?$CI?$AA6?$AA4?$AA?5?$AA?$CK?$AA?5?$AA9?$AA?$CJ?$AA?0?$AA?5?$AAf@ 0057a628     LIBCMTD:wassert.obj
 0002:00014680       ??_C@_1FG@HLHNIBH@?$AAw?$AAc?$AAs?$AAc?$AAa?$AAt?$AA_?$AAs?$AA?$CI?$AA?5?$AAa?$AAs?$AAs?$AAe?$AAr?$AAt?$AAb?$AAu?$AAf?$AA?0?$AA?5?$AA?$CI?$AA6?$AA4?$AA?5?$AA?$CK?$AA?5?$AA9?$AA?$CJ?$AA?0?$AA?5?$AAL@ 0057a680     LIBCMTD:wassert.obj
 0002:000146d8       ??_C@_1O@KCAFKHJE@?$AAL?$AAi?$AAn?$AAe?$AA?3?$AA?5?$AA?$AA@ 0057a6d8     LIBCMTD:wassert.obj
 0002:000146e8       ??_C@_1KG@NJJPHNOK@?$AA_?$AAi?$AAt?$AAo?$AAw?$AA_?$AAs?$AA?$CI?$AA?5?$AAl?$AAi?$AAn?$AAe?$AAn?$AAo?$AA?0?$AA?5?$AAa?$AAs?$AAs?$AAe?$AAr?$AAt?$AAb?$AAu?$AAf?$AA?5?$AA?$CL?$AA?5?$AAw?$AAc?$AAs@ 0057a6e8     LIBCMTD:wassert.obj
 0002:00014790       ??_C@_1GC@CFDADAM@?$AAw?$AAc?$AAs?$AAc?$AAa?$AAt?$AA_?$AAs?$AA?$CI?$AA?5?$AAa?$AAs?$AAs?$AAe?$AAr?$AAt?$AAb?$AAu?$AAf?$AA?0?$AA?5?$AA?$CI?$AA6?$AA4?$AA?5?$AA?$CK?$AA?5?$AA9?$AA?$CJ?$AA?0?$AA?5?$AAL@ 0057a790     LIBCMTD:wassert.obj
 0002:000147f8       ??_C@_1CHM@HIHGOMKE@?$AAw?$AAc?$AAs?$AAn?$AAc?$AAa?$AAt?$AA_?$AAs?$AA?$CI?$AA?5?$AAa?$AAs?$AAs?$AAe?$AAr?$AAt?$AAb?$AAu?$AAf?$AA?0?$AA?5?$AA?$CI?$AA6?$AA4?$AA?5?$AA?$CK?$AA?5?$AA9?$AA?$CJ?$AA?0?$AA?5@ 0057a7f8     LIBCMTD:wassert.obj
 0002:00014a78       ??_C@_1EM@DAMJKKKC@?$AAw?$AAc?$AAs?$AAc?$AAa?$AAt?$AA_?$AAs?$AA?$CI?$AA?5?$AAa?$AAs?$AAs?$AAe?$AAr?$AAt?$AAb?$AAu?$AAf?$AA?0?$AA?5?$AA?$CI?$AA6?$AA4?$AA?5?$AA?$CK?$AA?5?$AA9?$AA?$CJ?$AA?0?$AA?5?$AAe@ 0057aa78     LIBCMTD:wassert.obj
 0002:00014ac8       ??_C@_1BCO@GAGHDLIF@?$AAw?$AAc?$AAs?$AAc?$AAa?$AAt?$AA_?$AAs?$AA?$CI?$AAa?$AAs?$AAs?$AAe?$AAr?$AAt?$AAb?$AAu?$AAf?$AA?0?$AA?5?$AA?$CI?$AA6?$AA4?$AA?5?$AA?$CK?$AA?5?$AA9?$AA?$CJ?$AA?0?$AA?5?$AAL?$AA?$CC@ 0057aac8     LIBCMTD:wassert.obj
 0002:00014bf8       ??_C@_1OA@EGMLFBHJ@?$AAF?$AAo?$AAr?$AA?5?$AAi?$AAn?$AAf?$AAo?$AAr?$AAm?$AAa?$AAt?$AAi?$AAo?$AAn?$AA?5?$AAo?$AAn?$AA?5?$AAh?$AAo?$AAw?$AA?5?$AAy?$AAo?$AAu?$AAr?$AA?5?$AAp?$AAr?$AAo?$AAg@ 0057abf8     LIBCMTD:wassert.obj
 0002:00014cd8       ??_C@_1FG@IFIHHMNM@?$AAw?$AAc?$AAs?$AAc?$AAa?$AAt?$AA_?$AAs?$AA?$CI?$AAa?$AAs?$AAs?$AAe?$AAr?$AAt?$AAb?$AAu?$AAf?$AA?0?$AA?5?$AA?$CI?$AA6?$AA4?$AA?5?$AA?$CK?$AA?5?$AA9?$AA?$CJ?$AA?0?$AA?5?$AAd?$AAb@ 0057acd8     LIBCMTD:wassert.obj
 0002:00014d30       ??_C@_1LO@CHAFGADE@?$AAw?$AAc?$AAs?$AAc?$AAa?$AAt?$AA_?$AAs?$AA?$CI?$AAa?$AAs?$AAs?$AAe?$AAr?$AAt?$AAb?$AAu?$AAf?$AA?0?$AA?5?$AA?$CI?$AA6?$AA4?$AA?5?$AA?$CK?$AA?5?$AA9?$AA?$CJ?$AA?0?$AA?5?$AAL?$AA?$CC@ 0057ad30     LIBCMTD:wassert.obj
 0002:00014df0       ??_C@_1HK@POCJMFGK@?$AA?$CI?$AAP?$AAr?$AAe?$AAs?$AAs?$AA?5?$AAR?$AAe?$AAt?$AAr?$AAy?$AA?5?$AAt?$AAo?$AA?5?$AAd?$AAe?$AAb?$AAu?$AAg?$AA?5?$AAt?$AAh?$AAe?$AA?5?$AAa?$AAp?$AAp?$AAl?$AAi?$AAc@ 0057adf0     LIBCMTD:wassert.obj
 0002:00014e6c       ??_C@_1BK@LAOAACLJ@?$AAn?$AAp?$AAt?$AAr?$AA?5?$AA?$CB?$AA?$DN?$AA?5?$AAN?$AAU?$AAL?$AAL?$AA?$AA@ 0057ae6c     LIBCMTD:strtol.obj
 0002:00014e88       ??_C@_1FE@OOICPOFH@?$AAf?$AA?3?$AA?2?$AAd?$AAd?$AA?2?$AAv?$AAc?$AAt?$AAo?$AAo?$AAl?$AAs?$AA?2?$AAc?$AAr?$AAt?$AA?2?$AAc?$AAr?$AAt?$AAw?$AA3?$AA2?$AA?2?$AAc?$AAo?$AAn?$AAv?$AAe?$AAr?$AAt@ 0057ae88     LIBCMTD:strtol.obj
 0002:00014edc       ??_C@_1BA@LOLAMAJG@?$AAs?$AAt?$AAr?$AAt?$AAo?$AAx?$AAl?$AA?$AA@ 0057aedc     LIBCMTD:strtol.obj
 0002:00014ef0       ??_C@_1FE@CEHLKAHD@?$AAi?$AAb?$AAa?$AAs?$AAe?$AA?5?$AA?$DN?$AA?$DN?$AA?5?$AA0?$AA?5?$AA?$HM?$AA?$HM?$AA?5?$AA?$CI?$AA2?$AA?5?$AA?$DM?$AA?$DN?$AA?5?$AAi?$AAb?$AAa?$AAs?$AAe?$AA?5?$AA?$CG?$AA?$CG?$AA?5?$AAi?$AAb?$AAa@ 0057aef0     LIBCMTD:strtol.obj
 0002:00014f50       ??_C@_03KHICJKCI@?4?4?4?$AA@ 0057af50     LIBCMTD:dbgrpt.obj
 0002:00014f54       ??_C@_1CG@GNMJDMIO@?$AA_?$AAC?$AAr?$AAt?$AAS?$AAe?$AAt?$AAR?$AAe?$AAp?$AAo?$AAr?$AAt?$AAH?$AAo?$AAo?$AAk?$AA2?$AA?$AA@ 0057af54     LIBCMTD:dbgrpt.obj
 0002:00014f7c       ??_C@_1CI@IDOKFLAJ@?$AA_?$AA_?$AAc?$AAr?$AAt?$AAM?$AAe?$AAs?$AAs?$AAa?$AAg?$AAe?$AAW?$AAi?$AAn?$AAd?$AAo?$AAw?$AAA?$AA?$AA@ 0057af7c     LIBCMTD:dbgrpt.obj
 0002:00014fa8       ??_C@_1GG@DLDHOIGE@?$AAs?$AAt?$AAr?$AAc?$AAp?$AAy?$AA_?$AAs?$AA?$CI?$AAs?$AAz?$AAE?$AAx?$AAe?$AAN?$AAa?$AAm?$AAe?$AA?0?$AA?5?$AA2?$AA6?$AA0?$AA?0?$AA?5?$AA?$CC?$AA?$DM?$AAp?$AAr?$AAo?$AAg?$AAr@ 0057afa8     LIBCMTD:dbgrpt.obj
 0002:00015010       ??_C@_0BH@DNAGHKFM@?$DMprogram?5name?5unknown?$DO?$AA@ 0057b010     LIBCMTD:dbgrpt.obj
 0002:00015028       ??_C@_1LG@BEHAHJLI@?$AAD?$AAe?$AAb?$AAu?$AAg?$AA?5?$AA?$CF?$AAs?$AA?$CB?$AA?6?$AA?6?$AAP?$AAr?$AAo?$AAg?$AAr?$AAa?$AAm?$AA?3?$AA?5?$AA?$CF?$AAh?$AAs?$AA?$CF?$AAs?$AA?$CF?$AAs?$AA?$CF?$AAh?$AAs?$AA?$CF?$AAs@ 0057b028     LIBCMTD:dbgrpt.obj
 0002:000150e0       ??_C@_1FG@NEKCMHCI@?$AAf?$AA?3?$AA?2?$AAd?$AAd?$AA?2?$AAv?$AAc?$AAt?$AAo?$AAo?$AAl?$AAs?$AA?2?$AAc?$AAr?$AAt?$AA?2?$AAc?$AAr?$AAt?$AAw?$AA3?$AA2?$AA?2?$AAs?$AAt?$AAr?$AAi?$AAn?$AAg?$AA?2@ 0057b0e0     LIBCMTD:strnicmp.obj
 0002:00015138       ??_C@_1BI@BJLEPLEF@?$AA_?$AAs?$AAt?$AAr?$AAn?$AAi?$AAc?$AAm?$AAp?$AA_?$AAl?$AA?$AA@ 0057b138     LIBCMTD:strnicmp.obj
 0002:00015150       ??_C@_1CC@JLPHKJPH@?$AAc?$AAo?$AAu?$AAn?$AAt?$AA?5?$AA?$DM?$AA?$DN?$AA?5?$AAI?$AAN?$AAT?$AA_?$AAM?$AAA?$AAX?$AA?$AA@ 0057b150     LIBCMTD:strnicmp.obj
 0002:00015174       ??_C@_1BE@BHJDFFNA@?$AA_?$AAs?$AAt?$AAr?$AAn?$AAi?$AAc?$AAm?$AAp?$AA?$AA@ 0057b174     LIBCMTD:strnicmp.obj
 0002:00015188       ??_C@_1FC@LFLBLJJB@?$AAf?$AA?3?$AA?2?$AAd?$AAd?$AA?2?$AAv?$AAc?$AAt?$AAo?$AAo?$AAl?$AAs?$AA?2?$AAc?$AAr?$AAt?$AA?2?$AAc?$AAr?$AAt?$AAw?$AA3?$AA2?$AA?2?$AAh?$AA?2?$AAt?$AAc?$AAs?$AAn?$AAc@ 0057b188     LIBCMTD:strncpy_s.obj
 0002:000151dc       ??_C@_1BE@NDMJHJJG@?$AAs?$AAt?$AAr?$AAn?$AAc?$AAp?$AAy?$AA_?$AAs?$AA?$AA@ 0057b1dc     LIBCMTD:strncpy_s.obj
 0002:000151f0       ??_C@_1EM@GNJBJFJJ@?$AA?$CI?$AA?5?$AAb?$AAu?$AAf?$AAf?$AAe?$AAr?$AA?5?$AA?$CB?$AA?$DN?$AA?5?$AAN?$AAU?$AAL?$AAL?$AA?5?$AA?$CG?$AA?$CG?$AA?5?$AAs?$AAi?$AAz?$AAe?$AAI?$AAn?$AAC?$AAh?$AAa?$AAr?$AAs?$AA?5@ 0057b1f0     LIBCMTD:strdate.obj
 0002:00015240       ??_C@_1FA@PPCEMHLO@?$AAf?$AA?3?$AA?2?$AAd?$AAd?$AA?2?$AAv?$AAc?$AAt?$AAo?$AAo?$AAl?$AAs?$AA?2?$AAc?$AAr?$AAt?$AA?2?$AAc?$AAr?$AAt?$AAw?$AA3?$AA2?$AA?2?$AAt?$AAi?$AAm?$AAe?$AA?2?$AAs?$AAt@ 0057b240     LIBCMTD:strdate.obj
 0002:00015290       ??_C@_1BG@NHOFOCCH@?$AA_?$AAs?$AAt?$AAr?$AAd?$AAa?$AAt?$AAe?$AA_?$AAs?$AA?$AA@ 0057b290     LIBCMTD:strdate.obj
 0002:000152a8       ??_C@_1CG@GLMCLJFL@?$AA?$CI?$AAs?$AAi?$AAz?$AAe?$AAI?$AAn?$AAC?$AAh?$AAa?$AAr?$AAs?$AA?5?$AA?$DO?$AA?$DN?$AA?5?$AA9?$AA?$CJ?$AA?$AA@ 0057b2a8     LIBCMTD:strdate.obj
 0002:000152d0       ??_C@_1FA@EECBCHAO@?$AAf?$AA?3?$AA?2?$AAd?$AAd?$AA?2?$AAv?$AAc?$AAt?$AAo?$AAo?$AAl?$AAs?$AA?2?$AAc?$AAr?$AAt?$AA?2?$AAc?$AAr?$AAt?$AAw?$AA3?$AA2?$AA?2?$AAt?$AAi?$AAm?$AAe?$AA?2?$AAs?$AAt@ 0057b2d0     LIBCMTD:strtime.obj
 0002:00015320       ??_C@_1BG@GMOAACJH@?$AA_?$AAs?$AAt?$AAr?$AAt?$AAi?$AAm?$AAe?$AA_?$AAs?$AA?$AA@ 0057b320     LIBCMTD:strtime.obj
 0002:00015338       ??_C@_1CK@EJMACHNH@?$AA?$CI?$AA?5?$AAs?$AAi?$AAz?$AAe?$AAI?$AAn?$AAC?$AAh?$AAa?$AAr?$AAs?$AA?5?$AA?$DO?$AA?$DN?$AA?5?$AA9?$AA?5?$AA?$CJ?$AA?$AA@ 0057b338     LIBCMTD:strtime.obj
 0002:00015368       ??_C@_1EM@OKECDHDE@?$AAf?$AA?3?$AA?2?$AAd?$AAd?$AA?2?$AAv?$AAc?$AAt?$AAo?$AAo?$AAl?$AAs?$AA?2?$AAc?$AAr?$AAt?$AA?2?$AAc?$AAr?$AAt?$AAw?$AA3?$AA2?$AA?2?$AAt?$AAi?$AAm?$AAe?$AA?2?$AAt?$AAz@ 0057b368     LIBCMTD:tzset.obj
 0002:000153b4       ??_C@_1BM@IIODHMJC@?$AA_?$AAt?$AAz?$AAs?$AAe?$AAt?$AA_?$AAn?$AAo?$AAl?$AAo?$AAc?$AAk?$AA?$AA@ 0057b3b4     LIBCMTD:tzset.obj
 0002:000153d0       ??_C@_1DC@CMKCHHFC@?$AA_?$AAg?$AAe?$AAt?$AA_?$AAt?$AAi?$AAm?$AAe?$AAz?$AAo?$AAn?$AAe?$AA?$CI?$AA?$CG?$AAt?$AAi?$AAm?$AAe?$AAz?$AAo?$AAn?$AAe?$AA?$CJ?$AA?$AA@ 0057b3d0     LIBCMTD:tzset.obj
 0002:00015404       ??_C@_1DC@MEHEMOPB@?$AA_?$AAg?$AAe?$AAt?$AA_?$AAd?$AAa?$AAy?$AAl?$AAi?$AAg?$AAh?$AAt?$AA?$CI?$AA?$CG?$AAd?$AAa?$AAy?$AAl?$AAi?$AAg?$AAh?$AAt?$AA?$CJ?$AA?$AA@ 0057b404     LIBCMTD:tzset.obj
 0002:00015438       ??_C@_1CO@IMMOMMCB@?$AA_?$AAg?$AAe?$AAt?$AA_?$AAd?$AAs?$AAt?$AAb?$AAi?$AAa?$AAs?$AA?$CI?$AA?$CG?$AAd?$AAs?$AAt?$AAb?$AAi?$AAa?$AAs?$AA?$CJ?$AA?$AA@ 0057b438     LIBCMTD:tzset.obj
 0002:00015468       ??_C@_02CLFPBFFP@TZ?$AA@   0057b468     LIBCMTD:tzset.obj
 0002:0001546c       ??_C@_0CG@LOFJMIGF@f?3?2dd?2vctools?2crt?2crtw32?2time?2tz@ 0057b46c     LIBCMTD:tzset.obj
 0002:00015498       ??_C@_1EK@MCAIMDPB@?$AAs?$AAt?$AAr?$AAc?$AAp?$AAy?$AA_?$AAs?$AA?$CI?$AAl?$AAa?$AAs?$AAt?$AAT?$AAZ?$AA?0?$AA?5?$AAs?$AAt?$AAr?$AAl?$AAe?$AAn?$AA?$CI?$AAT?$AAZ?$AA?$CJ?$AA?5?$AA?$CL?$AA?5?$AA1?$AA?0@ 0057b498     LIBCMTD:tzset.obj
 0002:000154e8       ??_C@_1EA@FIJBKALB@?$AAs?$AAt?$AAr?$AAn?$AAc?$AAp?$AAy?$AA_?$AAs?$AA?$CI?$AAt?$AAz?$AAn?$AAa?$AAm?$AAe?$AA?$FL?$AA0?$AA?$FN?$AA?0?$AA?5?$AA6?$AA4?$AA?0?$AA?5?$AAT?$AAZ?$AA?0?$AA?5?$AA3?$AA?$CJ?$AA?$AA@ 0057b4e8     LIBCMTD:tzset.obj
 0002:00015528       ??_C@_1EA@GEPBEDLJ@?$AAs?$AAt?$AAr?$AAn?$AAc?$AAp?$AAy?$AA_?$AAs?$AA?$CI?$AAt?$AAz?$AAn?$AAa?$AAm?$AAe?$AA?$FL?$AA1?$AA?$FN?$AA?0?$AA?5?$AA6?$AA4?$AA?0?$AA?5?$AAT?$AAZ?$AA?0?$AA?5?$AA3?$AA?$CJ?$AA?$AA@ 0057b528     LIBCMTD:tzset.obj
 0002:00015568       ??_C@_1BA@GOCKIDGO@?$AAc?$AAv?$AAt?$AAd?$AAa?$AAt?$AAe?$AA?$AA@ 0057b568     LIBCMTD:tzset.obj
 0002:00015578       ??_C@_1CA@GOLIIEDM@?$AA_?$AAi?$AAs?$AAi?$AAn?$AAd?$AAs?$AAt?$AA_?$AAn?$AAo?$AAl?$AAo?$AAc?$AAk?$AA?$AA@ 0057b578     LIBCMTD:tzset.obj
 0002:00015598       ??_C@_1BO@JIBAMMGI@?$AAs?$AAt?$AAr?$AAi?$AAn?$AAg?$AA?5?$AA?$CB?$AA?$DN?$AA?5?$AAN?$AAU?$AAL?$AAL?$AA?$AA@ 0057b598     LIBCMTD:mbschr.obj
 0002:000155b8       ??_C@_1FG@DJMLHKLH@?$AAf?$AA?3?$AA?2?$AAd?$AAd?$AA?2?$AAv?$AAc?$AAt?$AAo?$AAo?$AAl?$AAs?$AA?2?$AAc?$AAr?$AAt?$AA?2?$AAc?$AAr?$AAt?$AAw?$AA3?$AA2?$AA?2?$AAm?$AAb?$AAs?$AAt?$AAr?$AAi?$AAn@ 0057b5b8     LIBCMTD:mbschr.obj
 0002:00015610       ??_C@_1BE@JKKFLIKJ@?$AA_?$AAm?$AAb?$AAs?$AAc?$AAh?$AAr?$AA_?$AAl?$AA?$AA@ 0057b610     LIBCMTD:mbschr.obj
 0002:00015624       ??_C@_1BI@MFCLPIBM@?$AAs?$AAt?$AAr?$AA?5?$AA?$CB?$AA?$DN?$AA?5?$AAN?$AAU?$AAL?$AAL?$AA?$AA@ 0057b624     LIBCMTD:mbsrchr.obj
 0002:00015640       ??_C@_1FI@DJCLFGHF@?$AAf?$AA?3?$AA?2?$AAd?$AAd?$AA?2?$AAv?$AAc?$AAt?$AAo?$AAo?$AAl?$AAs?$AA?2?$AAc?$AAr?$AAt?$AA?2?$AAc?$AAr?$AAt?$AAw?$AA3?$AA2?$AA?2?$AAm?$AAb?$AAs?$AAt?$AAr?$AAi?$AAn@ 0057b640     LIBCMTD:mbsrchr.obj
 0002:00015698       ??_C@_1BG@JBLBIELB@?$AA_?$AAm?$AAb?$AAs?$AAr?$AAc?$AAh?$AAr?$AA_?$AAl?$AA?$AA@ 0057b698     LIBCMTD:mbsrchr.obj
 0002:00015734       ??_C@_0CH@FPHLCLAF@f?3?2dd?2vctools?2crt?2crtw32?2stdio?2_@ 0057b734     LIBCMTD:_file.obj
 0002:0001575c       ??_C@_1CC@FADMNIL@?$AA?$CI?$AAs?$AAt?$AAr?$AAe?$AAa?$AAm?$AA?5?$AA?$CB?$AA?$DN?$AA?5?$AAN?$AAU?$AAL?$AAL?$AA?$CJ?$AA?$AA@ 0057b75c     LIBCMTD:fclose.obj
 0002:00015780       ??_C@_1FA@HHFEGMDA@?$AAf?$AA?3?$AA?2?$AAd?$AAd?$AA?2?$AAv?$AAc?$AAt?$AAo?$AAo?$AAl?$AAs?$AA?2?$AAc?$AAr?$AAt?$AA?2?$AAc?$AAr?$AAt?$AAw?$AA3?$AA2?$AA?2?$AAs?$AAt?$AAd?$AAi?$AAo?$AA?2?$AAf@ 0057b780     LIBCMTD:fclose.obj
 0002:000157d0       ??_C@_1O@EGMJNCOI@?$AAf?$AAc?$AAl?$AAo?$AAs?$AAe?$AA?$AA@ 0057b7d0     LIBCMTD:fclose.obj
 0002:000157e0       ??_C@_1BM@JMKHIAHP@?$AA?$CI?$AAs?$AAt?$AAr?$AA?5?$AA?$CB?$AA?$DN?$AA?5?$AAN?$AAU?$AAL?$AAL?$AA?$CJ?$AA?$AA@ 0057b7e0     LIBCMTD:fclose.obj
 0002:000157fc       ??_C@_1BO@JINCABEC@?$AA_?$AAf?$AAc?$AAl?$AAo?$AAs?$AAe?$AA_?$AAn?$AAo?$AAl?$AAo?$AAc?$AAk?$AA?$AA@ 0057b7fc     LIBCMTD:fclose.obj
 0002:0001581c       ??_C@_1BK@HGLMNMEC@?$AAm?$AAo?$AAd?$AAe?$AA?5?$AA?$CB?$AA?$DN?$AA?5?$AAN?$AAU?$AAL?$AAL?$AA?$AA@ 0057b81c     LIBCMTD:fdopen.obj
 0002:00015838       ??_C@_1FA@PPJKCOOK@?$AAf?$AA?3?$AA?2?$AAd?$AAd?$AA?2?$AAv?$AAc?$AAt?$AAo?$AAo?$AAl?$AAs?$AA?2?$AAc?$AAr?$AAt?$AA?2?$AAc?$AAr?$AAt?$AAw?$AA3?$AA2?$AA?2?$AAs?$AAt?$AAd?$AAi?$AAo?$AA?2?$AAf@ 0057b838     LIBCMTD:fdopen.obj
 0002:00015888       ??_C@_1BA@FMAFIKI@?$AA_?$AAf?$AAd?$AAo?$AAp?$AAe?$AAn?$AA?$AA@ 0057b888     LIBCMTD:fdopen.obj
 0002:00015898       ??_C@_1HC@KFLBHHBC@?$AA?$CI?$AAf?$AAi?$AAl?$AAe?$AAd?$AAe?$AAs?$AA?5?$AA?$DO?$AA?$DN?$AA?5?$AA0?$AA?5?$AA?$CG?$AA?$CG?$AA?5?$AA?$CI?$AAu?$AAn?$AAs?$AAi?$AAg?$AAn?$AAe?$AAd?$AA?$CJ?$AAf?$AAi?$AAl?$AAe?$AAd@ 0057b898     LIBCMTD:fdopen.obj
 0002:0001590c       ??_C@_1DG@LNNHNFHJ@?$AA?$CI?$AA_?$AAo?$AAs?$AAf?$AAi?$AAl?$AAe?$AA?$CI?$AAf?$AAi?$AAl?$AAe?$AAd?$AAe?$AAs?$AA?$CJ?$AA?5?$AA?$CG?$AA?5?$AAF?$AAO?$AAP?$AAE?$AAN?$AA?$CJ?$AA?$AA@ 0057b90c     LIBCMTD:fdopen.obj
 0002:00015944       ??_C@_1DK@PKMJBLLN@?$AA?$CI?$AA?$CC?$AAI?$AAn?$AAv?$AAa?$AAl?$AAi?$AAd?$AA?5?$AAf?$AAi?$AAl?$AAe?$AA?5?$AAo?$AAp?$AAe?$AAn?$AA?5?$AAm?$AAo?$AAd?$AAe?$AA?$CC?$AA?0?$AA0?$AA?$CJ?$AA?$AA@ 0057b944     LIBCMTD:fdopen.obj
 0002:00015980       ??_C@_1CI@KEDPFCAL@?$AA?$CI?$AA?$CK?$AAm?$AAo?$AAd?$AAe?$AA?5?$AA?$DN?$AA?$DN?$AA?5?$AA_?$AAT?$AA?$CI?$AA?8?$AA?2?$AA0?$AA?8?$AA?$CJ?$AA?$CJ?$AA?$AA@ 0057b980     LIBCMTD:fdopen.obj
 0002:000159a8       ??_C@_1FA@GMJBBNDK@?$AAf?$AA?3?$AA?2?$AAd?$AAd?$AA?2?$AAv?$AAc?$AAt?$AAo?$AAo?$AAl?$AAs?$AA?2?$AAc?$AAr?$AAt?$AA?2?$AAc?$AAr?$AAt?$AAw?$AA3?$AA2?$AA?2?$AAs?$AAt?$AAd?$AAi?$AAo?$AA?2?$AAp@ 0057b9a8     LIBCMTD:printf.obj
 0002:000159f8       ??_C@_1O@GKDHFACN@?$AAp?$AAr?$AAi?$AAn?$AAt?$AAf?$AA?$AA@ 0057b9f8     LIBCMTD:printf.obj
 0002:00015a08       ??_C@_1FE@CKCGICM@?$AAf?$AA?3?$AA?2?$AAd?$AAd?$AA?2?$AAv?$AAc?$AAt?$AAo?$AAo?$AAl?$AAs?$AA?2?$AAc?$AAr?$AAt?$AA?2?$AAc?$AAr?$AAt?$AAw?$AA3?$AA2?$AA?2?$AAs?$AAt?$AAd?$AAi?$AAo?$AA?2?$AAv@ 0057ba08     LIBCMTD:vsnprint.obj
 0002:00015a5c       ??_C@_1BK@FHMHFMNL@?$AA_?$AAv?$AAs?$AAn?$AAp?$AAr?$AAi?$AAn?$AAt?$AAf?$AA_?$AAl?$AA?$AA@ 0057ba5c     LIBCMTD:vsnprint.obj
 0002:00015a78       ??_C@_1GC@EOODNGCK@?$AA?$CI?$AAf?$AAh?$AA1?$AA?5?$AA?$DO?$AA?$DN?$AA?5?$AA0?$AA?5?$AA?$CG?$AA?$CG?$AA?5?$AA?$CI?$AAu?$AAn?$AAs?$AAi?$AAg?$AAn?$AAe?$AAd?$AA?$CJ?$AAf?$AAh?$AA1?$AA?5?$AA?$DM?$AA?5?$AA?$CI?$AAu?$AAn@ 0057ba78     LIBCMTD:dup2.obj
 0002:00015ae0       ??_C@_1EM@NJPIBLDI@?$AAf?$AA?3?$AA?2?$AAd?$AAd?$AA?2?$AAv?$AAc?$AAt?$AAo?$AAo?$AAl?$AAs?$AA?2?$AAc?$AAr?$AAt?$AA?2?$AAc?$AAr?$AAt?$AAw?$AA3?$AA2?$AA?2?$AAl?$AAo?$AAw?$AAi?$AAo?$AA?2?$AAd@ 0057bae0     LIBCMTD:dup2.obj
 0002:00015b2c       ??_C@_1M@KHHJPKPI@?$AA_?$AAd?$AAu?$AAp?$AA2?$AA?$AA@ 0057bb2c     LIBCMTD:dup2.obj
 0002:00015b38       ??_C@_1CO@GFKLAENC@?$AA?$CI?$AA_?$AAo?$AAs?$AAf?$AAi?$AAl?$AAe?$AA?$CI?$AAf?$AAh?$AA1?$AA?$CJ?$AA?5?$AA?$CG?$AA?5?$AAF?$AAO?$AAP?$AAE?$AAN?$AA?$CJ?$AA?$AA@ 0057bb38     LIBCMTD:dup2.obj
 0002:00015b68       ??_C@_1DI@GIHAGANP@?$AA?$CI?$AA?$CI?$AAu?$AAn?$AAs?$AAi?$AAg?$AAn?$AAe?$AAd?$AA?$CJ?$AAf?$AAh?$AA2?$AA?5?$AA?$DM?$AA?5?$AA_?$AAN?$AAH?$AAA?$AAN?$AAD?$AAL?$AAE?$AA_?$AA?$CJ?$AA?$AA@ 0057bb68     LIBCMTD:dup2.obj
 0002:00015ba0       ??_C@_1JE@ECKHFIFP@?$AA?$CI?$AA?$CC?$AAI?$AAn?$AAv?$AAa?$AAl?$AAi?$AAd?$AA?5?$AAf?$AAi?$AAl?$AAe?$AA?5?$AAd?$AAe?$AAs?$AAc?$AAr?$AAi?$AAp?$AAt?$AAo?$AAr?$AA?4?$AA?5?$AAF?$AAi?$AAl?$AAe?$AA?5@ 0057bba0     LIBCMTD:dup2.obj
 0002:00015c34       ??_C@_0CG@CDONPKJK@f?3?2dd?2vctools?2crt?2crtw32?2lowio?2d@ 0057bc34     LIBCMTD:dup2.obj
 0002:00015c5c       ??_C@_0CJ@IGOJMKM@f?3?2dd?2vctools?2crt?2crtw32?2lowio?2o@ 0057bc5c     LIBCMTD:osfinfo.obj
 0002:00015c88       ??_C@_1FO@LPCLHKGE@?$AA?$CI?$AAf?$AAh?$AA?5?$AA?$DO?$AA?$DN?$AA?5?$AA0?$AA?5?$AA?$CG?$AA?$CG?$AA?5?$AA?$CI?$AAu?$AAn?$AAs?$AAi?$AAg?$AAn?$AAe?$AAd?$AA?$CJ?$AAf?$AAh?$AA?5?$AA?$DM?$AA?5?$AA?$CI?$AAu?$AAn?$AAs?$AAi@ 0057bc88     LIBCMTD:osfinfo.obj
 0002:00015ce8       ??_C@_1FC@BEKMGBFL@?$AAf?$AA?3?$AA?2?$AAd?$AAd?$AA?2?$AAv?$AAc?$AAt?$AAo?$AAo?$AAl?$AAs?$AA?2?$AAc?$AAr?$AAt?$AA?2?$AAc?$AAr?$AAt?$AAw?$AA3?$AA2?$AA?2?$AAl?$AAo?$AAw?$AAi?$AAo?$AA?2?$AAo@ 0057bce8     LIBCMTD:osfinfo.obj
 0002:00015d3c       ??_C@_1BO@EMBOBGKE@?$AA_?$AAg?$AAe?$AAt?$AA_?$AAo?$AAs?$AAf?$AAh?$AAa?$AAn?$AAd?$AAl?$AAe?$AA?$AA@ 0057bd3c     LIBCMTD:osfinfo.obj
 0002:00015d5c       ??_C@_1CM@OKGMMMDH@?$AA?$CI?$AA_?$AAo?$AAs?$AAf?$AAi?$AAl?$AAe?$AA?$CI?$AAf?$AAh?$AA?$CJ?$AA?5?$AA?$CG?$AA?5?$AAF?$AAO?$AAP?$AAE?$AAN?$AA?$CJ?$AA?$AA@ 0057bd5c     LIBCMTD:osfinfo.obj
 0002:00015d88       ??_C@_1BI@BGOHAHKC@?$AAm?$AAs?$AAc?$AAo?$AAr?$AAe?$AAe?$AA?4?$AAd?$AAl?$AAl?$AA?$AA@ 0057bd88     LIBCMTD:crt0dat.obj
 0002:00015da0       ??_C@_0P@MIGLKIOC@CorExitProcess?$AA@ 0057bda0     LIBCMTD:crt0dat.obj
 0002:00015db0       ??_C@_1BO@LKEBEKJP@?$AAp?$AAV?$AAa?$AAl?$AAu?$AAe?$AA?5?$AA?$CB?$AA?$DN?$AA?5?$AAN?$AAU?$AAL?$AAL?$AA?$AA@ 0057bdb0     LIBCMTD:crt0dat.obj
 0002:00015dd0       ??_C@_1FG@MHCBBJEK@?$AAf?$AA?3?$AA?2?$AAd?$AAd?$AA?2?$AAv?$AAc?$AAt?$AAo?$AAo?$AAl?$AAs?$AA?2?$AAc?$AAr?$AAt?$AA?2?$AAc?$AAr?$AAt?$AAw?$AA3?$AA2?$AA?2?$AAs?$AAt?$AAa?$AAr?$AAt?$AAu?$AAp@ 0057bdd0     LIBCMTD:crt0dat.obj
 0002:00015e28       ??_C@_1BK@PNLDCCDP@?$AA_?$AAg?$AAe?$AAt?$AA_?$AAw?$AAp?$AAg?$AAm?$AAp?$AAt?$AAr?$AA?$AA@ 0057be28     LIBCMTD:crt0dat.obj
 0002:00015e44       ??_C@_1CC@CDIPMFPD@?$AA_?$AAw?$AAp?$AAg?$AAm?$AAp?$AAt?$AAr?$AA?5?$AA?$CB?$AA?$DN?$AA?5?$AAN?$AAU?$AAL?$AAL?$AA?$AA@ 0057be44     LIBCMTD:crt0dat.obj
 0002:00015e68       ??_C@_1BI@COAAPHJK@?$AA_?$AAg?$AAe?$AAt?$AA_?$AAp?$AAg?$AAm?$AAp?$AAt?$AAr?$AA?$AA@ 0057be68     LIBCMTD:crt0dat.obj
 0002:00015e80       ??_C@_1CA@BBNAFCKO@?$AA_?$AAp?$AAg?$AAm?$AAp?$AAt?$AAr?$AA?5?$AA?$CB?$AA?$DN?$AA?5?$AAN?$AAU?$AAL?$AAL?$AA?$AA@ 0057be80     LIBCMTD:crt0dat.obj
 0002:00015ea0       ??_C@_1BK@DJNILIMN@?$AAp?$AAa?$AAt?$AAh?$AA?5?$AA?$CB?$AA?$DN?$AA?5?$AAN?$AAU?$AAL?$AAL?$AA?$AA@ 0057bea0     LIBCMTD:crt0dat.obj
 0002:00015ebc       ??_C@_1DG@KANBJOCK@?$AA_?$AA_?$AAc?$AAo?$AAp?$AAy?$AA_?$AAp?$AAa?$AAt?$AAh?$AA_?$AAt?$AAo?$AA_?$AAw?$AAi?$AAd?$AAe?$AA_?$AAs?$AAt?$AAr?$AAi?$AAn?$AAg?$AA?$AA@ 0057bebc     LIBCMTD:crt0dat.obj
 0002:00015ef4       ??_C@_1CA@BGODLPHH@?$AAo?$AAu?$AAt?$AAP?$AAa?$AAt?$AAh?$AA?5?$AA?$CB?$AA?$DN?$AA?5?$AAN?$AAU?$AAL?$AAL?$AA?$AA@ 0057bef4     LIBCMTD:crt0dat.obj
 0002:00015f14       ??_C@_0CL@LMMOJFEN@f?3?2dd?2vctools?2crt?2crtw32?2startup@ 0057bf14     LIBCMTD:crt0dat.obj
 0002:00015f40       ??_C@_1CC@NLGECIOD@?$AAi?$AAn?$AAS?$AAt?$AAr?$AAi?$AAn?$AAg?$AA?5?$AA?$CB?$AA?$DN?$AA?5?$AAN?$AAU?$AAL?$AAL?$AA?$AA@ 0057bf40     LIBCMTD:crt0dat.obj
 0002:00015f64       ??_C@_1BO@PNPLHAEP@?$AA_?$AA_?$AAc?$AAo?$AAp?$AAy?$AA_?$AAt?$AAo?$AA_?$AAc?$AAh?$AAa?$AAr?$AA?$AA@ 0057bf64     LIBCMTD:crt0dat.obj
 0002:00015f84       ??_C@_1CE@HIPDKGHC@?$AAo?$AAu?$AAt?$AAS?$AAt?$AAr?$AAi?$AAn?$AAg?$AA?5?$AA?$CB?$AA?$DN?$AA?5?$AAN?$AAU?$AAL?$AAL?$AA?$AA@ 0057bf84     LIBCMTD:crt0dat.obj
 0002:00015fa8       ??_C@_1CC@FKAOHHLO@?$AA?$CI?$AAo?$AAp?$AAt?$AAi?$AAo?$AAn?$AA?5?$AA?$CB?$AA?$DN?$AA?5?$AAN?$AAU?$AAL?$AAL?$AA?$CJ?$AA?$AA@ 0057bfa8     LIBCMTD:getenv.obj
 0002:00015fd0       ??_C@_1EO@JOEHPJNP@?$AAf?$AA?3?$AA?2?$AAd?$AAd?$AA?2?$AAv?$AAc?$AAt?$AAo?$AAo?$AAl?$AAs?$AA?2?$AAc?$AAr?$AAt?$AA?2?$AAc?$AAr?$AAt?$AAw?$AA3?$AA2?$AA?2?$AAm?$AAi?$AAs?$AAc?$AA?2?$AAg?$AAe@ 0057bfd0     LIBCMTD:getenv.obj
 0002:00016020       ??_C@_1O@GMKGKCJO@?$AAg?$AAe?$AAt?$AAe?$AAn?$AAv?$AA?$AA@ 0057c020     LIBCMTD:getenv.obj
 0002:00016030       ??_C@_1FA@HILOOCMA@?$AA?$CI?$AA_?$AAt?$AAc?$AAs?$AAn?$AAl?$AAe?$AAn?$AA?$CI?$AAo?$AAp?$AAt?$AAi?$AAo?$AAn?$AA?0?$AA?5?$AA_?$AAM?$AAA?$AAX?$AA_?$AAE?$AAN?$AAV?$AA?$CJ?$AA?5?$AA?$DM?$AA?5?$AA_?$AAM@ 0057c030     LIBCMTD:getenv.obj
 0002:00016080       ??_C@_1GI@JBIFPFJH@?$AA_?$AAt?$AAc?$AAs?$AAn?$AAl?$AAe?$AAn?$AA?$CI?$AA?$CK?$AAs?$AAe?$AAa?$AAr?$AAc?$AAh?$AA?5?$AA?$CL?$AA?5?$AAl?$AAe?$AAn?$AAg?$AAt?$AAh?$AA?5?$AA?$CL?$AA?5?$AA1?$AA?0?$AA?5?$AA_@ 0057c080     LIBCMTD:getenv.obj
 0002:000160e8       ??_C@_1CK@PIKDAOCL@?$AAp?$AAR?$AAe?$AAt?$AAu?$AAr?$AAn?$AAV?$AAa?$AAl?$AAu?$AAe?$AA?5?$AA?$CB?$AA?$DN?$AA?5?$AAN?$AAU?$AAL?$AAL?$AA?$AA@ 0057c0e8     LIBCMTD:getenv.obj
 0002:00016114       ??_C@_1CC@BAJKDIIF@?$AA_?$AAg?$AAe?$AAt?$AAe?$AAn?$AAv?$AA_?$AAs?$AA_?$AAh?$AAe?$AAl?$AAp?$AAe?$AAr?$AA?$AA@ 0057c114     LIBCMTD:getenv.obj
 0002:00016138       ??_C@_1JM@NLPGJJPH@?$AA?$CI?$AAb?$AAu?$AAf?$AAf?$AAe?$AAr?$AA?5?$AA?$CB?$AA?$DN?$AA?5?$AAN?$AAU?$AAL?$AAL?$AA?5?$AA?$CG?$AA?$CG?$AA?5?$AAs?$AAi?$AAz?$AAe?$AAI?$AAn?$AAT?$AAC?$AAh?$AAa?$AAr?$AAs?$AA?5@ 0057c138     LIBCMTD:getenv.obj
 0002:000161d8       ??_C@_1EI@HHOBPCFK@?$AAs?$AAt?$AAr?$AAc?$AAp?$AAy?$AA_?$AAs?$AA?$CI?$AAb?$AAu?$AAf?$AAf?$AAe?$AAr?$AA?0?$AA?5?$AAs?$AAi?$AAz?$AAe?$AAI?$AAn?$AAT?$AAC?$AAh?$AAa?$AAr?$AAs?$AA?0?$AA?5?$AAs@ 0057c1d8     LIBCMTD:getenv.obj
 0002:00016220       ??_C@_1CA@FHNFMDOJ@?$AAp?$AAB?$AAu?$AAf?$AAf?$AAe?$AAr?$AA?5?$AA?$CB?$AA?$DN?$AA?5?$AAN?$AAU?$AAL?$AAL?$AA?$AA@ 0057c220     LIBCMTD:getenv.obj
 0002:00016240       ??_C@_1CC@KPLOPIEM@?$AA_?$AAd?$AAu?$AAp?$AAe?$AAn?$AAv?$AA_?$AAs?$AA_?$AAh?$AAe?$AAl?$AAp?$AAe?$AAr?$AA?$AA@ 0057c240     LIBCMTD:getenv.obj
 0002:00016264       ??_C@_1CA@GDBKELOE@?$AAv?$AAa?$AAr?$AAn?$AAa?$AAm?$AAe?$AA?5?$AA?$CB?$AA?$DN?$AA?5?$AAN?$AAU?$AAL?$AAL?$AA?$AA@ 0057c264     LIBCMTD:getenv.obj
 0002:00016284       ??_C@_1DM@GNKNEGJO@?$AAs?$AAt?$AAr?$AAc?$AAp?$AAy?$AA_?$AAs?$AA?$CI?$AA?$CK?$AAp?$AAB?$AAu?$AAf?$AAf?$AAe?$AAr?$AA?0?$AA?5?$AAs?$AAi?$AAz?$AAe?$AA?0?$AA?5?$AAs?$AAt?$AAr?$AA?$CJ?$AA?$AA@ 0057c284     LIBCMTD:getenv.obj
 0002:000162c0       ??_C@_1BK@NOHKJANJ@?$AA?$CI?$AAm?$AAa?$AAx?$AAl?$AAe?$AAn?$AA?5?$AA?$DO?$AA?5?$AA0?$AA?$CJ?$AA?$AA@ 0057c2c0     LIBCMTD:fullpath.obj
 0002:000162e0       ??_C@_1FA@LBFALAAJ@?$AAf?$AA?3?$AA?2?$AAd?$AAd?$AA?2?$AAv?$AAc?$AAt?$AAo?$AAo?$AAl?$AAs?$AA?2?$AAc?$AAr?$AAt?$AA?2?$AAc?$AAr?$AAt?$AAw?$AA3?$AA2?$AA?2?$AAd?$AAo?$AAs?$AA?2?$AAf?$AAu?$AAl@ 0057c2e0     LIBCMTD:fullpath.obj
 0002:00016330       ??_C@_1BM@BMDEPKPP@?$AA_?$AAf?$AAu?$AAl?$AAl?$AAp?$AAa?$AAt?$AAh?$AA_?$AAd?$AAb?$AAg?$AA?$AA@ 0057c330     LIBCMTD:fullpath.obj
 0002:0001634c       ??_C@_1BO@KIJENGPH@?$AAs?$AAt?$AAr?$AAe?$AAa?$AAm?$AA?5?$AA?$CB?$AA?$DN?$AA?5?$AAN?$AAU?$AAL?$AAL?$AA?$AA@ 0057c34c     LIBCMTD:setbuf.obj
 0002:00016370       ??_C@_1FA@KGEJGMDL@?$AAf?$AA?3?$AA?2?$AAd?$AAd?$AA?2?$AAv?$AAc?$AAt?$AAo?$AAo?$AAl?$AAs?$AA?2?$AAc?$AAr?$AAt?$AA?2?$AAc?$AAr?$AAt?$AAw?$AA3?$AA2?$AA?2?$AAs?$AAt?$AAd?$AAi?$AAo?$AA?2?$AAs@ 0057c370     LIBCMTD:setbuf.obj
 0002:000163c0       ??_C@_1FC@FLPGPAOO@?$AAf?$AA?3?$AA?2?$AAd?$AAd?$AA?2?$AAv?$AAc?$AAt?$AAo?$AAo?$AAl?$AAs?$AA?2?$AAc?$AAr?$AAt?$AA?2?$AAc?$AAr?$AAt?$AAw?$AA3?$AA2?$AA?2?$AAs?$AAt?$AAd?$AAi?$AAo?$AA?2?$AAf@ 0057c3c0     LIBCMTD:fprintf.obj
 0002:00016414       ??_C@_1BA@DNOHIGNM@?$AAf?$AAp?$AAr?$AAi?$AAn?$AAt?$AAf?$AA?$AA@ 0057c414     LIBCMTD:fprintf.obj
 0002:00016428       ??_C@_1BAA@ODEGEDCK@?$AA?$CI?$AA?5?$AA?$CI?$AA_?$AAS?$AAt?$AAr?$AAe?$AAa?$AAm?$AA?9?$AA?$DO?$AA_?$AAf?$AAl?$AAa?$AAg?$AA?5?$AA?$CG?$AA?5?$AA_?$AAI?$AAO?$AAS?$AAT?$AAR?$AAG?$AA?$CJ?$AA?5?$AA?$HM?$AA?$HM?$AA?5@ 0057c428     LIBCMTD:fprintf.obj
 0002:00016528       ??_C@_0EA@FCLIIPNN@Visual?5C?$CL?$CL?5CRT?3?5Not?5enough?5memor@ 0057c528     LIBCMTD:strerror.obj
 0002:00016568       ??_C@_0CJ@CJMICBEP@f?3?2dd?2vctools?2crt?2crtw32?2misc?2st@ 0057c568     LIBCMTD:strerror.obj
 0002:00016598       ??_C@_1FC@IIDLIEAI@?$AAf?$AA?3?$AA?2?$AAd?$AAd?$AA?2?$AAv?$AAc?$AAt?$AAo?$AAo?$AAl?$AAs?$AA?2?$AAc?$AAr?$AAt?$AA?2?$AAc?$AAr?$AAt?$AAw?$AA3?$AA2?$AA?2?$AAm?$AAi?$AAs?$AAc?$AA?2?$AAs?$AAt@ 0057c598     LIBCMTD:strerror.obj
 0002:000165ec       ??_C@_1BC@CPPAPMCG@?$AAs?$AAt?$AAr?$AAe?$AAr?$AAr?$AAo?$AAr?$AA?$AA@ 0057c5ec     LIBCMTD:strerror.obj
 0002:00016600       ??_C@_1GM@HFLCJPGH@?$AAs?$AAt?$AAr?$AAc?$AAp?$AAy?$AA_?$AAs?$AA?$CI?$AAe?$AAr?$AAr?$AAm?$AAs?$AAg?$AA?0?$AA?5?$AA?$CI?$AA9?$AA4?$AA?$CL?$AA3?$AA8?$AA?$CL?$AA2?$AA?$CJ?$AA?0?$AA?5?$AA_?$AAg?$AAe?$AAt@ 0057c600     LIBCMTD:strerror.obj
 0002:0001666c       ??_C@_1BO@PNINNIGK@?$AAb?$AAu?$AAf?$AAf?$AAe?$AAr?$AA?5?$AA?$CB?$AA?$DN?$AA?5?$AAN?$AAU?$AAL?$AAL?$AA?$AA@ 0057c66c     LIBCMTD:strerror.obj
 0002:0001668c       ??_C@_1BG@CLIBDOC@?$AAs?$AAt?$AAr?$AAe?$AAr?$AAr?$AAo?$AAr?$AA_?$AAs?$AA?$AA@ 0057c68c     LIBCMTD:strerror.obj
 0002:000166a4       ??_C@_1CC@JNJFIMGE@?$AAs?$AAi?$AAz?$AAe?$AAI?$AAn?$AAT?$AAC?$AAh?$AAa?$AAr?$AAs?$AA?5?$AA?$DO?$AA?5?$AA0?$AA?$AA@ 0057c6a4     LIBCMTD:strerror.obj
 0002:000166c8       ??_C@_1JI@GAHGOJMC@?$AAs?$AAt?$AAr?$AAn?$AAc?$AAp?$AAy?$AA_?$AAs?$AA?$CI?$AAb?$AAu?$AAf?$AAf?$AAe?$AAr?$AA?0?$AA?5?$AAs?$AAi?$AAz?$AAe?$AAI?$AAn?$AAT?$AAC?$AAh?$AAa?$AAr?$AAs?$AA?0?$AA?5@ 0057c6c8     LIBCMTD:strerror.obj
 0002:00016760       ??_C@_1BO@BCOPJGHK@?$AA?$CI?$AA?5?$AAt?$AAp?$AA?5?$AA?$CB?$AA?$DN?$AA?5?$AAN?$AAU?$AAL?$AAL?$AA?5?$AA?$CJ?$AA?$AA@ 0057c760     LIBCMTD:ftime64.obj
 0002:00016780       ??_C@_1FA@CGAHEJFN@?$AAf?$AA?3?$AA?2?$AAd?$AAd?$AA?2?$AAv?$AAc?$AAt?$AAo?$AAo?$AAl?$AAs?$AA?2?$AAc?$AAr?$AAt?$AA?2?$AAc?$AAr?$AAt?$AAw?$AA3?$AA2?$AA?2?$AAt?$AAi?$AAm?$AAe?$AA?2?$AAf?$AAt@ 0057c780     LIBCMTD:ftime64.obj
 0002:000167d0       ??_C@_1BG@OMGGMME@?$AA_?$AAf?$AAt?$AAi?$AAm?$AAe?$AA6?$AA4?$AA_?$AAs?$AA?$AA@ 0057c7d0     LIBCMTD:ftime64.obj
 0002:000167e8       ??_C@_1FA@CKEACION@?$AAf?$AA?3?$AA?2?$AAd?$AAd?$AA?2?$AAv?$AAc?$AAt?$AAo?$AAo?$AAl?$AAs?$AA?2?$AAc?$AAr?$AAt?$AA?2?$AAc?$AAr?$AAt?$AAw?$AA3?$AA2?$AA?2?$AAs?$AAt?$AAd?$AAi?$AAo?$AA?2?$AAf@ 0057c7e8     LIBCMTD:fileno.obj
 0002:00016838       ??_C@_1BA@JGHIEKKM@?$AA_?$AAf?$AAi?$AAl?$AAe?$AAn?$AAo?$AA?$AA@ 0057c838     LIBCMTD:fileno.obj
 0002:00016848       ??_C@_1EO@NLGPLDCN@?$AAf?$AA?3?$AA?2?$AAd?$AAd?$AA?2?$AAv?$AAc?$AAt?$AAo?$AAo?$AAl?$AAs?$AA?2?$AAc?$AAr?$AAt?$AA?2?$AAc?$AAr?$AAt?$AAw?$AA3?$AA2?$AA?2?$AAl?$AAo?$AAw?$AAi?$AAo?$AA?2?$AAw@ 0057c848     LIBCMTD:write.obj
 0002:00016898       ??_C@_1O@KOFKDHPL@?$AA_?$AAw?$AAr?$AAi?$AAt?$AAe?$AA?$AA@ 0057c898     LIBCMTD:write.obj
 0002:000168a8       ??_C@_1BM@KFJLMBPG@?$AA?$CI?$AAb?$AAu?$AAf?$AA?5?$AA?$CB?$AA?$DN?$AA?5?$AAN?$AAU?$AAL?$AAL?$AA?$CJ?$AA?$AA@ 0057c8a8     LIBCMTD:write.obj
 0002:000168c4       ??_C@_1BM@NCANHCIP@?$AA_?$AAw?$AAr?$AAi?$AAt?$AAe?$AA_?$AAn?$AAo?$AAl?$AAo?$AAc?$AAk?$AA?$AA@ 0057c8c4     LIBCMTD:write.obj
 0002:000168e0       ??_C@_1CC@EEOLPHGO@?$AA?$CI?$AA?$CI?$AAc?$AAn?$AAt?$AA?5?$AA?$CG?$AA?5?$AA1?$AA?$CJ?$AA?5?$AA?$DN?$AA?$DN?$AA?5?$AA0?$AA?$CJ?$AA?$AA@ 0057c8e0     LIBCMTD:write.obj
 0002:00016904       ??_C@_1DI@CNMHHHLG@?$AAi?$AAs?$AAl?$AAe?$AAa?$AAd?$AAb?$AAy?$AAt?$AAe?$AA?$CI?$AA_?$AAd?$AAb?$AAc?$AAs?$AAB?$AAu?$AAf?$AAf?$AAe?$AAr?$AA?$CI?$AAf?$AAh?$AA?$CJ?$AA?$CJ?$AA?$AA@ 0057c904     LIBCMTD:write.obj
 0002:00016940       ??_C@_1FC@OPJAFIDO@?$AAf?$AA?3?$AA?2?$AAd?$AAd?$AA?2?$AAv?$AAc?$AAt?$AAo?$AAo?$AAl?$AAs?$AA?2?$AAc?$AAr?$AAt?$AA?2?$AAc?$AAr?$AAt?$AAw?$AA3?$AA2?$AA?2?$AAm?$AAi?$AAs?$AAc?$AA?2?$AAs?$AAe@ 0057c940     LIBCMTD:setlocal.obj
 0002:00016994       ??_C@_1BE@DBJGBOJC@?$AAs?$AAe?$AAt?$AAl?$AAo?$AAc?$AAa?$AAl?$AAe?$AA?$AA@ 0057c994     LIBCMTD:setlocal.obj
 0002:000169a8       ??_C@_1GO@PFPGBCDK@?$AAm?$AAb?$AAs?$AAt?$AAo?$AAw?$AAc?$AAs?$AA_?$AAs?$AA?$CI?$AA?$CG?$AAs?$AAi?$AAz?$AAe?$AA?0?$AA?5?$AA?$CI?$AA?$CI?$AAv?$AAo?$AAi?$AAd?$AA?5?$AA?$CK?$AA?$CJ?$AA0?$AA?$CJ?$AA?0?$AA?5?$AA0@ 0057c9a8     LIBCMTD:setlocal.obj
 0002:00016a18       ??_C@_0CJ@EMIEBLMF@f?3?2dd?2vctools?2crt?2crtw32?2misc?2se@ 0057ca18     LIBCMTD:setlocal.obj
 0002:00016a48       ??_C@_1IA@FCOMIGHE@?$AAm?$AAb?$AAs?$AAt?$AAo?$AAw?$AAc?$AAs?$AA_?$AAs?$AA?$CI?$AA?$CI?$AA?$CI?$AAv?$AAo?$AAi?$AAd?$AA?5?$AA?$CK?$AA?$CJ?$AA0?$AA?$CJ?$AA?0?$AA?5?$AAi?$AAn?$AAw?$AAl?$AAo?$AAc?$AAa?$AAl@ 0057ca48     LIBCMTD:setlocal.obj
 0002:00016ac8       ??_C@_1HK@CPNLNCH@?$AA_?$AAw?$AAc?$AAs?$AAt?$AAo?$AAm?$AAb?$AAs?$AA_?$AAs?$AA_?$AAl?$AA?$CI?$AA?$CG?$AAs?$AAi?$AAz?$AAe?$AA?0?$AA?5?$AA?$CI?$AA?$CI?$AAv?$AAo?$AAi?$AAd?$AA?5?$AA?$CK?$AA?$CJ?$AA0?$AA?$CJ@ 0057cac8     LIBCMTD:setlocal.obj
 0002:00016b48       ??_C@_1JO@EBJCGLDM@?$AA_?$AAw?$AAc?$AAs?$AAt?$AAo?$AAm?$AAb?$AAs?$AA_?$AAs?$AA_?$AAl?$AA?$CI?$AA?$CI?$AA?$CI?$AAv?$AAo?$AAi?$AAd?$AA?5?$AA?$CK?$AA?$CJ?$AA0?$AA?$CJ?$AA?0?$AA?5?$AAo?$AAu?$AAt?$AAl?$AAo@ 0057cb48     LIBCMTD:setlocal.obj
 0002:00016be8       ??_C@_1BKC@PGIGKCFN@?$AA?$CI?$AA?$CI?$AAp?$AAt?$AAl?$AAo?$AAc?$AAi?$AA?9?$AA?$DO?$AAl?$AAc?$AA_?$AAc?$AAa?$AAt?$AAe?$AAg?$AAo?$AAr?$AAy?$AA?$FL?$AA_?$AAc?$AAa?$AAt?$AAe?$AAg?$AAo?$AAr?$AAy?$AA?$FN@ 0057cbe8     LIBCMTD:setlocal.obj
 0002:00016d8c       ??_C@_1BM@IFHPBCCM@?$AAv?$AAa?$AAl?$AAu?$AAe?$AA?5?$AA?$CB?$AA?$DN?$AA?5?$AAN?$AAU?$AAL?$AAL?$AA?$AA@ 0057cd8c     LIBCMTD:putenv.obj
 0002:00016da8       ??_C@_1EO@LHONJBDN@?$AAf?$AA?3?$AA?2?$AAd?$AAd?$AA?2?$AAv?$AAc?$AAt?$AAo?$AAo?$AAl?$AAs?$AA?2?$AAc?$AAr?$AAt?$AA?2?$AAc?$AAr?$AAt?$AAw?$AA3?$AA2?$AA?2?$AAm?$AAi?$AAs?$AAc?$AA?2?$AAp?$AAu@ 0057cda8     LIBCMTD:putenv.obj
 0002:00016df8       ??_C@_1BE@FHKNNLOF@?$AA_?$AAp?$AAu?$AAt?$AAe?$AAn?$AAv?$AA_?$AAs?$AA?$AA@ 0057cdf8     LIBCMTD:putenv.obj
 0002:00016e0c       ??_C@_1BK@EILABNJE@?$AAn?$AAa?$AAm?$AAe?$AA?5?$AA?$CB?$AA?$DN?$AA?5?$AAN?$AAU?$AAL?$AAL?$AA?$AA@ 0057ce0c     LIBCMTD:putenv.obj
 0002:00016e28       ??_C@_1BO@PHFMKDLM@?$AA_?$AAp?$AAu?$AAt?$AAe?$AAn?$AAv?$AA_?$AAh?$AAe?$AAl?$AAp?$AAe?$AAr?$AA?$AA@ 0057ce28     LIBCMTD:putenv.obj
 0002:00016e48       ??_C@_1DA@EDDBCKIK@?$AAe?$AAq?$AAu?$AAa?$AAl?$AA?5?$AA?9?$AA?5?$AAn?$AAa?$AAm?$AAe?$AA?5?$AA?$DM?$AA?5?$AA_?$AAM?$AAA?$AAX?$AA_?$AAE?$AAN?$AAV?$AA?$AA@ 0057ce48     LIBCMTD:putenv.obj
 0002:00016e78       ??_C@_1FC@EEJIEIDF@?$AA_?$AAt?$AAc?$AAs?$AAn?$AAl?$AAe?$AAn?$AA?$CI?$AAe?$AAq?$AAu?$AAa?$AAl?$AA?5?$AA?$CL?$AA?5?$AA1?$AA?0?$AA?5?$AA_?$AAM?$AAA?$AAX?$AA_?$AAE?$AAN?$AAV?$AA?$CJ?$AA?5?$AA?$DM?$AA?5@ 0057ce78     LIBCMTD:putenv.obj
 0002:00016ecc       ??_C@_0CH@KLAOAICF@f?3?2dd?2vctools?2crt?2crtw32?2misc?2pu@ 0057cecc     LIBCMTD:putenv.obj
 0002:00016ef4       ??_C@_1CG@JIKAKFCE@?$AAn?$AAa?$AAm?$AAe?$AAl?$AAe?$AAn?$AA?5?$AA?$DM?$AA?5?$AA_?$AAM?$AAA?$AAX?$AA_?$AAE?$AAN?$AAV?$AA?$AA@ 0057cef4     LIBCMTD:putenv.obj
 0002:00016f1c       ??_C@_1CI@LJIGMPML@?$AAv?$AAa?$AAl?$AAu?$AAe?$AAl?$AAe?$AAn?$AA?5?$AA?$DM?$AA?5?$AA_?$AAM?$AAA?$AAX?$AA_?$AAE?$AAN?$AAV?$AA?$AA@ 0057cf1c     LIBCMTD:putenv.obj
 0002:00016f48       ??_C@_1EO@EJLBBGEB@?$AAf?$AA?3?$AA?2?$AAd?$AAd?$AA?2?$AAv?$AAc?$AAt?$AAo?$AAo?$AAl?$AAs?$AA?2?$AAc?$AAr?$AAt?$AA?2?$AAc?$AAr?$AAt?$AAw?$AA3?$AA2?$AA?2?$AAl?$AAo?$AAw?$AAi?$AAo?$AA?2?$AAc@ 0057cf48     LIBCMTD:close.obj
 0002:00016f98       ??_C@_1O@EDEJGJBM@?$AA_?$AAc?$AAl?$AAo?$AAs?$AAe?$AA?$AA@ 0057cf98     LIBCMTD:close.obj
 0002:00016fa8       ??_C@_1EO@CCHAPCBN@?$AAf?$AA?3?$AA?2?$AAd?$AAd?$AA?2?$AAv?$AAc?$AAt?$AAo?$AAo?$AAl?$AAs?$AA?2?$AAc?$AAr?$AAt?$AA?2?$AAc?$AAr?$AAt?$AAw?$AA3?$AA2?$AA?2?$AAl?$AAo?$AAw?$AAi?$AAo?$AA?2?$AAl@ 0057cfa8     LIBCMTD:lseek.obj
 0002:00016ff8       ??_C@_1O@EDOIKGHF@?$AA_?$AAl?$AAs?$AAe?$AAe?$AAk?$AA?$AA@ 0057cff8     LIBCMTD:lseek.obj
 0002:00017008       ??_C@_1DM@LMLOLGJ@?$AA?$CI?$AA?$CC?$AAI?$AAn?$AAv?$AAa?$AAl?$AAi?$AAd?$AA?5?$AAf?$AAi?$AAl?$AAe?$AA?5?$AAd?$AAe?$AAs?$AAc?$AAr?$AAi?$AAp?$AAt?$AAo?$AAr?$AA?$CC?$AA?0?$AA0?$AA?$CJ?$AA?$AA@ 0057d008     LIBCMTD:lseek.obj
 0002:00017048       ??_C@_1EM@BALFJBIJ@?$AAf?$AA?3?$AA?2?$AAd?$AAd?$AA?2?$AAv?$AAc?$AAt?$AAo?$AAo?$AAl?$AAs?$AA?2?$AAc?$AAr?$AAt?$AA?2?$AAc?$AAr?$AAt?$AAw?$AA3?$AA2?$AA?2?$AAl?$AAo?$AAw?$AAi?$AAo?$AA?2?$AAr@ 0057d048     LIBCMTD:read.obj
 0002:00017094       ??_C@_1M@NHJOLLDM@?$AA_?$AAr?$AAe?$AAa?$AAd?$AA?$AA@ 0057d094     LIBCMTD:read.obj
 0002:000170a0       ??_C@_1CC@HBLPFNKH@?$AA?$CI?$AAc?$AAn?$AAt?$AA?5?$AA?$DM?$AA?$DN?$AA?5?$AAI?$AAN?$AAT?$AA_?$AAM?$AAA?$AAX?$AA?$CJ?$AA?$AA@ 0057d0a0     LIBCMTD:read.obj
 0002:000170c4       ??_C@_1BK@JJBHNDKJ@?$AA_?$AAr?$AAe?$AAa?$AAd?$AA_?$AAn?$AAo?$AAl?$AAo?$AAc?$AAk?$AA?$AA@ 0057d0c4     LIBCMTD:read.obj
 0002:000170e0       ??_C@_1CG@OHLJHGGK@?$AA?$CI?$AAi?$AAn?$AAp?$AAu?$AAt?$AAb?$AAu?$AAf?$AA?5?$AA?$CB?$AA?$DN?$AA?5?$AAN?$AAU?$AAL?$AAL?$AA?$CJ?$AA?$AA@ 0057d0e0     LIBCMTD:read.obj
 0002:00017108       ??_C@_0CG@JHNDLPLJ@f?3?2dd?2vctools?2crt?2crtw32?2lowio?2r@ 0057d108     LIBCMTD:read.obj
 0002:00017130       ??_C@_0CJ@JJMAJPPG@f?3?2dd?2vctools?2crt?2crtw32?2misc?2in@ 0057d130     LIBCMTD:initctyp.obj
 0002:00017160       ??_C@_1FC@OGCCCEID@?$AAf?$AA?3?$AA?2?$AAd?$AAd?$AA?2?$AAv?$AAc?$AAt?$AAo?$AAo?$AAl?$AAs?$AA?2?$AAc?$AAr?$AAt?$AA?2?$AAc?$AAr?$AAt?$AAw?$AA3?$AA2?$AA?2?$AAm?$AAi?$AAs?$AAc?$AA?2?$AAi?$AAn@ 0057d160     LIBCMTD:initctyp.obj
 0002:000171b4       ??_C@_1DG@NMBGBDM@?$AAp?$AAl?$AAo?$AAc?$AAi?$AA?9?$AA?$DO?$AAc?$AAt?$AAy?$AAp?$AAe?$AA1?$AA_?$AAr?$AAe?$AAf?$AAc?$AAo?$AAu?$AAn?$AAt?$AA?5?$AA?$DO?$AA?5?$AA0?$AA?$AA@ 0057d1b4     LIBCMTD:initctyp.obj
 0002:000171f0       ??_C@_1EM@IOHICOCC@?$AAf?$AA?3?$AA?2?$AAd?$AAd?$AA?2?$AAv?$AAc?$AAt?$AAo?$AAo?$AAl?$AAs?$AA?2?$AAc?$AAr?$AAt?$AA?2?$AAc?$AAr?$AAt?$AAw?$AA3?$AA2?$AA?2?$AAd?$AAo?$AAs?$AA?2?$AAd?$AAo?$AAs@ 0057d1f0     LIBCMTD:dosmap.obj
 0002:0001723c       ??_C@_1BG@KCMPBBDK@?$AA_?$AAg?$AAe?$AAt?$AA_?$AAe?$AAr?$AAr?$AAn?$AAo?$AA?$AA@ 0057d23c     LIBCMTD:dosmap.obj
 0002:00017254       ??_C@_1BM@INIPHHDD@?$AA_?$AAg?$AAe?$AAt?$AA_?$AAd?$AAo?$AAs?$AAe?$AAr?$AAr?$AAn?$AAo?$AA?$AA@ 0057d254     LIBCMTD:dosmap.obj
 0002:00017270       ??_C@_1NC@EINCOKCO@?$AA_?$AAl?$AAo?$AAc?$AA_?$AAu?$AAp?$AAd?$AAa?$AAt?$AAe?$AA?4?$AAG?$AAe?$AAt?$AAL?$AAo?$AAc?$AAa?$AAl?$AAe?$AAT?$AA?$CI?$AA?$CJ?$AA?9?$AA?$DO?$AAl?$AAo?$AAc?$AAi?$AAn?$AAf@ 0057d270     LIBCMTD:mblen.obj
 0002:00017348       ??_C@_1FC@JAADIJPI@?$AAf?$AA?3?$AA?2?$AAd?$AAd?$AA?2?$AAv?$AAc?$AAt?$AAo?$AAo?$AAl?$AAs?$AA?2?$AAc?$AAr?$AAt?$AA?2?$AAc?$AAr?$AAt?$AAw?$AA3?$AA2?$AA?2?$AAc?$AAo?$AAn?$AAv?$AAe?$AAr?$AAt@ 0057d348     LIBCMTD:mblen.obj
 0002:0001739c       ??_C@_1BO@CLGIAEOJ@?$AA?$CI?$AAf?$AAi?$AAl?$AAe?$AA?5?$AA?$CB?$AA?$DN?$AA?5?$AAN?$AAU?$AAL?$AAL?$AA?$CJ?$AA?$AA@ 0057d39c     LIBCMTD:fopen.obj
 0002:000173c0       ??_C@_1EO@HOHPPGLK@?$AAf?$AA?3?$AA?2?$AAd?$AAd?$AA?2?$AAv?$AAc?$AAt?$AAo?$AAo?$AAl?$AAs?$AA?2?$AAc?$AAr?$AAt?$AA?2?$AAc?$AAr?$AAt?$AAw?$AA3?$AA2?$AA?2?$AAs?$AAt?$AAd?$AAi?$AAo?$AA?2?$AAf@ 0057d3c0     LIBCMTD:fopen.obj
 0002:00017410       ??_C@_1BA@HNEAFMNL@?$AA_?$AAf?$AAs?$AAo?$AAp?$AAe?$AAn?$AA?$AA@ 0057d410     LIBCMTD:fopen.obj
 0002:00017420       ??_C@_1BO@MJMKAKCJ@?$AA?$CI?$AAm?$AAo?$AAd?$AAe?$AA?5?$AA?$CB?$AA?$DN?$AA?5?$AAN?$AAU?$AAL?$AAL?$AA?$CJ?$AA?$AA@ 0057d420     LIBCMTD:fopen.obj
 0002:00017440       ??_C@_1CI@HBNALCBB@?$AA?$CI?$AA?$CK?$AAm?$AAo?$AAd?$AAe?$AA?5?$AA?$CB?$AA?$DN?$AA?5?$AA_?$AAT?$AA?$CI?$AA?8?$AA?2?$AA0?$AA?8?$AA?$CJ?$AA?$CJ?$AA?$AA@ 0057d440     LIBCMTD:fopen.obj
 0002:00017468       ??_C@_1CA@LLJLFCDN@?$AA?$CI?$AAp?$AAf?$AAi?$AAl?$AAe?$AA?5?$AA?$CB?$AA?$DN?$AA?5?$AAN?$AAU?$AAL?$AAL?$AA?$CJ?$AA?$AA@ 0057d468     LIBCMTD:fopen.obj
 0002:00017488       ??_C@_1BA@PBGKCCAP@?$AAf?$AAo?$AAp?$AAe?$AAn?$AA_?$AAs?$AA?$AA@ 0057d488     LIBCMTD:fopen.obj
 0002:00017498       ??_C@_1EO@IFJDPGDH@?$AAf?$AA?3?$AA?2?$AAd?$AAd?$AA?2?$AAv?$AAc?$AAt?$AAo?$AAo?$AAl?$AAs?$AA?2?$AAc?$AAr?$AAt?$AA?2?$AAc?$AAr?$AAt?$AAw?$AA3?$AA2?$AA?2?$AAs?$AAt?$AAd?$AAi?$AAo?$AA?2?$AAf@ 0057d498     LIBCMTD:fputc.obj
 0002:000174e8       ??_C@_1M@OIJMPNCO@?$AAf?$AAp?$AAu?$AAt?$AAc?$AA?$AA@ 0057d4e8     LIBCMTD:fputc.obj
 0002:000174f4       ??_C@_19LHKMJKNP@?$AAp?$AAu?$AAt?$AAc?$AA?$AA@ 0057d4f4     LIBCMTD:fputc.obj
 0002:00017500       ??_C@_1FA@NFCHPDNG@?$AAf?$AA?3?$AA?2?$AAd?$AAd?$AA?2?$AAv?$AAc?$AAt?$AAo?$AAo?$AAl?$AAs?$AA?2?$AAc?$AAr?$AAt?$AA?2?$AAc?$AAr?$AAt?$AAw?$AA3?$AA2?$AA?2?$AAl?$AAo?$AAw?$AAi?$AAo?$AA?2?$AAi@ 0057d500     LIBCMTD:isatty.obj
 0002:00017550       ??_C@_1BA@LEBDGIHM@?$AA_?$AAi?$AAs?$AAa?$AAt?$AAt?$AAy?$AA?$AA@ 0057d550     LIBCMTD:isatty.obj
 0002:00017560       ??_C@_1BO@DPAOGEII@?$AA?$CI?$AAp?$AAa?$AAt?$AAh?$AA?5?$AA?$CB?$AA?$DN?$AA?5?$AAN?$AAU?$AAL?$AAL?$AA?$CJ?$AA?$AA@ 0057d560     LIBCMTD:open.obj
 0002:00017580       ??_C@_1EM@MNGNPLOA@?$AAf?$AA?3?$AA?2?$AAd?$AAd?$AA?2?$AAv?$AAc?$AAt?$AAo?$AAo?$AAl?$AAs?$AA?2?$AAc?$AAr?$AAt?$AA?2?$AAc?$AAr?$AAt?$AAw?$AA3?$AA2?$AA?2?$AAl?$AAo?$AAw?$AAi?$AAo?$AA?2?$AAo@ 0057d580     LIBCMTD:open.obj
 0002:000175cc       ??_C@_1M@MFLJCMFJ@?$AA_?$AAo?$AAp?$AAe?$AAn?$AA?$AA@ 0057d5cc     LIBCMTD:open.obj
 0002:000175d8       ??_C@_1BM@PGEEHLHE@?$AA?$CI?$AAp?$AAf?$AAh?$AA?5?$AA?$CB?$AA?$DN?$AA?5?$AAN?$AAU?$AAL?$AAL?$AA?$CJ?$AA?$AA@ 0057d5d8     LIBCMTD:open.obj
 0002:000175f4       ??_C@_1BM@IOBAMMHO@?$AA_?$AAs?$AAo?$AAp?$AAe?$AAn?$AA_?$AAh?$AAe?$AAl?$AAp?$AAe?$AAr?$AA?$AA@ 0057d5f4     LIBCMTD:open.obj
 0002:00017610       ??_C@_1FG@NFINBJCM@?$AA?$CI?$AA?$CI?$AAp?$AAm?$AAo?$AAd?$AAe?$AA?5?$AA?$CG?$AA?5?$AA?$CI?$AA?$HO?$AA?$CI?$AA_?$AAS?$AA_?$AAI?$AAR?$AAE?$AAA?$AAD?$AA?5?$AA?$HM?$AA?5?$AA_?$AAS?$AA_?$AAI?$AAW?$AAR?$AAI?$AAT@ 0057d610     LIBCMTD:open.obj
 0002:00017668       ??_C@_1CA@NJFECEIO@?$AA?$CI?$AA?5?$AAp?$AAt?$AAm?$AA?5?$AA?$CB?$AA?$DN?$AA?5?$AAN?$AAU?$AAL?$AAL?$AA?5?$AA?$CJ?$AA?$AA@ 0057d668     LIBCMTD:loctim64.obj
 0002:00017688       ??_C@_1FC@HIKMAFJG@?$AAf?$AA?3?$AA?2?$AAd?$AAd?$AA?2?$AAv?$AAc?$AAt?$AAo?$AAo?$AAl?$AAs?$AA?2?$AAc?$AAr?$AAt?$AA?2?$AAc?$AAr?$AAt?$AAw?$AA3?$AA2?$AA?2?$AAt?$AAi?$AAm?$AAe?$AA?2?$AAl?$AAo@ 0057d688     LIBCMTD:loctim64.obj
 0002:000176dc       ??_C@_1BO@OIBEEOEM@?$AA_?$AAl?$AAo?$AAc?$AAa?$AAl?$AAt?$AAi?$AAm?$AAe?$AA6?$AA4?$AA_?$AAs?$AA?$AA@ 0057d6dc     LIBCMTD:loctim64.obj
 0002:000176fc       ??_C@_1CE@EHHPAMNN@?$AA?$CI?$AA?5?$AAp?$AAt?$AAi?$AAm?$AAe?$AA?5?$AA?$CB?$AA?$DN?$AA?5?$AAN?$AAU?$AAL?$AAL?$AA?5?$AA?$CJ?$AA?$AA@ 0057d6fc     LIBCMTD:loctim64.obj
 0002:00017720       ??_C@_1BO@LELPCFEI@?$AA?$CI?$AA?5?$AAt?$AAb?$AA?5?$AA?$CB?$AA?$DN?$AA?5?$AAN?$AAU?$AAL?$AAL?$AA?5?$AA?$CJ?$AA?$AA@ 0057d720     LIBCMTD:mktime64.obj
 0002:00017740       ??_C@_1FC@BOCJFJFB@?$AAf?$AA?3?$AA?2?$AAd?$AAd?$AA?2?$AAv?$AAc?$AAt?$AAo?$AAo?$AAl?$AAs?$AA?2?$AAc?$AAr?$AAt?$AA?2?$AAc?$AAr?$AAt?$AAw?$AA3?$AA2?$AA?2?$AAt?$AAi?$AAm?$AAe?$AA?2?$AAm?$AAk@ 0057d740     LIBCMTD:mktime64.obj
 0002:00017794       ??_C@_1CA@JJKIFLJO@?$AA_?$AAm?$AAa?$AAk?$AAe?$AA_?$AA_?$AAt?$AAi?$AAm?$AAe?$AA6?$AA4?$AA_?$AAt?$AA?$AA@ 0057d794     LIBCMTD:mktime64.obj
 0002:000177b8       ??_C@_1FC@NBJCLAE@?$AAf?$AA?3?$AA?2?$AAd?$AAd?$AA?2?$AAv?$AAc?$AAt?$AAo?$AAo?$AAl?$AAs?$AA?2?$AAc?$AAr?$AAt?$AA?2?$AAc?$AAr?$AAt?$AAw?$AA3?$AA2?$AA?2?$AAt?$AAi?$AAm?$AAe?$AA?2?$AAg?$AAm@ 0057d7b8     LIBCMTD:gmtime64.obj
 0002:0001780c       ??_C@_1BI@BFNFPMLP@?$AA_?$AAg?$AAm?$AAt?$AAi?$AAm?$AAe?$AA6?$AA4?$AA_?$AAs?$AA?$AA@ 0057d80c     LIBCMTD:gmtime64.obj
 0002:00017824       ??_C@_1CC@FPMHPAM@?$AA?$CI?$AA?5?$AAt?$AAi?$AAm?$AAp?$AA?5?$AA?$CB?$AA?$DN?$AA?5?$AAN?$AAU?$AAL?$AAL?$AA?5?$AA?$CJ?$AA?$AA@ 0057d824     LIBCMTD:gmtime64.obj
 0002:00017848       ??_C@_1DC@HAGCIKOA@?$AAb?$AAa?$AAs?$AAe?$AA?5?$AA?$CB?$AA?$DN?$AA?5?$AAN?$AAU?$AAL?$AAL?$AA?5?$AA?$HM?$AA?$HM?$AA?5?$AAn?$AAu?$AAm?$AA?5?$AA?$DN?$AA?$DN?$AA?5?$AA0?$AA?$AA@ 0057d848     LIBCMTD:qsort.obj
 0002:00017880       ??_C@_1EM@MCNFEMJ@?$AAf?$AA?3?$AA?2?$AAd?$AAd?$AA?2?$AAv?$AAc?$AAt?$AAo?$AAo?$AAl?$AAs?$AA?2?$AAc?$AAr?$AAt?$AA?2?$AAc?$AAr?$AAt?$AAw?$AA3?$AA2?$AA?2?$AAm?$AAi?$AAs?$AAc?$AA?2?$AAq?$AAs@ 0057d880     LIBCMTD:qsort.obj
 0002:000178cc       ??_C@_1M@INMHODIG@?$AAq?$AAs?$AAo?$AAr?$AAt?$AA?$AA@ 0057d8cc     LIBCMTD:qsort.obj
 0002:000178d8       ??_C@_1BE@NJBEBBME@?$AAw?$AAi?$AAd?$AAt?$AAh?$AA?5?$AA?$DO?$AA?5?$AA0?$AA?$AA@ 0057d8d8     LIBCMTD:qsort.obj
 0002:000178ec       ??_C@_1BK@HJGMBFLF@?$AAc?$AAo?$AAm?$AAp?$AA?5?$AA?$CB?$AA?$DN?$AA?5?$AAN?$AAU?$AAL?$AAL?$AA?$AA@ 0057d8ec     LIBCMTD:qsort.obj
 0002:00017908       ??_C@_1EK@KICPAPCG@?$AA?$CI?$AA?5?$AAs?$AAt?$AAr?$AAi?$AAn?$AAg?$AA?5?$AA?$CB?$AA?$DN?$AA?5?$AAN?$AAU?$AAL?$AAL?$AA?5?$AA?$CJ?$AA?5?$AA?$HM?$AA?$HM?$AA?5?$AA?$CI?$AA?5?$AAc?$AAo?$AAu?$AAn?$AAt?$AA?5?$AA?$DN?$AA?$DN@ 0057d908     LIBCMTD:fgets.obj
 0002:00017958       ??_C@_1EO@PGEPLMEM@?$AAf?$AA?3?$AA?2?$AAd?$AAd?$AA?2?$AAv?$AAc?$AAt?$AAo?$AAo?$AAl?$AAs?$AA?2?$AAc?$AAr?$AAt?$AA?2?$AAc?$AAr?$AAt?$AAw?$AA3?$AA2?$AA?2?$AAs?$AAt?$AAd?$AAi?$AAo?$AA?2?$AAf@ 0057d958     LIBCMTD:fgets.obj
 0002:000179a8       ??_C@_1M@BEMABAL@?$AAf?$AAg?$AAe?$AAt?$AAs?$AA?$AA@ 0057d9a8     LIBCMTD:fgets.obj
 0002:000179b4       ??_C@_1BO@CLMMCNLO@?$AA?$CI?$AA?5?$AAc?$AAo?$AAu?$AAn?$AAt?$AA?5?$AA?$DO?$AA?$DN?$AA?5?$AA0?$AA?5?$AA?$CJ?$AA?$AA@ 0057d9b4     LIBCMTD:fgets.obj
 0002:000179d4       ??_C@_1CA@EHPEFHFN@?$AA?$CI?$AA?5?$AAs?$AAt?$AAr?$AA?5?$AA?$CB?$AA?$DN?$AA?5?$AAN?$AAU?$AAL?$AAL?$AA?5?$AA?$CJ?$AA?$AA@ 0057d9d4     LIBCMTD:fgets.obj
 0002:000179f8       ??_C@_1OA@HGPJIFPM@?$AA?$CI?$AA?$CI?$AAm?$AAo?$AAd?$AAe?$AA?5?$AA?$DN?$AA?$DN?$AA?5?$AA_?$AAO?$AA_?$AAT?$AAE?$AAX?$AAT?$AA?$CJ?$AA?5?$AA?$HM?$AA?$HM?$AA?5?$AA?$CI?$AAm?$AAo?$AAd?$AAe?$AA?5?$AA?$DN?$AA?$DN?$AA?5?$AA_@ 0057d9f8     LIBCMTD:setmode.obj
 0002:00017ad8       ??_C@_1FC@HBDIADHE@?$AAf?$AA?3?$AA?2?$AAd?$AAd?$AA?2?$AAv?$AAc?$AAt?$AAo?$AAo?$AAl?$AAs?$AA?2?$AAc?$AAr?$AAt?$AA?2?$AAc?$AAr?$AAt?$AAw?$AA3?$AA2?$AA?2?$AAl?$AAo?$AAw?$AAi?$AAo?$AA?2?$AAs@ 0057dad8     LIBCMTD:setmode.obj
 0002:00017b2c       ??_C@_1BC@JBGGJDCM@?$AA_?$AAs?$AAe?$AAt?$AAm?$AAo?$AAd?$AAe?$AA?$AA@ 0057db2c     LIBCMTD:setmode.obj
 0002:00017b40       ??_C@_1IC@NDCJMLB@?$AA?$CI?$AA?$CI?$AAm?$AAo?$AAd?$AAe?$AA?5?$AA?$DN?$AA?$DN?$AA?5?$AA_?$AAO?$AA_?$AAT?$AAE?$AAX?$AAT?$AA?$CJ?$AA?5?$AA?$HM?$AA?$HM?$AA?5?$AA?$CI?$AAm?$AAo?$AAd?$AAe?$AA?5?$AA?$DN?$AA?$DN?$AA?5?$AA_@ 0057db40     LIBCMTD:setmode.obj
 0002:00017bc4       ??_C@_1BG@IEEHLOCL@?$AA_?$AAs?$AAe?$AAt?$AA_?$AAf?$AAm?$AAo?$AAd?$AAe?$AA?$AA@ 0057dbc4     LIBCMTD:setmode.obj
 0002:00017bdc       ??_C@_1CA@GPIGPPFN@?$AA?$CI?$AAp?$AAM?$AAo?$AAd?$AAe?$AA?5?$AA?$CB?$AA?$DN?$AA?5?$AAN?$AAU?$AAL?$AAL?$AA?$CJ?$AA?$AA@ 0057dbdc     LIBCMTD:setmode.obj
 0002:00017bfc       ??_C@_1BG@CKGMPOFH@?$AA_?$AAg?$AAe?$AAt?$AA_?$AAf?$AAm?$AAo?$AAd?$AAe?$AA?$AA@ 0057dbfc     LIBCMTD:setmode.obj
 0002:00017c14       ??_C@_1CA@HPEMMJMJ@?$AAc?$AAu?$AAr?$AAr?$AAe?$AAn?$AAt?$AA?5?$AA?$CB?$AA?$DN?$AA?5?$AAN?$AAU?$AAL?$AAL?$AA?$AA@ 0057dc14     LIBCMTD:mbsinc.obj
 0002:00017c38       ??_C@_1FG@GOPDNDCE@?$AAf?$AA?3?$AA?2?$AAd?$AAd?$AA?2?$AAv?$AAc?$AAt?$AAo?$AAo?$AAl?$AAs?$AA?2?$AAc?$AAr?$AAt?$AA?2?$AAc?$AAr?$AAt?$AAw?$AA3?$AA2?$AA?2?$AAm?$AAb?$AAs?$AAt?$AAr?$AAi?$AAn@ 0057dc38     LIBCMTD:mbsinc.obj
 0002:00017c90       ??_C@_1BA@GDAOKFNN@?$AA_?$AAm?$AAb?$AAs?$AAi?$AAn?$AAc?$AA?$AA@ 0057dc90     LIBCMTD:mbsinc.obj
 0002:00017ca0       ??_C@_1FC@NEEBCHNL@?$AAf?$AA?3?$AA?2?$AAd?$AAd?$AA?2?$AAv?$AAc?$AAt?$AAo?$AAo?$AAl?$AAs?$AA?2?$AAc?$AAr?$AAt?$AA?2?$AAc?$AAr?$AAt?$AAw?$AA3?$AA2?$AA?2?$AAs?$AAt?$AAr?$AAi?$AAn?$AAg?$AA?2@ 0057dca0     LIBCMTD:strupr.obj
 0002:00017cf4       ??_C@_1BA@DIKNJIGG@?$AA_?$AAs?$AAt?$AAr?$AAu?$AAp?$AAr?$AA?$AA@ 0057dcf4     LIBCMTD:strupr.obj
 0002:00017d04       ??_C@_1CC@NFHGNMIC@?$AA_?$AAs?$AAt?$AAr?$AAu?$AAp?$AAr?$AA_?$AAs?$AA_?$AAl?$AA_?$AAs?$AAt?$AAa?$AAt?$AA?$AA@ 0057dd04     LIBCMTD:strupr.obj
 0002:00017d28       ??_C@_1CI@ICBAMKHM@?$AA?$CI?$AA?$CC?$AAI?$AAn?$AAv?$AAa?$AAl?$AAi?$AAd?$AA?5?$AAD?$AAr?$AAi?$AAv?$AAe?$AA?$CC?$AA?0?$AA0?$AA?$CJ?$AA?$AA@ 0057dd28     LIBCMTD:getcwd.obj
 0002:00017d50       ??_C@_1EM@MOPAPOMM@?$AAf?$AA?3?$AA?2?$AAd?$AAd?$AA?2?$AAv?$AAc?$AAt?$AAo?$AAo?$AAl?$AAs?$AA?2?$AAc?$AAr?$AAt?$AA?2?$AAc?$AAr?$AAt?$AAw?$AA3?$AA2?$AA?2?$AAd?$AAo?$AAs?$AA?2?$AAg?$AAe?$AAt@ 0057dd50     LIBCMTD:getcwd.obj
 0002:00017d9c       ??_C@_1BK@HFHLJEKP@?$AA_?$AAg?$AAe?$AAt?$AAd?$AAc?$AAw?$AAd?$AA_?$AAd?$AAb?$AAg?$AA?$AA@ 0057dd9c     LIBCMTD:getcwd.obj
 0002:00017db8       ??_C@_1DE@JLKLCHND@?$AA?$CI?$AA?$CC?$AAI?$AAn?$AAv?$AAa?$AAl?$AAi?$AAd?$AA?5?$AAD?$AAr?$AAi?$AAv?$AAe?$AA?5?$AAI?$AAn?$AAd?$AAe?$AAx?$AA?$CC?$AA?0?$AA0?$AA?$CJ?$AA?$AA@ 0057ddb8     LIBCMTD:getcwd.obj
 0002:00017dec       ??_C@_1BI@HIJOLDJO@?$AA_?$AAv?$AAa?$AAl?$AAi?$AAd?$AAd?$AAr?$AAi?$AAv?$AAe?$AA?$AA@ 0057ddec     LIBCMTD:getcwd.obj
 0002:00017e08       ??_C@_1EK@MHEDDOEN@?$AAf?$AA?3?$AA?2?$AAd?$AAd?$AA?2?$AAv?$AAc?$AAt?$AAo?$AAo?$AAl?$AAs?$AA?2?$AAc?$AAr?$AAt?$AA?2?$AAc?$AAr?$AAt?$AAw?$AA3?$AA2?$AA?2?$AAd?$AAo?$AAs?$AA?2?$AAc?$AAh?$AAd@ 0057de08     LIBCMTD:chdir.obj
 0002:00017e54       ??_C@_1O@HIELJLOL@?$AA_?$AAc?$AAh?$AAd?$AAi?$AAr?$AA?$AA@ 0057de54     LIBCMTD:chdir.obj
 0002:00017e64       ??_C@_0CF@NPBGALFG@f?3?2dd?2vctools?2crt?2crtw32?2dos?2chd@ 0057de64     LIBCMTD:chdir.obj
 0002:00017e8c       ??_C@_01EEMJAFIK@?6?$AA@   0057de8c     LIBCMTD:perror.obj
 0002:00017e90       ??_C@_1FC@KMCLOOLI@?$AAf?$AA?3?$AA?2?$AAd?$AAd?$AA?2?$AAv?$AAc?$AAt?$AAo?$AAo?$AAl?$AAs?$AA?2?$AAc?$AAr?$AAt?$AA?2?$AAc?$AAr?$AAt?$AAw?$AA3?$AA2?$AA?2?$AAs?$AAt?$AAd?$AAi?$AAo?$AA?2?$AAf@ 0057de90     LIBCMTD:feoferr.obj
 0002:00017ee4       ??_C@_19LPGIFIDB@?$AAf?$AAe?$AAo?$AAf?$AA?$AA@ 0057dee4     LIBCMTD:feoferr.obj
 0002:00017ef0       ??_C@_1O@MOPHEPGP@?$AAf?$AAe?$AAr?$AAr?$AAo?$AAr?$AA?$AA@ 0057def0     LIBCMTD:feoferr.obj
 0002:00017f00       ??_C@_1EO@OOGDMPHD@?$AAf?$AA?3?$AA?2?$AAd?$AAd?$AA?2?$AAv?$AAc?$AAt?$AAo?$AAo?$AAl?$AAs?$AA?2?$AAc?$AAr?$AAt?$AA?2?$AAc?$AAr?$AAt?$AAw?$AA3?$AA2?$AA?2?$AAs?$AAt?$AAd?$AAi?$AAo?$AA?2?$AAf@ 0057df00     LIBCMTD:fseek.obj
 0002:00017f50       ??_C@_1M@HCCOIONH@?$AAf?$AAs?$AAe?$AAe?$AAk?$AA?$AA@ 0057df50     LIBCMTD:fseek.obj
 0002:00017f60       ??_C@_1IO@PMHBOLJK@?$AA?$CI?$AA?$CI?$AAw?$AAh?$AAe?$AAn?$AAc?$AAe?$AA?5?$AA?$DN?$AA?$DN?$AA?5?$AAS?$AAE?$AAE?$AAK?$AA_?$AAS?$AAE?$AAT?$AA?$CJ?$AA?5?$AA?$HM?$AA?$HM?$AA?5?$AA?$CI?$AAw?$AAh?$AAe?$AAn?$AAc?$AAe@ 0057df60     LIBCMTD:fseek.obj
 0002:00017ff0       ??_C@_1FC@NDJMHBOK@?$AAf?$AA?3?$AA?2?$AAd?$AAd?$AA?2?$AAv?$AAc?$AAt?$AAo?$AAo?$AAl?$AAs?$AA?2?$AAc?$AAr?$AAt?$AA?2?$AAc?$AAr?$AAt?$AAw?$AA3?$AA2?$AA?2?$AAs?$AAt?$AAd?$AAi?$AAo?$AA?2?$AAs@ 0057dff0     LIBCMTD:setvbuf.obj
 0002:00018044       ??_C@_1BA@OGODIODK@?$AAs?$AAe?$AAt?$AAv?$AAb?$AAu?$AAf?$AA?$AA@ 0057e044     LIBCMTD:setvbuf.obj
 0002:00018058       ??_C@_1HC@CBFEDAGG@?$AA?$CI?$AAt?$AAy?$AAp?$AAe?$AA?5?$AA?$DN?$AA?$DN?$AA?5?$AA_?$AAI?$AAO?$AAN?$AAB?$AAF?$AA?$CJ?$AA?5?$AA?$HM?$AA?$HM?$AA?5?$AA?$CI?$AAt?$AAy?$AAp?$AAe?$AA?5?$AA?$DN?$AA?$DN?$AA?5?$AA_?$AAI?$AAO@ 0057e058     LIBCMTD:setvbuf.obj
 0002:000180d0       ??_C@_1EG@IJNJIDNB@?$AA?$CI?$AA?$CI?$AA2?$AA?5?$AA?$DM?$AA?$DN?$AA?5?$AAs?$AAi?$AAz?$AAe?$AA?$CJ?$AA?5?$AA?$CG?$AA?$CG?$AA?5?$AA?$CI?$AAs?$AAi?$AAz?$AAe?$AA?5?$AA?$DM?$AA?$DN?$AA?5?$AAI?$AAN?$AAT?$AA_?$AAM?$AAA?$AAX@ 0057e0d0     LIBCMTD:setvbuf.obj
 0002:00018118       ??_C@_0CJ@IACMAHEB@f?3?2dd?2vctools?2crt?2crtw32?2stdio?2s@ 0057e118     LIBCMTD:setvbuf.obj
 0002:00018148       ??_C@_1FE@NEMEFFCD@?$AAf?$AA?3?$AA?2?$AAd?$AAd?$AA?2?$AAv?$AAc?$AAt?$AAo?$AAo?$AAl?$AAs?$AA?2?$AAc?$AAr?$AAt?$AA?2?$AAc?$AAr?$AAt?$AAw?$AA3?$AA2?$AA?2?$AAs?$AAt?$AAd?$AAi?$AAo?$AA?2?$AAc@ 0057e148     LIBCMTD:clearerr.obj
 0002:0001819c       ??_C@_1BG@GHDODAOE@?$AAc?$AAl?$AAe?$AAa?$AAr?$AAe?$AAr?$AAr?$AA_?$AAs?$AA?$AA@ 0057e19c     LIBCMTD:clearerr.obj
 0002:000181b8       ??_C@_1EO@HNHOEHGA@?$AAf?$AA?3?$AA?2?$AAd?$AAd?$AA?2?$AAv?$AAc?$AAt?$AAo?$AAo?$AAl?$AAs?$AA?2?$AAc?$AAr?$AAt?$AA?2?$AAc?$AAr?$AAt?$AAw?$AA3?$AA2?$AA?2?$AAs?$AAt?$AAd?$AAi?$AAo?$AA?2?$AAf@ 0057e1b8     LIBCMTD:ftell.obj
 0002:00018208       ??_C@_1M@CKCKPMNP@?$AAf?$AAt?$AAe?$AAl?$AAl?$AA?$AA@ 0057e208     LIBCMTD:ftell.obj
 0002:00018214       ??_C@_1BM@EPIDANEK@?$AA_?$AAf?$AAt?$AAe?$AAl?$AAl?$AA_?$AAn?$AAo?$AAl?$AAo?$AAc?$AAk?$AA?$AA@ 0057e214     LIBCMTD:ftell.obj
 0002:00018230       ??_C@_1EO@KDKHJMND@?$AAf?$AA?3?$AA?2?$AAd?$AAd?$AA?2?$AAv?$AAc?$AAt?$AAo?$AAo?$AAl?$AAs?$AA?2?$AAc?$AAr?$AAt?$AA?2?$AAc?$AAr?$AAt?$AAw?$AA3?$AA2?$AA?2?$AAs?$AAt?$AAd?$AAi?$AAo?$AA?2?$AAf@ 0057e230     LIBCMTD:fread.obj
 0002:00018280       ??_C@_1BA@CMLCEIGG@?$AAf?$AAr?$AAe?$AAa?$AAd?$AA_?$AAs?$AA?$AA@ 0057e280     LIBCMTD:fread.obj
 0002:00018290       ??_C@_1CC@CGFEEBMC@?$AA?$CI?$AAb?$AAu?$AAf?$AAf?$AAe?$AAr?$AA?5?$AA?$CB?$AA?$DN?$AA?5?$AAN?$AAU?$AAL?$AAL?$AA?$CJ?$AA?$AA@ 0057e290     LIBCMTD:fread.obj
 0002:000182b4       ??_C@_1CA@IDPOGFL@?$AA_?$AAf?$AAr?$AAe?$AAa?$AAd?$AA_?$AAn?$AAo?$AAl?$AAo?$AAc?$AAk?$AA_?$AAs?$AA?$AA@ 0057e2b4     LIBCMTD:fread.obj
 0002:000182d8       ??_C@_1EA@FAMECDND@?$AAn?$AAu?$AAm?$AA?5?$AA?$DM?$AA?$DN?$AA?5?$AA?$CI?$AAS?$AAI?$AAZ?$AAE?$AA_?$AAM?$AAA?$AAX?$AA?5?$AA?1?$AA?5?$AAe?$AAl?$AAe?$AAm?$AAe?$AAn?$AAt?$AAS?$AAi?$AAz?$AAe?$AA?$CJ?$AA?$AA@ 0057e2d8     LIBCMTD:fread.obj
 0002:00018318       ??_C@_1LG@DCNDJCHK@?$AA?$CI?$AA?$CC?$AAI?$AAn?$AAc?$AAo?$AAn?$AAs?$AAi?$AAs?$AAt?$AAe?$AAn?$AAt?$AA?5?$AAS?$AAt?$AAr?$AAe?$AAa?$AAm?$AA?5?$AAC?$AAo?$AAu?$AAn?$AAt?$AA?4?$AA?5?$AAF?$AAl?$AAu@ 0057e318     LIBCMTD:fread.obj
 0002:000183d0       ??_C@_1DA@DKEFLDMG@?$AA?$CI?$AA?$CC?$AAb?$AAu?$AAf?$AAf?$AAe?$AAr?$AA?5?$AAt?$AAo?$AAo?$AA?5?$AAs?$AAm?$AAa?$AAl?$AAl?$AA?$CC?$AA?0?$AA?5?$AA0?$AA?$CJ?$AA?$AA@ 0057e3d0     LIBCMTD:fread.obj
 0002:00018400       ??_C@_1FA@OFIKMJFM@?$AAf?$AA?3?$AA?2?$AAd?$AAd?$AA?2?$AAv?$AAc?$AAt?$AAo?$AAo?$AAl?$AAs?$AA?2?$AAc?$AAr?$AAt?$AA?2?$AAc?$AAr?$AAt?$AAw?$AA3?$AA2?$AA?2?$AAs?$AAt?$AAd?$AAi?$AAo?$AA?2?$AAf@ 0057e400     LIBCMTD:fwrite.obj
 0002:00018450       ??_C@_1O@KLNKIMAP@?$AAf?$AAw?$AAr?$AAi?$AAt?$AAe?$AA?$AA@ 0057e450     LIBCMTD:fwrite.obj
 0002:00018460       ??_C@_1BO@JGPKCBCE@?$AA_?$AAf?$AAw?$AAr?$AAi?$AAt?$AAe?$AA_?$AAn?$AAo?$AAl?$AAo?$AAc?$AAk?$AA?$AA@ 0057e460     LIBCMTD:fwrite.obj
 0002:00018480       ??_C@_1DC@FHEPNAPF@?$AAn?$AAu?$AAm?$AA?5?$AA?$DM?$AA?$DN?$AA?5?$AA?$CI?$AAS?$AAI?$AAZ?$AAE?$AA_?$AAM?$AAA?$AAX?$AA?5?$AA?1?$AA?5?$AAs?$AAi?$AAz?$AAe?$AA?$CJ?$AA?$AA@ 0057e480     LIBCMTD:fwrite.obj
 0002:000184b8       ??_C@_1EO@IKPEINGH@?$AAf?$AA?3?$AA?2?$AAd?$AAd?$AA?2?$AAv?$AAc?$AAt?$AAo?$AAo?$AAl?$AAs?$AA?2?$AAc?$AAr?$AAt?$AA?2?$AAc?$AAr?$AAt?$AAw?$AA3?$AA2?$AA?2?$AAs?$AAt?$AAd?$AAi?$AAo?$AA?2?$AAf@ 0057e4b8     LIBCMTD:fgetc.obj
 0002:00018508       ??_C@_1M@FBFFFGJE@?$AAf?$AAg?$AAe?$AAt?$AAc?$AA?$AA@ 0057e508     LIBCMTD:fgetc.obj
 0002:00018514       ??_C@_19OGFDBGF@?$AAg?$AAe?$AAt?$AAc?$AA?$AA@ 0057e514     LIBCMTD:fgetc.obj
 0002:00018520       ??_C@_0CG@HCHNIFJC@f?3?2dd?2vctools?2crt?2crtw32?2dos?2ren@ 0057e520     LIBCMTD:rename.obj
 0002:00018548       ??_C@_1FC@OJLJOFCB@?$AAf?$AA?3?$AA?2?$AAd?$AAd?$AA?2?$AAv?$AAc?$AAt?$AAo?$AAo?$AAl?$AAs?$AA?2?$AAc?$AAr?$AAt?$AA?2?$AAc?$AAr?$AAt?$AAw?$AA3?$AA2?$AA?2?$AAl?$AAo?$AAw?$AAi?$AAo?$AA?2?$AAf@ 0057e548     LIBCMTD:fstati32.obj
 0002:0001859c       ??_C@_1BI@JNJJGKPB@?$AA_?$AAf?$AAs?$AAt?$AAa?$AAt?$AA6?$AA4?$AAi?$AA3?$AA2?$AA?$AA@ 0057e59c     LIBCMTD:fstati32.obj
 0002:000185b8       ??_C@_1GO@IHCMJFJC@?$AA?$CI?$AAf?$AAi?$AAl?$AAd?$AAe?$AAs?$AA?5?$AA?$DO?$AA?$DN?$AA?5?$AA0?$AA?5?$AA?$CG?$AA?$CG?$AA?5?$AA?$CI?$AAu?$AAn?$AAs?$AAi?$AAg?$AAn?$AAe?$AAd?$AA?$CJ?$AAf?$AAi?$AAl?$AAd?$AAe?$AAs@ 0057e5b8     LIBCMTD:fstati32.obj
 0002:00018628       ??_C@_1DE@GMHIHBND@?$AA?$CI?$AA_?$AAo?$AAs?$AAf?$AAi?$AAl?$AAe?$AA?$CI?$AAf?$AAi?$AAl?$AAd?$AAe?$AAs?$AA?$CJ?$AA?5?$AA?$CG?$AA?5?$AAF?$AAO?$AAP?$AAE?$AAN?$AA?$CJ?$AA?$AA@ 0057e628     LIBCMTD:fstati32.obj
 0002:0001865c       ??_C@_0N@PPOMPGGK@RoInitialize?$AA@ 0057e65c     LIBCMTD:threadex.obj
 0002:0001866c       ??_C@_1BI@IDAOOPDH@?$AAc?$AAo?$AAm?$AAb?$AAa?$AAs?$AAe?$AA?4?$AAd?$AAl?$AAl?$AA?$AA@ 0057e66c     LIBCMTD:threadex.obj
 0002:00018684       ??_C@_0P@LLFHBIJD@RoUninitialize?$AA@ 0057e684     LIBCMTD:threadex.obj
 0002:00018694       ??_C@_1CI@JCFHILLH@?$AAi?$AAn?$AAi?$AAt?$AAi?$AAa?$AAl?$AAc?$AAo?$AAd?$AAe?$AA?5?$AA?$CB?$AA?$DN?$AA?5?$AAN?$AAU?$AAL?$AAL?$AA?$AA@ 0057e694     LIBCMTD:threadex.obj
 0002:000186c0       ??_C@_1FI@HEAMFGDG@?$AAf?$AA?3?$AA?2?$AAd?$AAd?$AA?2?$AAv?$AAc?$AAt?$AAo?$AAo?$AAl?$AAs?$AA?2?$AAc?$AAr?$AAt?$AA?2?$AAc?$AAr?$AAt?$AAw?$AA3?$AA2?$AA?2?$AAs?$AAt?$AAa?$AAr?$AAt?$AAu?$AAp@ 0057e6c0     LIBCMTD:threadex.obj
 0002:00018718       ??_C@_1BO@FIKPNENM@?$AA_?$AAb?$AAe?$AAg?$AAi?$AAn?$AAt?$AAh?$AAr?$AAe?$AAa?$AAd?$AAe?$AAx?$AA?$AA@ 0057e718     LIBCMTD:threadex.obj
 0002:00018738       ??_C@_0CM@FGMNMBFG@f?3?2dd?2vctools?2crt?2crtw32?2startup@ 0057e738     LIBCMTD:threadex.obj
 0002:00018764       ??_C@_0CJ@LPLBAFNO@f?3?2dd?2vctools?2crt?2crtw32?2startup@ 0057e764     LIBCMTD:mlock.obj
 0002:00018794       ??_7exception@std@@6B@     0057e794     LIBCMTD:stdexcpt.obj
 0002:0001879c       ??_C@_0BC@EOODALEL@Unknown?5exception?$AA@ 0057e79c     LIBCMTD:stdexcpt.obj
 0002:000187b4       ??_7bad_cast@std@@6B@      0057e7b4     LIBCMTD:stdexcpt.obj
 0002:000187c0       ??_7bad_typeid@std@@6B@    0057e7c0     LIBCMTD:stdexcpt.obj
 0002:000187cc       ??_7__non_rtti_object@std@@6B@ 0057e7cc     LIBCMTD:stdexcpt.obj
 0002:000187d4       ??_C@_1BK@MGMFAEKH@?$AAk?$AAe?$AAr?$AAn?$AAe?$AAl?$AA3?$AA2?$AA?4?$AAd?$AAl?$AAl?$AA?$AA@ 0057e7d4     LIBCMTD:winapisupp.obj
 0002:000187f0       ??_C@_08KNHFBNJ@FlsAlloc?$AA@ 0057e7f0     LIBCMTD:winapisupp.obj
 0002:000187fc       ??_C@_07PEJMOBNF@FlsFree?$AA@ 0057e7fc     LIBCMTD:winapisupp.obj
 0002:00018804       ??_C@_0M@GDNOONDI@FlsGetValue?$AA@ 0057e804     LIBCMTD:winapisupp.obj
 0002:00018810       ??_C@_0M@JCPCPOEF@FlsSetValue?$AA@ 0057e810     LIBCMTD:winapisupp.obj
 0002:0001881c       ??_C@_0BM@HCFOFFN@InitializeCriticalSectionEx?$AA@ 0057e81c     LIBCMTD:winapisupp.obj
 0002:00018838       ??_C@_0P@DLHPPCNH@CreateEventExW?$AA@ 0057e838     LIBCMTD:winapisupp.obj
 0002:00018848       ??_C@_0BD@KIEEOEEH@CreateSemaphoreExW?$AA@ 0057e848     LIBCMTD:winapisupp.obj
 0002:0001885c       ??_C@_0BI@BKLFFAPO@SetThreadStackGuarantee?$AA@ 0057e85c     LIBCMTD:winapisupp.obj
 0002:00018874       ??_C@_0BG@OGFAJCKC@CreateThreadpoolTimer?$AA@ 0057e874     LIBCMTD:winapisupp.obj
 0002:0001888c       ??_C@_0BD@LPLEMMDI@SetThreadpoolTimer?$AA@ 0057e88c     LIBCMTD:winapisupp.obj
 0002:000188a0       ??_C@_0CA@FMNJENH@WaitForThreadpoolTimerCallbacks?$AA@ 0057e8a0     LIBCMTD:winapisupp.obj
 0002:000188c0       ??_C@_0BF@DCFCCNOC@CloseThreadpoolTimer?$AA@ 0057e8c0     LIBCMTD:winapisupp.obj
 0002:000188d8       ??_C@_0BF@FLABGKKM@CreateThreadpoolWait?$AA@ 0057e8d8     LIBCMTD:winapisupp.obj
 0002:000188f0       ??_C@_0BC@MGCOHNA@SetThreadpoolWait?$AA@ 0057e8f0     LIBCMTD:winapisupp.obj
 0002:00018904       ??_C@_0BE@OCIOMIMP@CloseThreadpoolWait?$AA@ 0057e904     LIBCMTD:winapisupp.obj
 0002:00018918       ??_C@_0BJ@LKGHFHBO@FlushProcessWriteBuffers?$AA@ 0057e918     LIBCMTD:winapisupp.obj
 0002:00018934       ??_C@_0BP@KALKKPMO@FreeLibraryWhenCallbackReturns?$AA@ 0057e934     LIBCMTD:winapisupp.obj
 0002:00018954       ??_C@_0BK@DFNBACLA@GetCurrentProcessorNumber?$AA@ 0057e954     LIBCMTD:winapisupp.obj
 0002:00018970       ??_C@_0BP@KHGALBC@GetLogicalProcessorInformation?$AA@ 0057e970     LIBCMTD:winapisupp.obj
 0002:00018990       ??_C@_0BE@FKKLLFLM@CreateSymbolicLinkW?$AA@ 0057e990     LIBCMTD:winapisupp.obj
 0002:000189a4       ??_C@_0BJ@OHNKDLIJ@SetDefaultDllDirectories?$AA@ 0057e9a4     LIBCMTD:winapisupp.obj
 0002:000189c0       ??_C@_0BE@LJANKFHF@EnumSystemLocalesEx?$AA@ 0057e9c0     LIBCMTD:winapisupp.obj
 0002:000189d4       ??_C@_0BA@IHGNDAEB@CompareStringEx?$AA@ 0057e9d4     LIBCMTD:winapisupp.obj
 0002:000189e4       ??_C@_0BA@EPCJIIPD@GetDateFormatEx?$AA@ 0057e9e4     LIBCMTD:winapisupp.obj
 0002:000189f4       ??_C@_0BA@ONOKGCMP@GetLocaleInfoEx?$AA@ 0057e9f4     LIBCMTD:winapisupp.obj
 0002:00018a04       ??_C@_0BA@CIJJKCJJ@GetTimeFormatEx?$AA@ 0057ea04     LIBCMTD:winapisupp.obj
 0002:00018a14       ??_C@_0BJ@PBCCBIPI@GetUserDefaultLocaleName?$AA@ 0057ea14     LIBCMTD:winapisupp.obj
 0002:00018a30       ??_C@_0BC@CELBKLLA@IsValidLocaleName?$AA@ 0057ea30     LIBCMTD:winapisupp.obj
 0002:00018a44       ??_C@_0O@KKBNKAPF@LCMapStringEx?$AA@ 0057ea44     LIBCMTD:winapisupp.obj
 0002:00018a54       ??_C@_0BE@JOGNEJCI@GetCurrentPackageId?$AA@ 0057ea54     LIBCMTD:winapisupp.obj
 0002:00018a68       ??_C@_0P@CDHHOHKP@GetTickCount64?$AA@ 0057ea68     LIBCMTD:winapisupp.obj
 0002:00018a78       ??_C@_0BO@KPCLFDJJ@GetFileInformationByHandleExW?$AA@ 0057ea78     LIBCMTD:winapisupp.obj
 0002:00018a98       ??_C@_0BM@MHIDLABK@SetFileInformationByHandleW?$AA@ 0057ea98     LIBCMTD:winapisupp.obj
 0002:00018b70       ??_C@_1FK@PGACCAFB@?$AAR?$AA6?$AA0?$AA0?$AA2?$AA?$AN?$AA?6?$AA?9?$AA?5?$AAf?$AAl?$AAo?$AAa?$AAt?$AAi?$AAn?$AAg?$AA?5?$AAp?$AAo?$AAi?$AAn?$AAt?$AA?5?$AAs?$AAu?$AAp?$AAp?$AAo?$AAr?$AAt?$AA?5@ 0057eb70     LIBCMTD:crt0msg.obj
 0002:00018bd0       ??_C@_1FE@LLNEDJMD@?$AAR?$AA6?$AA0?$AA0?$AA8?$AA?$AN?$AA?6?$AA?9?$AA?5?$AAn?$AAo?$AAt?$AA?5?$AAe?$AAn?$AAo?$AAu?$AAg?$AAh?$AA?5?$AAs?$AAp?$AAa?$AAc?$AAe?$AA?5?$AAf?$AAo?$AAr?$AA?5?$AAa?$AAr@ 0057ebd0     LIBCMTD:crt0msg.obj
 0002:00018c28       ??_C@_1FI@HONFMGBI@?$AAR?$AA6?$AA0?$AA0?$AA9?$AA?$AN?$AA?6?$AA?9?$AA?5?$AAn?$AAo?$AAt?$AA?5?$AAe?$AAn?$AAo?$AAu?$AAg?$AAh?$AA?5?$AAs?$AAp?$AAa?$AAc?$AAe?$AA?5?$AAf?$AAo?$AAr?$AA?5?$AAe?$AAn@ 0057ec28     LIBCMTD:crt0msg.obj
 0002:00018c80       ??_C@_1EG@BEHAGFJD@?$AAR?$AA6?$AA0?$AA1?$AA0?$AA?$AN?$AA?6?$AA?9?$AA?5?$AAa?$AAb?$AAo?$AAr?$AAt?$AA?$CI?$AA?$CJ?$AA?5?$AAh?$AAa?$AAs?$AA?5?$AAb?$AAe?$AAe?$AAn?$AA?5?$AAc?$AAa?$AAl?$AAl?$AAe?$AAd@ 0057ec80     LIBCMTD:crt0msg.obj
 0002:00018cc8       ??_C@_1FI@LOGNIKDM@?$AAR?$AA6?$AA0?$AA1?$AA6?$AA?$AN?$AA?6?$AA?9?$AA?5?$AAn?$AAo?$AAt?$AA?5?$AAe?$AAn?$AAo?$AAu?$AAg?$AAh?$AA?5?$AAs?$AAp?$AAa?$AAc?$AAe?$AA?5?$AAf?$AAo?$AAr?$AA?5?$AAt?$AAh@ 0057ecc8     LIBCMTD:crt0msg.obj
 0002:00018d20       ??_C@_1FK@BEOGODMC@?$AAR?$AA6?$AA0?$AA1?$AA7?$AA?$AN?$AA?6?$AA?9?$AA?5?$AAu?$AAn?$AAe?$AAx?$AAp?$AAe?$AAc?$AAt?$AAe?$AAd?$AA?5?$AAm?$AAu?$AAl?$AAt?$AAi?$AAt?$AAh?$AAr?$AAe?$AAa?$AAd?$AA?5@ 0057ed20     LIBCMTD:crt0msg.obj
 0002:00018d80       ??_C@_1EC@JIBHAOPH@?$AAR?$AA6?$AA0?$AA1?$AA8?$AA?$AN?$AA?6?$AA?9?$AA?5?$AAu?$AAn?$AAe?$AAx?$AAp?$AAe?$AAc?$AAt?$AAe?$AAd?$AA?5?$AAh?$AAe?$AAa?$AAp?$AA?5?$AAe?$AAr?$AAr?$AAo?$AAr?$AA?$AN?$AA?6@ 0057ed80     LIBCMTD:crt0msg.obj
 0002:00018dc8       ??_C@_1FC@ECHBIFBC@?$AAR?$AA6?$AA0?$AA1?$AA9?$AA?$AN?$AA?6?$AA?9?$AA?5?$AAu?$AAn?$AAa?$AAb?$AAl?$AAe?$AA?5?$AAt?$AAo?$AA?5?$AAo?$AAp?$AAe?$AAn?$AA?5?$AAc?$AAo?$AAn?$AAs?$AAo?$AAl?$AAe?$AA?5@ 0057edc8     LIBCMTD:crt0msg.obj
 0002:00018e20       ??_C@_1GK@FHCKBEFA@?$AAR?$AA6?$AA0?$AA2?$AA4?$AA?$AN?$AA?6?$AA?9?$AA?5?$AAn?$AAo?$AAt?$AA?5?$AAe?$AAn?$AAo?$AAu?$AAg?$AAh?$AA?5?$AAs?$AAp?$AAa?$AAc?$AAe?$AA?5?$AAf?$AAo?$AAr?$AA?5?$AA_?$AAo@ 0057ee20     LIBCMTD:crt0msg.obj
 0002:00018e90       ??_C@_1EM@MAADIHMB@?$AAR?$AA6?$AA0?$AA2?$AA5?$AA?$AN?$AA?6?$AA?9?$AA?5?$AAp?$AAu?$AAr?$AAe?$AA?5?$AAv?$AAi?$AAr?$AAt?$AAu?$AAa?$AAl?$AA?5?$AAf?$AAu?$AAn?$AAc?$AAt?$AAi?$AAo?$AAn?$AA?5?$AAc@ 0057ee90     LIBCMTD:crt0msg.obj
 0002:00018ee0       ??_C@_1GK@MCAAGJMO@?$AAR?$AA6?$AA0?$AA2?$AA6?$AA?$AN?$AA?6?$AA?9?$AA?5?$AAn?$AAo?$AAt?$AA?5?$AAe?$AAn?$AAo?$AAu?$AAg?$AAh?$AA?5?$AAs?$AAp?$AAa?$AAc?$AAe?$AA?5?$AAf?$AAo?$AAr?$AA?5?$AAs?$AAt@ 0057eee0     LIBCMTD:crt0msg.obj
 0002:00018f50       ??_C@_1GK@MFGOKLAG@?$AAR?$AA6?$AA0?$AA2?$AA7?$AA?$AN?$AA?6?$AA?9?$AA?5?$AAn?$AAo?$AAt?$AA?5?$AAe?$AAn?$AAo?$AAu?$AAg?$AAh?$AA?5?$AAs?$AAp?$AAa?$AAc?$AAe?$AA?5?$AAf?$AAo?$AAr?$AA?5?$AAl?$AAo@ 0057ef50     LIBCMTD:crt0msg.obj
 0002:00018fc0       ??_C@_1EK@HHFLMAOL@?$AAR?$AA6?$AA0?$AA2?$AA8?$AA?$AN?$AA?6?$AA?9?$AA?5?$AAu?$AAn?$AAa?$AAb?$AAl?$AAe?$AA?5?$AAt?$AAo?$AA?5?$AAi?$AAn?$AAi?$AAt?$AAi?$AAa?$AAl?$AAi?$AAz?$AAe?$AA?5?$AAh?$AAe@ 0057efc0     LIBCMTD:crt0msg.obj
 0002:0001900c       ??_C@_1DO@BMFCDCD@?$AAR?$AA6?$AA0?$AA3?$AA0?$AA?$AN?$AA?6?$AA?9?$AA?5?$AAC?$AAR?$AAT?$AA?5?$AAn?$AAo?$AAt?$AA?5?$AAi?$AAn?$AAi?$AAt?$AAi?$AAa?$AAl?$AAi?$AAz?$AAe?$AAd?$AA?$AN?$AA?6?$AA?$AA@ 0057f00c     LIBCMTD:crt0msg.obj
 0002:00019050       ??_C@_1MG@ENCOOIDF@?$AAR?$AA6?$AA0?$AA3?$AA1?$AA?$AN?$AA?6?$AA?9?$AA?5?$AAA?$AAt?$AAt?$AAe?$AAm?$AAp?$AAt?$AA?5?$AAt?$AAo?$AA?5?$AAi?$AAn?$AAi?$AAt?$AAi?$AAa?$AAl?$AAi?$AAz?$AAe?$AA?5?$AAt@ 0057f050     LIBCMTD:crt0msg.obj
 0002:00019118       ??_C@_1GG@GOPILAJP@?$AAR?$AA6?$AA0?$AA3?$AA2?$AA?$AN?$AA?6?$AA?9?$AA?5?$AAn?$AAo?$AAt?$AA?5?$AAe?$AAn?$AAo?$AAu?$AAg?$AAh?$AA?5?$AAs?$AAp?$AAa?$AAc?$AAe?$AA?5?$AAf?$AAo?$AAr?$AA?5?$AAl?$AAo@ 0057f118     LIBCMTD:crt0msg.obj
 0002:00019180       ??_C@_1BOO@KGEDBGAJ@?$AAR?$AA6?$AA0?$AA3?$AA3?$AA?$AN?$AA?6?$AA?9?$AA?5?$AAA?$AAt?$AAt?$AAe?$AAm?$AAp?$AAt?$AA?5?$AAt?$AAo?$AA?5?$AAu?$AAs?$AAe?$AA?5?$AAM?$AAS?$AAI?$AAL?$AA?5?$AAc?$AAo?$AAd@ 0057f180     LIBCMTD:crt0msg.obj
 0002:00019370       ??_C@_1GG@MKFPEKFO@?$AAR?$AA6?$AA0?$AA3?$AA4?$AA?$AN?$AA?6?$AA?9?$AA?5?$AAi?$AAn?$AAc?$AAo?$AAn?$AAs?$AAi?$AAs?$AAt?$AAe?$AAn?$AAt?$AA?5?$AAo?$AAn?$AAe?$AAx?$AAi?$AAt?$AA?5?$AAb?$AAe?$AAg@ 0057f370     LIBCMTD:crt0msg.obj
 0002:000193d8       ??_C@_1BO@BFCDCGC@?$AAD?$AAO?$AAM?$AAA?$AAI?$AAN?$AA?5?$AAe?$AAr?$AAr?$AAo?$AAr?$AA?$AN?$AA?6?$AA?$AA@ 0057f3d8     LIBCMTD:crt0msg.obj
 0002:000193f8       ??_C@_1BK@KMOMNAAI@?$AAS?$AAI?$AAN?$AAG?$AA?5?$AAe?$AAr?$AAr?$AAo?$AAr?$AA?$AN?$AA?6?$AA?$AA@ 0057f3f8     LIBCMTD:crt0msg.obj
 0002:00019414       ??_C@_1BM@JBBEPPHI@?$AAT?$AAL?$AAO?$AAS?$AAS?$AA?5?$AAe?$AAr?$AAr?$AAo?$AAr?$AA?$AN?$AA?6?$AA?$AA@ 0057f414     LIBCMTD:crt0msg.obj
 0002:00019430       ??_C@_15JNBOKNOG@?$AA?$AN?$AA?6?$AA?$AA@ 0057f430     LIBCMTD:crt0msg.obj
 0002:00019438       ??_C@_1BO@BKOMIGKJ@?$AAr?$AAu?$AAn?$AAt?$AAi?$AAm?$AAe?$AA?5?$AAe?$AAr?$AAr?$AAo?$AAr?$AA?5?$AA?$AA@ 0057f438     LIBCMTD:crt0msg.obj
 0002:00019458       ??_C@_1FG@ILOHEEMG@?$AAf?$AA?3?$AA?2?$AAd?$AAd?$AA?2?$AAv?$AAc?$AAt?$AAo?$AAo?$AAl?$AAs?$AA?2?$AAc?$AAr?$AAt?$AA?2?$AAc?$AAr?$AAt?$AAw?$AA3?$AA2?$AA?2?$AAs?$AAt?$AAa?$AAr?$AAt?$AAu?$AAp@ 0057f458     LIBCMTD:crt0msg.obj
 0002:000194b0       ??_C@_1BI@EAHMBMEC@?$AA_?$AAN?$AAM?$AAS?$AAG?$AA_?$AAW?$AAR?$AAI?$AAT?$AAE?$AA?$AA@ 0057f4b0     LIBCMTD:crt0msg.obj
 0002:000194c8       ??_C@_1KO@BKLCKNFL@?$AAw?$AAc?$AAs?$AAc?$AAp?$AAy?$AA_?$AAs?$AA?$CI?$AAo?$AAu?$AAt?$AAm?$AAs?$AAg?$AA?0?$AA?5?$AA?$CI?$AAs?$AAi?$AAz?$AAe?$AAo?$AAf?$AA?$CI?$AAo?$AAu?$AAt?$AAm?$AAs?$AAg?$AA?$CJ@ 0057f4c8     LIBCMTD:crt0msg.obj
 0002:00019578       ??_C@_1DE@JNGNBFGO@?$AAR?$AAu?$AAn?$AAt?$AAi?$AAm?$AAe?$AA?5?$AAE?$AAr?$AAr?$AAo?$AAr?$AA?$CB?$AA?6?$AA?6?$AAP?$AAr?$AAo?$AAg?$AAr?$AAa?$AAm?$AA?3?$AA?5?$AA?$AA@ 0057f578     LIBCMTD:crt0msg.obj
 0002:000195b0       ??_C@_1HK@FJJNAABO@?$AAw?$AAc?$AAs?$AAc?$AAp?$AAy?$AA_?$AAs?$AA?$CI?$AAp?$AAr?$AAo?$AAg?$AAn?$AAa?$AAm?$AAe?$AA?0?$AA?5?$AAp?$AAr?$AAo?$AAg?$AAn?$AAa?$AAm?$AAe?$AA_?$AAs?$AAi?$AAz?$AAe@ 0057f5b0     LIBCMTD:crt0msg.obj
 0002:00019630       ??_C@_1HI@FLHKGEBE@?$AAw?$AAc?$AAs?$AAn?$AAc?$AAp?$AAy?$AA_?$AAs?$AA?$CI?$AAp?$AAc?$AAh?$AA?0?$AA?5?$AAp?$AAr?$AAo?$AAg?$AAn?$AAa?$AAm?$AAe?$AA_?$AAs?$AAi?$AAz?$AAe?$AA?5?$AA?9?$AA?5?$AA?$CI@ 0057f630     LIBCMTD:crt0msg.obj
 0002:000196a8       ??_C@_1IA@DCJGKHFO@?$AAw?$AAc?$AAs?$AAc?$AAa?$AAt?$AA_?$AAs?$AA?$CI?$AAo?$AAu?$AAt?$AAm?$AAs?$AAg?$AA?0?$AA?5?$AA?$CI?$AAs?$AAi?$AAz?$AAe?$AAo?$AAf?$AA?$CI?$AAo?$AAu?$AAt?$AAm?$AAs?$AAg?$AA?$CJ@ 0057f6a8     LIBCMTD:crt0msg.obj
 0002:00019728       ??_C@_1IG@NMONDPP@?$AAw?$AAc?$AAs?$AAc?$AAa?$AAt?$AA_?$AAs?$AA?$CI?$AAo?$AAu?$AAt?$AAm?$AAs?$AAg?$AA?0?$AA?5?$AA?$CI?$AAs?$AAi?$AAz?$AAe?$AAo?$AAf?$AA?$CI?$AAo?$AAu?$AAt?$AAm?$AAs?$AAg?$AA?$CJ@ 0057f728     LIBCMTD:crt0msg.obj
 0002:000197b0       ??_C@_0CJ@PLENACMA@f?3?2dd?2vctools?2crt?2crtw32?2misc?2in@ 0057f7b0     LIBCMTD:inithelp.obj
 0002:000197e0       ??_C@_1FC@PPCAPEFB@?$AAf?$AA?3?$AA?2?$AAd?$AAd?$AA?2?$AAv?$AAc?$AAt?$AAo?$AAo?$AAl?$AAs?$AA?2?$AAc?$AAr?$AAt?$AA?2?$AAc?$AAr?$AAt?$AAw?$AA3?$AA2?$AA?2?$AAm?$AAi?$AAs?$AAc?$AA?2?$AAi?$AAn@ 0057f7e0     LIBCMTD:inithelp.obj
 0002:00019834       ??_C@_1CA@KHHCPEI@?$AA_?$AA_?$AAg?$AAe?$AAt?$AAl?$AAo?$AAc?$AAa?$AAl?$AAe?$AAi?$AAn?$AAf?$AAo?$AA?$AA@ 0057f834     LIBCMTD:inithelp.obj
 0002:00019858       ??_C@_1GO@NGIGJNHH@?$AAs?$AAt?$AAr?$AAn?$AAc?$AAp?$AAy?$AA_?$AAs?$AA?$CI?$AA?$CK?$AAs?$AAt?$AAr?$AAa?$AAd?$AAd?$AAr?$AAe?$AAs?$AAs?$AA?0?$AA?5?$AAo?$AAu?$AAt?$AAs?$AAi?$AAz?$AAe?$AA?0?$AA?5@ 0057f858     LIBCMTD:inithelp.obj
 0002:000198c8       ??_C@_1BC@JLLICHIC@?$AAp?$AAn?$AAh?$AA?5?$AA?$DN?$AA?$DN?$AA?5?$AA0?$AA?$AA@ 0057f8c8     LIBCMTD:handler.obj
 0002:000198e0       ??_C@_1FE@HELBPGKC@?$AAf?$AA?3?$AA?2?$AAd?$AAd?$AA?2?$AAv?$AAc?$AAt?$AAo?$AAo?$AAl?$AAs?$AA?2?$AAc?$AAr?$AAt?$AA?2?$AAc?$AAr?$AAt?$AAw?$AA3?$AA2?$AA?2?$AAh?$AAe?$AAa?$AAp?$AA?2?$AAh?$AAa@ 0057f8e0     LIBCMTD:handler.obj
 0002:00019948       ??_C@_04HJMOFLDF@Free?$AA@ 0057f948     LIBCMTD:dbgheap.obj
 0002:00019950       ??_C@_06EFAGIKOH@Normal?$AA@ 0057f950     LIBCMTD:dbgheap.obj
 0002:00019958       ??_C@_03OGPFLFLO@CRT?$AA@  0057f958     LIBCMTD:dbgheap.obj
 0002:0001995c       ??_C@_06KMEJCCGM@Ignore?$AA@ 0057f95c     LIBCMTD:dbgheap.obj
 0002:00019964       ??_C@_06PJIGMIJB@Client?$AA@ 0057f964     LIBCMTD:dbgheap.obj
 0002:0001996c       ??_C@_1CE@LJFEPPMP@?$AA_?$AAC?$AAr?$AAt?$AAC?$AAh?$AAe?$AAc?$AAk?$AAM?$AAe?$AAm?$AAo?$AAr?$AAy?$AA?$CI?$AA?$CJ?$AA?$AA@ 0057f96c     LIBCMTD:dbgheap.obj
 0002:00019990       ??_C@_1FA@JKEKCOIC@?$AAf?$AA?3?$AA?2?$AAd?$AAd?$AA?2?$AAv?$AAc?$AAt?$AAo?$AAo?$AAl?$AAs?$AA?2?$AAc?$AAr?$AAt?$AA?2?$AAc?$AAr?$AAt?$AAw?$AA3?$AA2?$AA?2?$AAm?$AAi?$AAs?$AAc?$AA?2?$AAd?$AAb@ 0057f990     LIBCMTD:dbgheap.obj
 0002:000199e0       ??_C@_0DF@BBEGIFEK@Client?5hook?5allocation?5failure?5a@ 0057f9e0     LIBCMTD:dbgheap.obj
 0002:00019a18       ??_C@_0CB@CCLOLAHO@Client?5hook?5allocation?5failure?4?6@ 0057fa18     LIBCMTD:dbgheap.obj
 0002:00019a3c       ??_C@_02DKCKIIND@?$CFs?$AA@ 0057fa3c     LIBCMTD:dbgheap.obj
 0002:00019a40       ??_C@_0CF@BICKFLAF@Invalid?5allocation?5size?3?5?$CFIu?5byt@ 0057fa40     LIBCMTD:dbgheap.obj
 0002:00019a68       ??_C@_0DC@JEMAGEKG@Error?3?5memory?5allocation?3?5bad?5me@ 0057fa68     LIBCMTD:dbgheap.obj
 0002:00019a9c       ??_C@_0DI@KKJPDPGM@Client?5hook?5re?9allocation?5failur@ 0057fa9c     LIBCMTD:dbgheap.obj
 0002:00019ad4       ??_C@_0CE@DOFMDOL@Client?5hook?5re?9allocation?5failur@ 0057fad4     LIBCMTD:dbgheap.obj
 0002:00019af8       ??_C@_0ED@GPCPBAGP@Invalid?5allocation?5size?3?5?$CFIu?5byt@ 0057faf8     LIBCMTD:dbgheap.obj
 0002:00019b40       ??_C@_0FA@EFEIGJKG@Error?3?5memory?5allocation?3?5bad?5me@ 0057fb40     LIBCMTD:dbgheap.obj
 0002:00019b90       ??_C@_0EM@LGFLMAGJ@The?5Block?5at?50x?$CFp?5was?5allocated?5@ 0057fb90     LIBCMTD:dbgheap.obj
 0002:00019be0       ??_C@_1EE@GFOPCECE@?$AA_?$AAC?$AAr?$AAt?$AAI?$AAs?$AAV?$AAa?$AAl?$AAi?$AAd?$AAH?$AAe?$AAa?$AAp?$AAP?$AAo?$AAi?$AAn?$AAt?$AAe?$AAr?$AA?$CI?$AAp?$AAU?$AAs?$AAe?$AAr?$AAD?$AAa?$AAt?$AAa@ 0057fbe0     LIBCMTD:dbgheap.obj
 0002:00019c28       ??_C@_1IK@DCPKDGNH@?$AAp?$AAO?$AAl?$AAd?$AAB?$AAl?$AAo?$AAc?$AAk?$AA?9?$AA?$DO?$AAn?$AAL?$AAi?$AAn?$AAe?$AA?5?$AA?$DN?$AA?$DN?$AA?5?$AAI?$AAG?$AAN?$AAO?$AAR?$AAE?$AA_?$AAL?$AAI?$AAN?$AAE?$AA?5@ 0057fc28     LIBCMTD:dbgheap.obj
 0002:00019cb4       ??_C@_0DA@HFBKENN@Error?3?5possible?5heap?5corruption?5@ 0057fcb4     LIBCMTD:dbgheap.obj
 0002:00019ce8       ??_C@_1GE@PCKLOLAO@?$AAf?$AAR?$AAe?$AAa?$AAl?$AAl?$AAo?$AAc?$AA?5?$AA?$HM?$AA?$HM?$AA?5?$AA?$CI?$AA?$CB?$AAf?$AAR?$AAe?$AAa?$AAl?$AAl?$AAo?$AAc?$AA?5?$AA?$CG?$AA?$CG?$AA?5?$AAp?$AAN?$AAe?$AAw?$AAB?$AAl@ 0057fce8     LIBCMTD:dbgheap.obj
 0002:00019d4c       ??_C@_1DC@GEFKNOOL@?$AA_?$AAp?$AAL?$AAa?$AAs?$AAt?$AAB?$AAl?$AAo?$AAc?$AAk?$AA?5?$AA?$DN?$AA?$DN?$AA?5?$AAp?$AAO?$AAl?$AAd?$AAB?$AAl?$AAo?$AAc?$AAk?$AA?$AA@ 0057fd4c     LIBCMTD:dbgheap.obj
 0002:00019d80       ??_C@_1DE@KOOKLFBB@?$AA_?$AAp?$AAF?$AAi?$AAr?$AAs?$AAt?$AAB?$AAl?$AAo?$AAc?$AAk?$AA?5?$AA?$DN?$AA?$DN?$AA?5?$AAp?$AAO?$AAl?$AAd?$AAB?$AAl?$AAo?$AAc?$AAk?$AA?$AA@ 0057fd80     LIBCMTD:dbgheap.obj
 0002:00019db4       ??_C@_1CE@CJACEFBA@?$AAp?$AAU?$AAs?$AAe?$AAr?$AAD?$AAa?$AAt?$AAa?$AA?5?$AA?$CB?$AA?$DN?$AA?5?$AAN?$AAU?$AAL?$AAL?$AA?$AA@ 0057fdb4     LIBCMTD:dbgheap.obj
 0002:00019dd8       ??_C@_1BI@HAPNGHDP@?$AA_?$AAe?$AAx?$AAp?$AAa?$AAn?$AAd?$AA_?$AAd?$AAb?$AAg?$AA?$AA@ 0057fdd8     LIBCMTD:dbgheap.obj
 0002:00019df0       ??_C@_0EJ@HEIBCIMJ@The?5Block?5at?50x?$CFp?5was?5allocated?5@ 0057fdf0     LIBCMTD:dbgheap.obj
 0002:00019e3c       ??_C@_0BL@KEIPLFAC@Client?5hook?5free?5failure?4?6?$AA@ 0057fe3c     LIBCMTD:dbgheap.obj
 0002:00019e58       ??_C@_0KI@JGFOHMEB@HEAP?5CORRUPTION?5DETECTED?3?5before@ 0057fe58     LIBCMTD:dbgheap.obj
 0002:00019f00       ??_C@_0IK@PJCGLBOB@HEAP?5CORRUPTION?5DETECTED?3?5before@ 0057ff00     LIBCMTD:dbgheap.obj
 0002:00019f90       ??_C@_0KE@MBMNHHHN@HEAP?5CORRUPTION?5DETECTED?3?5after?5@ 0057ff90     LIBCMTD:dbgheap.obj
 0002:0001a038       ??_C@_0IG@LEMBDCJK@HEAP?5CORRUPTION?5DETECTED?3?5after?5@ 00580038     LIBCMTD:dbgheap.obj
 0002:0001a0c0       ??_C@_1HK@HPCBMDFG@?$AAp?$AAH?$AAe?$AAa?$AAd?$AA?9?$AA?$DO?$AAn?$AAL?$AAi?$AAn?$AAe?$AA?5?$AA?$DN?$AA?$DN?$AA?5?$AAI?$AAG?$AAN?$AAO?$AAR?$AAE?$AA_?$AAL?$AAI?$AAN?$AAE?$AA?5?$AA?$CG?$AA?$CG?$AA?5?$AAp@ 005800c0     LIBCMTD:dbgheap.obj
 0002:0001a13c       ??_C@_1DM@ODCJIDCP@?$AAp?$AAH?$AAe?$AAa?$AAd?$AA?9?$AA?$DO?$AAn?$AAB?$AAl?$AAo?$AAc?$AAk?$AAU?$AAs?$AAe?$AA?5?$AA?$DN?$AA?$DN?$AA?5?$AAn?$AAB?$AAl?$AAo?$AAc?$AAk?$AAU?$AAs?$AAe?$AA?$AA@ 0058013c     LIBCMTD:dbgheap.obj
 0002:0001a178       ??_C@_1CK@DMAGEMBG@?$AA_?$AAp?$AAL?$AAa?$AAs?$AAt?$AAB?$AAl?$AAo?$AAc?$AAk?$AA?5?$AA?$DN?$AA?$DN?$AA?5?$AAp?$AAH?$AAe?$AAa?$AAd?$AA?$AA@ 00580178     LIBCMTD:dbgheap.obj
 0002:0001a1a4       ??_C@_1CM@MMAADDMD@?$AA_?$AAp?$AAF?$AAi?$AAr?$AAs?$AAt?$AAB?$AAl?$AAo?$AAc?$AAk?$AA?5?$AA?$DN?$AA?$DN?$AA?5?$AAp?$AAH?$AAe?$AAa?$AAd?$AA?$AA@ 005801a4     LIBCMTD:dbgheap.obj
 0002:0001a1d0       ??_C@_1BG@MBKOGDLD@?$AA_?$AAm?$AAs?$AAi?$AAz?$AAe?$AA_?$AAd?$AAb?$AAg?$AA?$AA@ 005801d0     LIBCMTD:dbgheap.obj
 0002:0001a1e8       ??_C@_0CE@MKKHMBMK@_heapchk?5fails?5with?5_HEAPBADBEGI@ 005801e8     LIBCMTD:dbgheap.obj
 0002:0001a20c       ??_C@_0CD@CPKEAPBD@_heapchk?5fails?5with?5_HEAPBADNODE@ 0058020c     LIBCMTD:dbgheap.obj
 0002:0001a230       ??_C@_0CC@MJGLGBDG@_heapchk?5fails?5with?5_HEAPBADEND?4@ 00580230     LIBCMTD:dbgheap.obj
 0002:0001a254       ??_C@_0CC@MFFCHFHO@_heapchk?5fails?5with?5_HEAPBADPTR?4@ 00580254     LIBCMTD:dbgheap.obj
 0002:0001a278       ??_C@_0CL@HNNNMKMJ@_heapchk?5fails?5with?5unknown?5retu@ 00580278     LIBCMTD:dbgheap.obj
 0002:0001a2a4       ??_C@_07OHKEFPKJ@DAMAGED?$AA@ 005802a4     LIBCMTD:dbgheap.obj
 0002:0001a2b0       ??_C@_0KA@IHNJJKPL@HEAP?5CORRUPTION?5DETECTED?3?5on?5top@ 005802b0     LIBCMTD:dbgheap.obj
 0002:0001a350       ??_C@_0IC@BBJIOOJH@HEAP?5CORRUPTION?5DETECTED?3?5on?5top@ 00580350     LIBCMTD:dbgheap.obj
 0002:0001a3d8       ??_C@_0EG@DGJMPDBH@?$CFhs?5located?5at?50x?$CFp?5is?5?$CFIu?5bytes@ 005803d8     LIBCMTD:dbgheap.obj
 0002:0001a420       ??_C@_0CI@JMLBEDHJ@?$CFhs?5located?5at?50x?$CFp?5is?5?$CFIu?5bytes@ 00580420     LIBCMTD:dbgheap.obj
 0002:0001a448       ??_C@_1BHO@NNANJNF@?$AA?$CI?$AAf?$AAN?$AAe?$AAw?$AAB?$AAi?$AAt?$AAs?$AA?$DN?$AA?$DN?$AA_?$AAC?$AAR?$AAT?$AAD?$AAB?$AAG?$AA_?$AAR?$AAE?$AAP?$AAO?$AAR?$AAT?$AA_?$AAF?$AAL?$AAA?$AAG?$AA?$CJ?$AA?5@ 00580448     LIBCMTD:dbgheap.obj
 0002:0001a5c8       ??_C@_1BO@GJFDNMNF@?$AA_?$AAC?$AAr?$AAt?$AAS?$AAe?$AAt?$AAD?$AAb?$AAg?$AAF?$AAl?$AAa?$AAg?$AA?$AA@ 005805c8     LIBCMTD:dbgheap.obj
 0002:0001a5e8       ??_C@_1BI@CJGCEEDL@?$AAp?$AAf?$AAn?$AA?5?$AA?$CB?$AA?$DN?$AA?5?$AAN?$AAU?$AAL?$AAL?$AA?$AA@ 005805e8     LIBCMTD:dbgheap.obj
 0002:0001a600       ??_C@_1DE@GJCKCKEC@?$AA_?$AAC?$AAr?$AAt?$AAD?$AAo?$AAF?$AAo?$AAr?$AAA?$AAl?$AAl?$AAC?$AAl?$AAi?$AAe?$AAn?$AAt?$AAO?$AAb?$AAj?$AAe?$AAc?$AAt?$AAs?$AA?$AA@ 00580600     LIBCMTD:dbgheap.obj
 0002:0001a634       ??_C@_1BM@MIMANDHC@?$AAs?$AAt?$AAa?$AAt?$AAe?$AA?5?$AA?$CB?$AA?$DN?$AA?5?$AAN?$AAU?$AAL?$AAL?$AA?$AA@ 00580634     LIBCMTD:dbgheap.obj
 0002:0001a650       ??_C@_1CE@NJJKELF@?$AA_?$AAC?$AAr?$AAt?$AAM?$AAe?$AAm?$AAC?$AAh?$AAe?$AAc?$AAk?$AAp?$AAo?$AAi?$AAn?$AAt?$AA?$AA@ 00580650     LIBCMTD:dbgheap.obj
 0002:0001a674       ??_C@_0DP@LEFMFBOD@Bad?5memory?5block?5found?5at?50x?$CFp?4?6@ 00580674     LIBCMTD:dbgheap.obj
 0002:0001a6b4       ??_C@_0CB@EAAIGELO@Bad?5memory?5block?5found?5at?50x?$CFp?4?6@ 005806b4     LIBCMTD:dbgheap.obj
 0002:0001a6d8       ??_C@_1CE@PDIENACM@?$AA_?$AAC?$AAr?$AAt?$AAM?$AAe?$AAm?$AAD?$AAi?$AAf?$AAf?$AAe?$AAr?$AAe?$AAn?$AAc?$AAe?$AA?$AA@ 005806d8     LIBCMTD:dbgheap.obj
 0002:0001a6fc       ??_C@_1CC@DHPFEMMN@?$AAo?$AAl?$AAd?$AAS?$AAt?$AAa?$AAt?$AAe?$AA?5?$AA?$CB?$AA?$DN?$AA?5?$AAN?$AAU?$AAL?$AAL?$AA?$AA@ 005806fc     LIBCMTD:dbgheap.obj
 0002:0001a720       ??_C@_1CC@DFPEDFBP@?$AAn?$AAe?$AAw?$AAS?$AAt?$AAa?$AAt?$AAe?$AA?5?$AA?$CB?$AA?$DN?$AA?5?$AAN?$AAU?$AAL?$AAL?$AA?$AA@ 00580720     LIBCMTD:dbgheap.obj
 0002:0001a744       ??_C@_05MKKEDADM@?$CF?42X?5?$AA@ 00580744     LIBCMTD:dbgheap.obj
 0002:0001a74c       ??_C@_1CG@LPFIACGM@?$AA_?$AAp?$AAr?$AAi?$AAn?$AAt?$AAM?$AAe?$AAm?$AAB?$AAl?$AAo?$AAc?$AAk?$AAD?$AAa?$AAt?$AAa?$AA?$AA@ 0058074c     LIBCMTD:dbgheap.obj
 0002:0001a774       ??_C@_0BA@HJBKCELP@?5Data?3?5?$DM?$CFs?$DO?5?$CFs?6?$AA@ 00580774     LIBCMTD:dbgheap.obj
 0002:0001a784       ??_C@_0BE@KCIPKCIA@Dumping?5objects?5?9?$DO?6?$AA@ 00580784     LIBCMTD:dbgheap.obj
 0002:0001a798       ??_C@_0BE@OIEFNFL@?$CDFile?5Error?$CD?$CI?$CFd?$CJ?5?3?5?$AA@ 00580798     LIBCMTD:dbgheap.obj
 0002:0001a7ac       ??_C@_0L@JMEFFCCJ@?$CFhs?$CI?$CFd?$CJ?5?3?5?$AA@ 005807ac     LIBCMTD:dbgheap.obj
 0002:0001a7b8       ??_C@_06PKLGBFGM@?$HL?$CFld?$HN?5?$AA@ 005807b8     LIBCMTD:dbgheap.obj
 0002:0001a7c0       ??_C@_0DD@GHNAAKBB@client?5block?5at?50x?$CFp?0?5subtype?5?$CFx@ 005807c0     LIBCMTD:dbgheap.obj
 0002:0001a7f4       ??_C@_0CH@FAGDDGPN@normal?5block?5at?50x?$CFp?0?5?$CFIu?5bytes?5@ 005807f4     LIBCMTD:dbgheap.obj
 0002:0001a81c       ??_C@_0DA@MDLBNIBM@crt?5block?5at?50x?$CFp?0?5subtype?5?$CFx?0?5?$CF@ 0058081c     LIBCMTD:dbgheap.obj
 0002:0001a84c       ??_C@_0BH@GFGKJDCO@Object?5dump?5complete?4?6?$AA@ 0058084c     LIBCMTD:dbgheap.obj
 0002:0001a864       ??_C@_0BI@JBFPOEJA@Detected?5memory?5leaks?$CB?6?$AA@ 00580864     LIBCMTD:dbgheap.obj
 0002:0001a87c       ??_C@_1CM@MPNIBKGK@?$AA_?$AAC?$AAr?$AAt?$AAM?$AAe?$AAm?$AAD?$AAu?$AAm?$AAp?$AAS?$AAt?$AAa?$AAt?$AAi?$AAs?$AAt?$AAi?$AAc?$AAs?$AA?$AA@ 0058087c     LIBCMTD:dbgheap.obj
 0002:0001a8a8       ??_C@_0BO@DACNIABB@?$CFId?5bytes?5in?5?$CFId?5?$CFhs?5Blocks?4?6?$AA@ 005808a8     LIBCMTD:dbgheap.obj
 0002:0001a8c8       ??_C@_0CB@BLHDAFNE@Largest?5number?5used?3?5?$CFId?5bytes?4?6@ 005808c8     LIBCMTD:dbgheap.obj
 0002:0001a8ec       ??_C@_0BP@DEDHGGGI@Total?5allocations?3?5?$CFId?5bytes?4?6?$AA@ 005808ec     LIBCMTD:dbgheap.obj
 0002:0001a90c       ??_C@_1CE@NPMGPNNP@?$AAI?$AAS?$AA_?$AA2?$AA_?$AAP?$AAO?$AAW?$AA_?$AAN?$AA?$CI?$AAa?$AAl?$AAi?$AAg?$AAn?$AA?$CJ?$AA?$AA@ 0058090c     LIBCMTD:dbgheap.obj
 0002:0001a930       ??_C@_1DG@DONCJBBJ@?$AA_?$AAa?$AAl?$AAi?$AAg?$AAn?$AAe?$AAd?$AA_?$AAo?$AAf?$AAf?$AAs?$AAe?$AAt?$AA_?$AAm?$AAa?$AAl?$AAl?$AAo?$AAc?$AA_?$AAd?$AAb?$AAg?$AA?$AA@ 00580930     LIBCMTD:dbgheap.obj
 0002:0001a968       ??_C@_1DK@LFLKFPDA@?$AAo?$AAf?$AAf?$AAs?$AAe?$AAt?$AA?5?$AA?$DN?$AA?$DN?$AA?5?$AA0?$AA?5?$AA?$HM?$AA?$HM?$AA?5?$AAo?$AAf?$AAf?$AAs?$AAe?$AAt?$AA?5?$AA?$DM?$AA?5?$AAs?$AAi?$AAz?$AAe?$AA?$AA@ 00580968     LIBCMTD:dbgheap.obj
 0002:0001a9a8       ??_C@_0EI@NDNJMAJK@The?5block?5at?50x?$CFp?5was?5not?5alloca@ 005809a8     LIBCMTD:dbgheap.obj
 0002:0001a9f0       ??_C@_0DL@PGHMMKNE@Damage?5before?50x?$CFp?5which?5was?5all@ 005809f0     LIBCMTD:dbgheap.obj
 0002:0001aa2c       ??_C@_1DI@NINIKFFK@?$AA_?$AAa?$AAl?$AAi?$AAg?$AAn?$AAe?$AAd?$AA_?$AAo?$AAf?$AAf?$AAs?$AAe?$AAt?$AA_?$AAr?$AAe?$AAa?$AAl?$AAl?$AAo?$AAc?$AA_?$AAd?$AAb?$AAg?$AA?$AA@ 00580a2c     LIBCMTD:dbgheap.obj
 0002:0001aa68       ??_C@_0EF@PGELACII@The?5block?5at?50x?$CFp?5was?5not?5alloca@ 00580a68     LIBCMTD:dbgheap.obj
 0002:0001aab0       ??_C@_1CC@MOBIKHH@?$AAm?$AAe?$AAm?$AAb?$AAl?$AAo?$AAc?$AAk?$AA?5?$AA?$CB?$AA?$DN?$AA?5?$AAN?$AAU?$AAL?$AAL?$AA?$AA@ 00580ab0     LIBCMTD:dbgheap.obj
 0002:0001aad4       ??_C@_1CG@CEGMHIMN@?$AA_?$AAa?$AAl?$AAi?$AAg?$AAn?$AAe?$AAd?$AA_?$AAm?$AAs?$AAi?$AAz?$AAe?$AA_?$AAd?$AAb?$AAg?$AA?$AA@ 00580ad4     LIBCMTD:dbgheap.obj
 0002:0001aafc       ??_C@_03KHJOGHMM@exp?$AA@  00580afc     LIBCMTD:fpexcept.obj
 0002:0001ab00       ??_C@_03JGHBODFD@pow?$AA@  00580b00     LIBCMTD:fpexcept.obj
 0002:0001ab04       ??_C@_03MGHMBJCF@log?$AA@  00580b04     LIBCMTD:fpexcept.obj
 0002:0001ab08       ??_C@_05HGHHAHAP@log10?$AA@ 00580b08     LIBCMTD:fpexcept.obj
 0002:0001ab10       ??_C@_04COOMCNPB@sinh?$AA@ 00580b10     LIBCMTD:fpexcept.obj
 0002:0001ab18       ??_C@_04HPJJNFIM@cosh?$AA@ 00580b18     LIBCMTD:fpexcept.obj
 0002:0001ab20       ??_C@_04FJHINJAO@tanh?$AA@ 00580b20     LIBCMTD:fpexcept.obj
 0002:0001ab28       ??_C@_04FIHNOPOL@asin?$AA@ 00580b28     LIBCMTD:fpexcept.obj
 0002:0001ab30       ??_C@_04PDIFKINK@acos?$AA@ 00580b30     LIBCMTD:fpexcept.obj
 0002:0001ab38       ??_C@_04MLLJIGOK@atan?$AA@ 00580b38     LIBCMTD:fpexcept.obj
 0002:0001ab40       ??_C@_05KNGEOGJB@atan2?$AA@ 00580b40     LIBCMTD:fpexcept.obj
 0002:0001ab48       ??_C@_04EIAKFFMI@sqrt?$AA@ 00580b48     LIBCMTD:fpexcept.obj
 0002:0001ab50       ??_C@_03BLEJJJBH@sin?$AA@  00580b50     LIBCMTD:fpexcept.obj
 0002:0001ab54       ??_C@_03LALBNOCG@cos?$AA@  00580b54     LIBCMTD:fpexcept.obj
 0002:0001ab58       ??_C@_03IIINPABG@tan?$AA@  00580b58     LIBCMTD:fpexcept.obj
 0002:0001ab5c       ??_C@_04GFPJNGEK@ceil?$AA@ 00580b5c     LIBCMTD:fpexcept.obj
 0002:0001ab64       ??_C@_05PBJFFIGL@floor?$AA@ 00580b64     LIBCMTD:fpexcept.obj
 0002:0001ab6c       ??_C@_04ODHECPBC@fabs?$AA@ 00580b6c     LIBCMTD:fpexcept.obj
 0002:0001ab74       ??_C@_04EHEDPDJG@modf?$AA@ 00580b74     LIBCMTD:fpexcept.obj
 0002:0001ab7c       ??_C@_05CEJMAHNP@ldexp?$AA@ 00580b7c     LIBCMTD:fpexcept.obj
 0002:0001ab84       ??_C@_05KBKMEMPO@_cabs?$AA@ 00580b84     LIBCMTD:fpexcept.obj
 0002:0001ab8c       ??_C@_06MEIMCGCF@_hypot?$AA@ 00580b8c     LIBCMTD:fpexcept.obj
 0002:0001ab94       ??_C@_04KEPJIHGP@fmod?$AA@ 00580b94     LIBCMTD:fpexcept.obj
 0002:0001ab9c       ??_C@_05GKKHEGJL@frexp?$AA@ 00580b9c     LIBCMTD:fpexcept.obj
 0002:0001aba4       ??_C@_03MJLDFKDL@_y0?$AA@  00580ba4     LIBCMTD:fpexcept.obj
 0002:0001aba8       ??_C@_03NAKIGLHK@_y1?$AA@  00580ba8     LIBCMTD:fpexcept.obj
 0002:0001abac       ??_C@_03ONILCKOB@_yn?$AA@  00580bac     LIBCMTD:fpexcept.obj
 0002:0001abb0       ??_C@_05JGDBENOH@_logb?$AA@ 00580bb0     LIBCMTD:fpexcept.obj
 0002:0001abb8       ??_C@_0L@KDOEJCKC@_nextafter?$AA@ 00580bb8     LIBCMTD:fpexcept.obj
 0002:0001abc4       ??_C@_0CM@KPPOKOAI@f?3?2dd?2vctools?2crt?2crtw32?2startup@ 00580bc4     LIBCMTD:tidtable.obj
 0002:0001abf0       __pDestructExceptionObject 00580bf0     LIBCMTD:frame.obj
 0002:0001abf8       ??_7bad_exception@std@@6B@ 00580bf8     LIBCMTD:frame.obj
 0002:0001ac00       ??_C@_0O@DPKOEFFH@bad?5exception?$AA@ 00580c00     LIBCMTD:frame.obj
 0002:0001ac10       ??_C@_1CK@GELGGBDK@?$AAp?$AAN?$AAo?$AAd?$AAe?$AA?9?$AA?$DO?$AA_?$AAN?$AAe?$AAx?$AAt?$AA?5?$AA?$CB?$AA?$DN?$AA?5?$AAN?$AAU?$AAL?$AAL?$AA?$AA@ 00580c10     LIBCMTD:typname.obj
 0002:0001ac40       ??_C@_1FA@KAJOMDBA@?$AAf?$AA?3?$AA?2?$AAd?$AAd?$AA?2?$AAv?$AAc?$AAt?$AAo?$AAo?$AAl?$AAs?$AA?2?$AAc?$AAr?$AAt?$AA?2?$AAc?$AAr?$AAt?$AAw?$AA3?$AA2?$AA?2?$AAe?$AAh?$AA?2?$AAt?$AAy?$AAp?$AAn@ 00580c40     LIBCMTD:typname.obj
 0002:0001ac90       ??_C@_1CM@OOICDMK@?$AAt?$AAy?$AAp?$AAe?$AA_?$AAi?$AAn?$AAf?$AAo?$AA?3?$AA?3?$AA_?$AAN?$AAa?$AAm?$AAe?$AA_?$AAb?$AAa?$AAs?$AAe?$AA?$AA@ 00580c90     LIBCMTD:typname.obj
 0002:0001acc0       ??_C@_1JK@NAFNEPGC@?$AAs?$AAt?$AAr?$AAc?$AAp?$AAy?$AA_?$AAs?$AA?5?$AA?$CI?$AA?$CI?$AAc?$AAh?$AAa?$AAr?$AA?5?$AA?$CK?$AA?$CJ?$AA?$CI?$AA?$CI?$AAt?$AAy?$AAp?$AAe?$AA_?$AAi?$AAn?$AAf?$AAo?$AA?5?$AA?$CK?$AA?$CJ@ 00580cc0     LIBCMTD:typname.obj
 0002:0001ad5c       ??_C@_1DO@OJJLFJPE@?$AAt?$AAy?$AAp?$AAe?$AA_?$AAi?$AAn?$AAf?$AAo?$AA?3?$AA?3?$AA_?$AAN?$AAa?$AAm?$AAe?$AA_?$AAb?$AAa?$AAs?$AAe?$AA_?$AAi?$AAn?$AAt?$AAe?$AAr?$AAn?$AAa?$AAl?$AA?$AA@ 00580d5c     LIBCMTD:typname.obj
 0002:0001ada0       ??_C@_1GI@EAJKJPED@?$AAs?$AAt?$AAr?$AAc?$AAp?$AAy?$AA_?$AAs?$AA?5?$AA?$CI?$AAp?$AAT?$AAm?$AAp?$AAT?$AAy?$AAp?$AAe?$AAN?$AAa?$AAm?$AAe?$AA?0?$AA?5?$AAl?$AAe?$AAn?$AA?$CL?$AA2?$AA?0?$AA?5?$AA?$CI@ 00580da0     LIBCMTD:typname.obj
 0002:0001ae08       ??_C@_1BI@ICGGMGLK@?$AAb?$AAu?$AAf?$AA?5?$AA?$CB?$AA?$DN?$AA?5?$AAN?$AAU?$AAL?$AAL?$AA?$AA@ 00580e08     LIBCMTD:cvt.obj
 0002:0001ae20       ??_C@_1EG@OHONNKNN@?$AAf?$AA?3?$AA?2?$AAd?$AAd?$AA?2?$AAv?$AAc?$AAt?$AAo?$AAo?$AAl?$AAs?$AA?2?$AAc?$AAr?$AAt?$AA?2?$AAf?$AAp?$AAw?$AA3?$AA2?$AA?2?$AAc?$AAo?$AAn?$AAv?$AA?2?$AAc?$AAv?$AAt@ 00580e20     LIBCMTD:cvt.obj
 0002:0001ae68       ??_C@_1BE@OLBNEILL@?$AA_?$AAc?$AAf?$AAt?$AAo?$AAe?$AA2?$AA_?$AAl?$AA?$AA@ 00580e68     LIBCMTD:cvt.obj
 0002:0001ae7c       ??_C@_1CA@CBMNPEO@?$AAs?$AAi?$AAz?$AAe?$AAI?$AAn?$AAB?$AAy?$AAt?$AAe?$AAs?$AA?5?$AA?$DO?$AA?5?$AA0?$AA?$AA@ 00580e7c     LIBCMTD:cvt.obj
 0002:0001aea0       ??_C@_1HE@NACBNDPP@?$AAs?$AAi?$AAz?$AAe?$AAI?$AAn?$AAB?$AAy?$AAt?$AAe?$AAs?$AA?5?$AA?$DO?$AA?5?$AA?$CI?$AAs?$AAi?$AAz?$AAe?$AA_?$AAt?$AA?$CJ?$AA?$CI?$AA3?$AA?5?$AA?$CL?$AA?5?$AA?$CI?$AAn?$AAd?$AAe?$AAc@ 00580ea0     LIBCMTD:cvt.obj
 0002:0001af18       ??_C@_1LE@EOIFGNCJ@?$AAs?$AAt?$AAr?$AAc?$AAp?$AAy?$AA_?$AAs?$AA?$CI?$AAp?$AA?0?$AA?5?$AA?$CI?$AAs?$AAi?$AAz?$AAe?$AAI?$AAn?$AAB?$AAy?$AAt?$AAe?$AAs?$AA?5?$AA?$DN?$AA?$DN?$AA?5?$AA?$CI?$AAs?$AAi?$AAz@ 00580f18     LIBCMTD:cvt.obj
 0002:0001afcc       ??_C@_05KLBDPFGC@e?$CL000?$AA@ 00580fcc     LIBCMTD:cvt.obj
 0002:0001afd4       ??_C@_1BC@INKAPMHI@?$AA_?$AAc?$AAf?$AAt?$AAo?$AAe?$AA_?$AAl?$AA?$AA@ 00580fd4     LIBCMTD:cvt.obj
 0002:0001afe8       ??_C@_1BC@JOKPCIC@?$AA_?$AAc?$AAf?$AAt?$AAo?$AAa?$AA_?$AAl?$AA?$AA@ 00580fe8     LIBCMTD:cvt.obj
 0002:0001b000       ??_C@_1FC@IKIMAMJB@?$AAs?$AAi?$AAz?$AAe?$AAI?$AAn?$AAB?$AAy?$AAt?$AAe?$AAs?$AA?5?$AA?$DO?$AA?5?$AA?$CI?$AAs?$AAi?$AAz?$AAe?$AA_?$AAt?$AA?$CJ?$AA?$CI?$AA1?$AA?5?$AA?$CL?$AA?5?$AA4?$AA?5?$AA?$CL?$AA?5?$AAn@ 00581000     LIBCMTD:cvt.obj
 0002:0001b054       ??_C@_1BE@CKPDLI@?$AA_?$AAc?$AAf?$AAt?$AAo?$AAf?$AA2?$AA_?$AAl?$AA?$AA@ 00581054     LIBCMTD:cvt.obj
 0002:0001b068       ??_C@_1BC@DCPPLJL@?$AA_?$AAc?$AAf?$AAt?$AAo?$AAf?$AA_?$AAl?$AA?$AA@ 00581068     LIBCMTD:cvt.obj
 0002:0001b07c       ??_C@_1BC@MPIFPLAF@?$AA_?$AAc?$AAf?$AAt?$AAo?$AAg?$AA_?$AAl?$AA?$AA@ 0058107c     LIBCMTD:cvt.obj
 0002:0001b090       ??_C@_1FI@JJOJLGLE@?$AAf?$AA?3?$AA?2?$AAd?$AAd?$AA?2?$AAv?$AAc?$AAt?$AAo?$AAo?$AAl?$AAs?$AA?2?$AAc?$AAr?$AAt?$AA?2?$AAc?$AAr?$AAt?$AAw?$AA3?$AA2?$AA?2?$AAs?$AAt?$AAa?$AAr?$AAt?$AAu?$AAp@ 00581090     LIBCMTD:fp8.obj
 0002:0001b0e8       ??_C@_1CK@JMKHCBEI@?$AA_?$AAs?$AAe?$AAt?$AAd?$AAe?$AAf?$AAa?$AAu?$AAl?$AAt?$AAp?$AAr?$AAe?$AAc?$AAi?$AAs?$AAi?$AAo?$AAn?$AA?$AA@ 005810e8     LIBCMTD:fp8.obj
 0002:0001b118       ??_C@_1GE@KOCFNGPB@?$AA_?$AAc?$AAo?$AAn?$AAt?$AAr?$AAo?$AAl?$AAf?$AAp?$AA_?$AAs?$AA?$CI?$AA?$CI?$AA?$CI?$AAv?$AAo?$AAi?$AAd?$AA?5?$AA?$CK?$AA?$CJ?$AA0?$AA?$CJ?$AA?0?$AA?5?$AA0?$AAx?$AA0?$AA0?$AA0?$AA1@ 00581118     LIBCMTD:fp8.obj
 0002:0001b180       ??_C@_1BJK@FEBNHLFF@?$AA?$CI?$AA?$CI?$AAp?$AAt?$AAl?$AAo?$AAc?$AAi?$AA?9?$AA?$DO?$AAl?$AAc?$AA_?$AAc?$AAa?$AAt?$AAe?$AAg?$AAo?$AAr?$AAy?$AA?$FL?$AAc?$AAa?$AAt?$AAe?$AAg?$AAo?$AAr?$AAy?$AA?$FN?$AA?4@ 00581180     LIBCMTD:localref.obj
 0002:0001b320       ??_C@_1FC@HINIIGNO@?$AAf?$AA?3?$AA?2?$AAd?$AAd?$AA?2?$AAv?$AAc?$AAt?$AAo?$AAo?$AAl?$AAs?$AA?2?$AAc?$AAr?$AAt?$AA?2?$AAc?$AAr?$AAt?$AAw?$AA3?$AA2?$AA?2?$AAm?$AAi?$AAs?$AAc?$AA?2?$AAl?$AAo@ 00581320     LIBCMTD:localref.obj
 0002:0001b384       ??_C@_1M@HPNHIDJI@?$AAj?$AAa?$AA?9?$AAJ?$AAP?$AA?$AA@ 00581384     LIBCMTD:mbctype.obj
 0002:0001b390       ??_C@_1M@BIBDDEMK@?$AAz?$AAh?$AA?9?$AAC?$AAN?$AA?$AA@ 00581390     LIBCMTD:mbctype.obj
 0002:0001b39c       ??_C@_1M@JLOOOEGK@?$AAk?$AAo?$AA?9?$AAK?$AAR?$AA?$AA@ 0058139c     LIBCMTD:mbctype.obj
 0002:0001b3a8       ??_C@_1M@CLNBBOPM@?$AAz?$AAh?$AA?9?$AAT?$AAW?$AA?$AA@ 005813a8     LIBCMTD:mbctype.obj
 0002:0001b3b4       ??_C@_0CM@BEDCPGGG@f?3?2dd?2vctools?2crt?2crtw32?2mbstrin@ 005813b4     LIBCMTD:mbctype.obj
 0002:0001b3e0       ??_C@_03KOEHGMDN@Sun?$AA@  005813e0     LIBCMTD:nlsdata.obj
 0002:0001b3e4       ??_C@_03PDAGKDH@Mon?$AA@   005813e4     LIBCMTD:nlsdata.obj
 0002:0001b3e8       ??_C@_03NAGEINEP@Tue?$AA@  005813e8     LIBCMTD:nlsdata.obj
 0002:0001b3ec       ??_C@_03MHOMLAJA@Wed?$AA@  005813ec     LIBCMTD:nlsdata.obj
 0002:0001b3f0       ??_C@_03IOFIKPDN@Thu?$AA@  005813f0     LIBCMTD:nlsdata.obj
 0002:0001b3f4       ??_C@_03IDIOELNC@Fri?$AA@  005813f4     LIBCMTD:nlsdata.obj
 0002:0001b3f8       ??_C@_03FEFJNEK@Sat?$AA@   005813f8     LIBCMTD:nlsdata.obj
 0002:0001b3fc       ??_C@_06OOPIFAJ@Sunday?$AA@ 005813fc     LIBCMTD:nlsdata.obj
 0002:0001b404       ??_C@_06JLEDEDGH@Monday?$AA@ 00581404     LIBCMTD:nlsdata.obj
 0002:0001b40c       ??_C@_07BAAGCFCM@Tuesday?$AA@ 0058140c     LIBCMTD:nlsdata.obj
 0002:0001b414       ??_C@_09DLIGFAKA@Wednesday?$AA@ 00581414     LIBCMTD:nlsdata.obj
 0002:0001b420       ??_C@_08HACCIKIA@Thursday?$AA@ 00581420     LIBCMTD:nlsdata.obj
 0002:0001b42c       ??_C@_06JECMNKMI@Friday?$AA@ 0058142c     LIBCMTD:nlsdata.obj
 0002:0001b434       ??_C@_08INBOOONO@Saturday?$AA@ 00581434     LIBCMTD:nlsdata.obj
 0002:0001b440       ??_C@_03JIHJHPIE@Jan?$AA@  00581440     LIBCMTD:nlsdata.obj
 0002:0001b444       ??_C@_03HJBDCHOM@Feb?$AA@  00581444     LIBCMTD:nlsdata.obj
 0002:0001b448       ??_C@_03ODNJBKGA@Mar?$AA@  00581448     LIBCMTD:nlsdata.obj
 0002:0001b44c       ??_C@_03LEOLGMJP@Apr?$AA@  0058144c     LIBCMTD:nlsdata.obj
 0002:0001b450       ??_C@_03CNMDKL@May?$AA@    00581450     LIBCMTD:nlsdata.obj
 0002:0001b454       ??_C@_03IDFGHECI@Jun?$AA@  00581454     LIBCMTD:nlsdata.obj
 0002:0001b458       ??_C@_03LBGABGKK@Jul?$AA@  00581458     LIBCMTD:nlsdata.obj
 0002:0001b45c       ??_C@_03IFJFEIGA@Aug?$AA@  0058145c     LIBCMTD:nlsdata.obj
 0002:0001b460       ??_C@_03GGCAPAJC@Sep?$AA@  00581460     LIBCMTD:nlsdata.obj
 0002:0001b464       ??_C@_03BMAOKBAD@Oct?$AA@  00581464     LIBCMTD:nlsdata.obj
 0002:0001b468       ??_C@_03JPJOFNIA@Nov?$AA@  00581468     LIBCMTD:nlsdata.obj
 0002:0001b46c       ??_C@_03MKABNOCG@Dec?$AA@  0058146c     LIBCMTD:nlsdata.obj
 0002:0001b470       ??_C@_07CGJPFGJA@January?$AA@ 00581470     LIBCMTD:nlsdata.obj
 0002:0001b478       ??_C@_08GNJGEPFN@February?$AA@ 00581478     LIBCMTD:nlsdata.obj
 0002:0001b484       ??_C@_05HPCKOFNC@March?$AA@ 00581484     LIBCMTD:nlsdata.obj
 0002:0001b48c       ??_C@_05DMJDNLEJ@April?$AA@ 0058148c     LIBCMTD:nlsdata.obj
 0002:0001b494       ??_C@_04CNLMGBGM@June?$AA@ 00581494     LIBCMTD:nlsdata.obj
 0002:0001b49c       ??_C@_04MIEPOIFP@July?$AA@ 0058149c     LIBCMTD:nlsdata.obj
 0002:0001b4a4       ??_C@_06LBBHFDDG@August?$AA@ 005814a4     LIBCMTD:nlsdata.obj
 0002:0001b4ac       ??_C@_09BHHEALKD@September?$AA@ 005814ac     LIBCMTD:nlsdata.obj
 0002:0001b4b8       ??_C@_07JJNFCEND@October?$AA@ 005814b8     LIBCMTD:nlsdata.obj
 0002:0001b4c0       ??_C@_08HCHEGEOA@November?$AA@ 005814c0     LIBCMTD:nlsdata.obj
 0002:0001b4cc       ??_C@_08EDHMEBNP@December?$AA@ 005814cc     LIBCMTD:nlsdata.obj
 0002:0001b4d8       ??_C@_02DEDBPAFC@AM?$AA@   005814d8     LIBCMTD:nlsdata.obj
 0002:0001b4dc       ??_C@_02CJNFDJBF@PM?$AA@   005814dc     LIBCMTD:nlsdata.obj
 0002:0001b4e0       ??_C@_08BPBNCDIB@MM?1dd?1yy?$AA@ 005814e0     LIBCMTD:nlsdata.obj
 0002:0001b4ec       ??_C@_0BE@CKGJFCPC@dddd?0?5MMMM?5dd?0?5yyyy?$AA@ 005814ec     LIBCMTD:nlsdata.obj
 0002:0001b500       ??_C@_08JCCMCCIL@HH?3mm?3ss?$AA@ 00581500     LIBCMTD:nlsdata.obj
 0002:0001b50c       ??_C@_17MBGCMIPB@?$AAS?$AAu?$AAn?$AA?$AA@ 0058150c     LIBCMTD:nlsdata.obj
 0002:0001b514       ??_C@_17KBOMKBF@?$AAM?$AAo?$AAn?$AA?$AA@ 00581514     LIBCMTD:nlsdata.obj
 0002:0001b51c       ??_C@_17BMKGEGOJ@?$AAT?$AAu?$AAe?$AA?$AA@ 0058151c     LIBCMTD:nlsdata.obj
 0002:0001b524       ??_C@_17CJEDCEPE@?$AAW?$AAe?$AAd?$AA?$AA@ 00581524     LIBCMTD:nlsdata.obj
 0002:0001b52c       ??_C@_17PDPHAADD@?$AAT?$AAh?$AAu?$AA?$AA@ 0058152c     LIBCMTD:nlsdata.obj
 0002:0001b534       ??_C@_17HFOLPPLP@?$AAF?$AAr?$AAi?$AA?$AA@ 00581534     LIBCMTD:nlsdata.obj
 0002:0001b53c       ??_C@_17GGIBDPIH@?$AAS?$AAa?$AAt?$AA?$AA@ 0058153c     LIBCMTD:nlsdata.obj
 0002:0001b544       ??_C@_1O@IHNHDHPB@?$AAS?$AAu?$AAn?$AAd?$AAa?$AAy?$AA?$AA@ 00581544     LIBCMTD:nlsdata.obj
 0002:0001b554       ??_C@_1O@MMNBFLIA@?$AAM?$AAo?$AAn?$AAd?$AAa?$AAy?$AA?$AA@ 00581554     LIBCMTD:nlsdata.obj
 0002:0001b564       ??_C@_1BA@ENFBFFEK@?$AAT?$AAu?$AAe?$AAs?$AAd?$AAa?$AAy?$AA?$AA@ 00581564     LIBCMTD:nlsdata.obj
 0002:0001b574       ??_C@_1BE@EBOGMDOH@?$AAW?$AAe?$AAd?$AAn?$AAe?$AAs?$AAd?$AAa?$AAy?$AA?$AA@ 00581574     LIBCMTD:nlsdata.obj
 0002:0001b588       ??_C@_1BC@HHMNLIHE@?$AAT?$AAh?$AAu?$AAr?$AAs?$AAd?$AAa?$AAy?$AA?$AA@ 00581588     LIBCMTD:nlsdata.obj
 0002:0001b59c       ??_C@_1O@PDICJHAG@?$AAF?$AAr?$AAi?$AAd?$AAa?$AAy?$AA?$AA@ 0058159c     LIBCMTD:nlsdata.obj
 0002:0001b5ac       ??_C@_1BC@ENMNNPAJ@?$AAS?$AAa?$AAt?$AAu?$AAr?$AAd?$AAa?$AAy?$AA?$AA@ 005815ac     LIBCMTD:nlsdata.obj
 0002:0001b5c0       ??_C@_17DKNBKCHM@?$AAJ?$AAa?$AAn?$AA?$AA@ 005815c0     LIBCMTD:nlsdata.obj
 0002:0001b5c8       ??_C@_17LMDJEKJN@?$AAF?$AAe?$AAb?$AA?$AA@ 005815c8     LIBCMTD:nlsdata.obj
 0002:0001b5d0       ??_C@_17CKNLEDEC@?$AAM?$AAa?$AAr?$AA?$AA@ 005815d0     LIBCMTD:nlsdata.obj
 0002:0001b5d8       ??_C@_17LFPOIHDD@?$AAA?$AAp?$AAr?$AA?$AA@ 005815d8     LIBCMTD:nlsdata.obj
 0002:0001b5e0       ??_C@_17PNNKMEED@?$AAM?$AAa?$AAy?$AA?$AA@ 005815e0     LIBCMTD:nlsdata.obj
 0002:0001b5e8       ??_C@_17KCJGOCPB@?$AAJ?$AAu?$AAn?$AA?$AA@ 005815e8     LIBCMTD:nlsdata.obj
 0002:0001b5f0       ??_C@_17IJPCKHK@?$AAJ?$AAu?$AAl?$AA?$AA@ 005815f0     LIBCMTD:nlsdata.obj
 0002:0001b5f8       ??_C@_17ICPELBCN@?$AAA?$AAu?$AAg?$AA?$AA@ 005815f8     LIBCMTD:nlsdata.obj
 0002:0001b600       ??_C@_17HCHCOKMG@?$AAS?$AAe?$AAp?$AA?$AA@ 00581600     LIBCMTD:nlsdata.obj
 0002:0001b608       ??_C@_17FNLKOI@?$AAO?$AAc?$AAt?$AA?$AA@ 00581608     LIBCMTD:nlsdata.obj
 0002:0001b610       ??_C@_17BBDMLCIG@?$AAN?$AAo?$AAv?$AA?$AA@ 00581610     LIBCMTD:nlsdata.obj
 0002:0001b618       ??_C@_17EGKACKIF@?$AAD?$AAe?$AAc?$AA?$AA@ 00581618     LIBCMTD:nlsdata.obj
 0002:0001b620       ??_C@_1BA@EFMEIEBA@?$AAJ?$AAa?$AAn?$AAu?$AAa?$AAr?$AAy?$AA?$AA@ 00581620     LIBCMTD:nlsdata.obj
 0002:0001b630       ??_C@_1BC@JGDDFFAM@?$AAF?$AAe?$AAb?$AAr?$AAu?$AAa?$AAr?$AAy?$AA?$AA@ 00581630     LIBCMTD:nlsdata.obj
 0002:0001b644       ??_C@_1M@IKEENEDF@?$AAM?$AAa?$AAr?$AAc?$AAh?$AA?$AA@ 00581644     LIBCMTD:nlsdata.obj
 0002:0001b650       ??_C@_1M@GJNLMHFD@?$AAA?$AAp?$AAr?$AAi?$AAl?$AA?$AA@ 00581650     LIBCMTD:nlsdata.obj
 0002:0001b65c       ??_C@_19EPFLPGAP@?$AAJ?$AAu?$AAn?$AAe?$AA?$AA@ 0058165c     LIBCMTD:nlsdata.obj
 0002:0001b668       ??_C@_19BIFMLPCD@?$AAJ?$AAu?$AAl?$AAy?$AA?$AA@ 00581668     LIBCMTD:nlsdata.obj
 0002:0001b674       ??_C@_1O@PAHLKOAC@?$AAA?$AAu?$AAg?$AAu?$AAs?$AAt?$AA?$AA@ 00581674     LIBCMTD:nlsdata.obj
 0002:0001b684       ??_C@_1BE@DKAAMBJL@?$AAS?$AAe?$AAp?$AAt?$AAe?$AAm?$AAb?$AAe?$AAr?$AA?$AA@ 00581684     LIBCMTD:nlsdata.obj
 0002:0001b698       ??_C@_1BA@EPANDLNG@?$AAO?$AAc?$AAt?$AAo?$AAb?$AAe?$AAr?$AA?$AA@ 00581698     LIBCMTD:nlsdata.obj
 0002:0001b6a8       ??_C@_1BC@BGLIFPF@?$AAN?$AAo?$AAv?$AAe?$AAm?$AAb?$AAe?$AAr?$AA?$AA@ 005816a8     LIBCMTD:nlsdata.obj
 0002:0001b6bc       ??_C@_1BC@FEMKIFH@?$AAD?$AAe?$AAc?$AAe?$AAm?$AAb?$AAe?$AAr?$AA?$AA@ 005816bc     LIBCMTD:nlsdata.obj
 0002:0001b6d0       ??_C@_15ODEHAHHF@?$AAA?$AAM?$AA?$AA@ 005816d0     LIBCMTD:nlsdata.obj
 0002:0001b6d8       ??_C@_15CLMNNGEL@?$AAP?$AAM?$AA?$AA@ 005816d8     LIBCMTD:nlsdata.obj
 0002:0001b6e0       ??_C@_1BC@IEBCMHCM@?$AAM?$AAM?$AA?1?$AAd?$AAd?$AA?1?$AAy?$AAy?$AA?$AA@ 005816e0     LIBCMTD:nlsdata.obj
 0002:0001b6f4       ??_C@_1CI@KNAKOEBC@?$AAd?$AAd?$AAd?$AAd?$AA?0?$AA?5?$AAM?$AAM?$AAM?$AAM?$AA?5?$AAd?$AAd?$AA?0?$AA?5?$AAy?$AAy?$AAy?$AAy?$AA?$AA@ 005816f4     LIBCMTD:nlsdata.obj
 0002:0001b71c       ??_C@_1BC@GDGBMEMK@?$AAH?$AAH?$AA?3?$AAm?$AAm?$AA?3?$AAs?$AAs?$AA?$AA@ 0058171c     LIBCMTD:nlsdata.obj
 0002:0001b730       ??_C@_1M@BMHNFIME@?$AAe?$AAn?$AA?9?$AAU?$AAS?$AA?$AA@ 00581730     LIBCMTD:nlsdata.obj
 0002:0001b740       ___lc_category             00581740     LIBCMTD:wsetloca.obj
 0002:0001b788       ??_C@_1O@GIFLHMA@?$AAL?$AAC?$AA_?$AAA?$AAL?$AAL?$AA?$AA@ 00581788     LIBCMTD:wsetloca.obj
 0002:0001b798       ??_C@_1BG@PPOMIBNJ@?$AAL?$AAC?$AA_?$AAC?$AAO?$AAL?$AAL?$AAA?$AAT?$AAE?$AA?$AA@ 00581798     LIBCMTD:wsetloca.obj
 0002:0001b7b0       ??_C@_1BC@FFJGAPJM@?$AAL?$AAC?$AA_?$AAC?$AAT?$AAY?$AAP?$AAE?$AA?$AA@ 005817b0     LIBCMTD:wsetloca.obj
 0002:0001b7c4       ??_C@_1BI@PCKFNJFB@?$AAL?$AAC?$AA_?$AAM?$AAO?$AAN?$AAE?$AAT?$AAA?$AAR?$AAY?$AA?$AA@ 005817c4     LIBCMTD:wsetloca.obj
 0002:0001b7dc       ??_C@_1BG@ENIEDKID@?$AAL?$AAC?$AA_?$AAN?$AAU?$AAM?$AAE?$AAR?$AAI?$AAC?$AA?$AA@ 005817dc     LIBCMTD:wsetloca.obj
 0002:0001b7f4       ??_C@_1BA@HAAOMIIG@?$AAL?$AAC?$AA_?$AAT?$AAI?$AAM?$AAE?$AA?$AA@ 005817f4     LIBCMTD:wsetloca.obj
 0002:0001b888       ??_C@_1GA@LDEGDKD@?$AA?$CI?$AA?$CC?$AAI?$AAn?$AAv?$AAa?$AAl?$AAi?$AAd?$AA?5?$AAp?$AAa?$AAr?$AAa?$AAm?$AAe?$AAt?$AAe?$AAr?$AA?5?$AAf?$AAo?$AAr?$AA?5?$AA_?$AAc?$AAo?$AAn?$AAf?$AAi?$AAg?$AAt@ 00581888     LIBCMTD:wsetloca.obj
 0002:0001b8e8       ??_C@_1FC@GFIKBLFA@?$AAf?$AA?3?$AA?2?$AAd?$AAd?$AA?2?$AAv?$AAc?$AAt?$AAo?$AAo?$AAl?$AAs?$AA?2?$AAc?$AAr?$AAt?$AA?2?$AAc?$AAr?$AAt?$AAw?$AA3?$AA2?$AA?2?$AAm?$AAi?$AAs?$AAc?$AA?2?$AAw?$AAs@ 005818e8     LIBCMTD:wsetloca.obj
 0002:0001b93c       ??_C@_1CI@FGIONOJM@?$AA_?$AAc?$AAo?$AAn?$AAf?$AAi?$AAg?$AAt?$AAh?$AAr?$AAe?$AAa?$AAd?$AAl?$AAo?$AAc?$AAa?$AAl?$AAe?$AA?$AA@ 0058193c     LIBCMTD:wsetloca.obj
 0002:0001b964       ??_C@_0CJ@MIILEBP@f?3?2dd?2vctools?2crt?2crtw32?2misc?2ws@ 00581964     LIBCMTD:wsetloca.obj
 0002:0001b990       ??_C@_1FG@OHLFEKMC@?$AAL?$AAC?$AA_?$AAM?$AAI?$AAN?$AA?5?$AA?$DM?$AA?$DN?$AA?5?$AA_?$AAc?$AAa?$AAt?$AAe?$AAg?$AAo?$AAr?$AAy?$AA?5?$AA?$CG?$AA?$CG?$AA?5?$AA_?$AAc?$AAa?$AAt?$AAe?$AAg?$AAo?$AAr?$AAy@ 00581990     LIBCMTD:wsetloca.obj
 0002:0001b9e8       ??_C@_1BI@KJNPAEHL@?$AA_?$AAw?$AAs?$AAe?$AAt?$AAl?$AAo?$AAc?$AAa?$AAl?$AAe?$AA?$AA@ 005819e8     LIBCMTD:wsetloca.obj
 0002:0001ba00       ??_C@_15NBPDDFIP@?$AA?$DN?$AA?$DL?$AA?$AA@ 00581a00     LIBCMTD:wsetloca.obj
 0002:0001ba08       ??_C@_13PJJBFPED@?$AA?$DL?$AA?$AA@ 00581a08     LIBCMTD:wsetloca.obj
 0002:0001ba0c       ??_C@_1CG@DKJCBBPP@?$AA_?$AAw?$AAs?$AAe?$AAt?$AAl?$AAo?$AAc?$AAa?$AAl?$AAe?$AA_?$AAn?$AAo?$AAl?$AAo?$AAc?$AAk?$AA?$AA@ 00581a0c     LIBCMTD:wsetloca.obj
 0002:0001ba38       ??_C@_1IA@DGCOPCLP@?$AAw?$AAc?$AAs?$AAn?$AAc?$AAp?$AAy?$AA_?$AAs?$AA?$CI?$AAl?$AAc?$AAt?$AAe?$AAm?$AAp?$AA?0?$AA?5?$AA?$CI?$AAs?$AAi?$AAz?$AAe?$AAo?$AAf?$AA?$CI?$AAl?$AAc?$AAt?$AAe?$AAm?$AAp@ 00581a38     LIBCMTD:wsetloca.obj
 0002:0001bab8       ??_C@_1CI@ODOPEMNJ@?$AA_?$AAw?$AAs?$AAe?$AAt?$AAl?$AAo?$AAc?$AAa?$AAl?$AAe?$AA_?$AAs?$AAe?$AAt?$AA_?$AAc?$AAa?$AAt?$AA?$AA@ 00581ab8     LIBCMTD:wsetloca.obj
 0002:0001bae0       ??_C@_1EM@MHOCNIAA@?$AAw?$AAc?$AAs?$AAc?$AAp?$AAy?$AA_?$AAs?$AA?$CI?$AAp?$AAc?$AAh?$AA_?$AAc?$AAa?$AAt?$AA_?$AAl?$AAo?$AAc?$AAa?$AAl?$AAe?$AA?0?$AA?5?$AAc?$AAc?$AAh?$AA?0?$AA?5?$AAl?$AAc@ 00581ae0     LIBCMTD:wsetloca.obj
 0002:0001bb2c       ??_C@_13NMPKAAJP@?$AA?$DN?$AA?$AA@ 00581b2c     LIBCMTD:wsetloca.obj
 0002:0001bb30       ??_C@_1CI@LKOPFFBD@?$AA_?$AAw?$AAs?$AAe?$AAt?$AAl?$AAo?$AAc?$AAa?$AAl?$AAe?$AA_?$AAg?$AAe?$AAt?$AA_?$AAa?$AAl?$AAl?$AA?$AA@ 00581b30     LIBCMTD:wsetloca.obj
 0002:0001bb58       ??_C@_1DC@HMLJMODP@?$AAw?$AAc?$AAs?$AAc?$AAa?$AAt?$AA_?$AAs?$AA?$CI?$AAp?$AAc?$AAh?$AA?0?$AA?5?$AAc?$AAc?$AAh?$AA?0?$AA?5?$AAL?$AA?$CC?$AA?$DL?$AA?$CC?$AA?$CJ?$AA?$AA@ 00581b58     LIBCMTD:wsetloca.obj
 0002:0001bb8c       ??_C@_1BM@OIIBLEFG@?$AA_?$AAe?$AAx?$AAp?$AAa?$AAn?$AAd?$AAl?$AAo?$AAc?$AAa?$AAl?$AAe?$AA?$AA@ 00581b8c     LIBCMTD:wsetloca.obj
 0002:0001bba8       ??_C@_1BFG@FHLOBJGM@?$AAw?$AAc?$AAs?$AAn?$AAc?$AAp?$AAy?$AA_?$AAs?$AA?$CI?$AAl?$AAo?$AAc?$AAa?$AAl?$AAe?$AAN?$AAa?$AAm?$AAe?$AAO?$AAu?$AAt?$AAp?$AAu?$AAt?$AA?0?$AA?5?$AAl?$AAo?$AAc?$AAa@ 00581ba8     LIBCMTD:wsetloca.obj
 0002:0001bd00       ??_C@_1EI@OCINLCHN@?$AAw?$AAc?$AAs?$AAc?$AAp?$AAy?$AA_?$AAs?$AA?$CI?$AAo?$AAu?$AAt?$AAp?$AAu?$AAt?$AA?0?$AA?5?$AAs?$AAi?$AAz?$AAe?$AAI?$AAn?$AAC?$AAh?$AAa?$AAr?$AAs?$AA?0?$AA?5?$AAL?$AA?$CC@ 00581d00     LIBCMTD:wsetloca.obj
 0002:0001bd48       ??_C@_13FHBKNHDA@?$AAC?$AA?$AA@ 00581d48     LIBCMTD:wsetloca.obj
 0002:0001bd50       ??_C@_1MO@NNCNEOAP@?$AAw?$AAc?$AAs?$AAn?$AAc?$AAp?$AAy?$AA_?$AAs?$AA?$CI?$AAl?$AAo?$AAc?$AAa?$AAl?$AAe?$AAN?$AAa?$AAm?$AAe?$AAO?$AAu?$AAt?$AAp?$AAu?$AAt?$AA?0?$AA?5?$AAl?$AAo?$AAc?$AAa@ 00581d50     LIBCMTD:wsetloca.obj
 0002:0001be20       ??_C@_1IG@MKDIEKFD@?$AAw?$AAc?$AAs?$AAn?$AAc?$AAp?$AAy?$AA_?$AAs?$AA?$CI?$AAc?$AAa?$AAc?$AAh?$AAe?$AAo?$AAu?$AAt?$AA?0?$AA?5?$AAc?$AAa?$AAc?$AAh?$AAe?$AAo?$AAu?$AAt?$AAL?$AAe?$AAn?$AA?0@ 00581e20     LIBCMTD:wsetloca.obj
 0002:0001bea8       ??_C@_1KK@KMIFPBBC@?$AAw?$AAc?$AAs?$AAn?$AAc?$AAp?$AAy?$AA_?$AAs?$AA?$CI?$AAl?$AAo?$AAc?$AAa?$AAl?$AAe?$AAN?$AAa?$AAm?$AAe?$AAO?$AAu?$AAt?$AAp?$AAu?$AAt?$AA?0?$AA?5?$AAl?$AAo?$AAc?$AAa@ 00581ea8     LIBCMTD:wsetloca.obj
 0002:0001bf58       ??_C@_1BEK@OJDMMIMP@?$AAw?$AAc?$AAs?$AAn?$AAc?$AAp?$AAy?$AA_?$AAs?$AA?$CI?$AA_?$AAp?$AAs?$AAe?$AAt?$AAl?$AAo?$AAc?$AA_?$AAd?$AAa?$AAt?$AAa?$AA?9?$AA?$DO?$AA_?$AAc?$AAa?$AAc?$AAh?$AAe?$AAL@ 00581f58     LIBCMTD:wsetloca.obj
 0002:0001c0a8       ??_C@_1BGG@FCLLNAOE@?$AAw?$AAc?$AAs?$AAn?$AAc?$AAp?$AAy?$AA_?$AAs?$AA?$CI?$AA_?$AAp?$AAs?$AAe?$AAt?$AAl?$AAo?$AAc?$AA_?$AAd?$AAa?$AAt?$AAa?$AA?9?$AA?$DO?$AA_?$AAc?$AAa?$AAc?$AAh?$AAe?$AAL@ 005820a8     LIBCMTD:wsetloca.obj
 0002:0001c210       ??_C@_1IC@FCCDBGLL@?$AAw?$AAc?$AAs?$AAn?$AAc?$AAp?$AAy?$AA_?$AAs?$AA?$CI?$AAc?$AAa?$AAc?$AAh?$AAe?$AAi?$AAn?$AA?0?$AA?5?$AAc?$AAa?$AAc?$AAh?$AAe?$AAi?$AAn?$AAL?$AAe?$AAn?$AA?0?$AA?5?$AAe@ 00582210     LIBCMTD:wsetloca.obj
 0002:0001c298       ??_C@_1FA@HOOAAHFF@?$AAw?$AAc?$AAs?$AAc?$AAp?$AAy?$AA_?$AAs?$AA?$CI?$AAo?$AAu?$AAt?$AAp?$AAu?$AAt?$AA?0?$AA?5?$AAs?$AAi?$AAz?$AAe?$AAI?$AAn?$AAC?$AAh?$AAa?$AAr?$AAs?$AA?0?$AA?5?$AAc?$AAa@ 00582298     LIBCMTD:wsetloca.obj
 0002:0001c2e8       ??_C@_1BC@LEOKFFML@?$AA_?$AAw?$AAc?$AAs?$AAc?$AAa?$AAt?$AAs?$AA?$AA@ 005822e8     LIBCMTD:wsetloca.obj
 0002:0001c300       ??_C@_1BII@IONPPCCF@?$AAw?$AAc?$AAs?$AAc?$AAa?$AAt?$AA_?$AAs?$AA?$CI?$AAo?$AAu?$AAt?$AAs?$AAt?$AAr?$AA?0?$AA?5?$AAn?$AAu?$AAm?$AAb?$AAe?$AAr?$AAO?$AAf?$AAE?$AAl?$AAe?$AAm?$AAe?$AAn?$AAt@ 00582300     LIBCMTD:wsetloca.obj
 0002:0001c488       ??_C@_1BK@GNCHCGCN@?$AA_?$AA_?$AAl?$AAc?$AA_?$AAw?$AAc?$AAs?$AAt?$AAo?$AAl?$AAc?$AA?$AA@ 00582488     LIBCMTD:wsetloca.obj
 0002:0001c4a8       ??_C@_1NI@NELJHJBO@?$AAw?$AAc?$AAs?$AAn?$AAc?$AAp?$AAy?$AA_?$AAs?$AA?$CI?$AAn?$AAa?$AAm?$AAe?$AAs?$AA?9?$AA?$DO?$AAs?$AAz?$AAC?$AAo?$AAd?$AAe?$AAP?$AAa?$AAg?$AAe?$AA?0?$AA?5?$AA?$CI?$AAs?$AAi@ 005824a8     LIBCMTD:wsetloca.obj
 0002:0001c580       ??_C@_17MBJJLFDM@?$AA_?$AA?4?$AA?0?$AA?$AA@ 00582580     LIBCMTD:wsetloca.obj
 0002:0001c588       ??_C@_1MO@PBGOIBFL@?$AAw?$AAc?$AAs?$AAn?$AAc?$AAp?$AAy?$AA_?$AAs?$AA?$CI?$AAn?$AAa?$AAm?$AAe?$AAs?$AA?9?$AA?$DO?$AAs?$AAz?$AAL?$AAa?$AAn?$AAg?$AAu?$AAa?$AAg?$AAe?$AA?0?$AA?5?$AA?$CI?$AAs?$AAi@ 00582588     LIBCMTD:wsetloca.obj
 0002:0001c658       ??_C@_1MI@CLMFNAAJ@?$AAw?$AAc?$AAs?$AAn?$AAc?$AAp?$AAy?$AA_?$AAs?$AA?$CI?$AAn?$AAa?$AAm?$AAe?$AAs?$AA?9?$AA?$DO?$AAs?$AAz?$AAC?$AAo?$AAu?$AAn?$AAt?$AAr?$AAy?$AA?0?$AA?5?$AA?$CI?$AAs?$AAi?$AAz@ 00582658     LIBCMTD:wsetloca.obj
 0002:0001c720       ??_C@_1MO@NBFBMKCB@?$AAw?$AAc?$AAs?$AAn?$AAc?$AAp?$AAy?$AA_?$AAs?$AA?$CI?$AAn?$AAa?$AAm?$AAe?$AAs?$AA?9?$AA?$DO?$AAs?$AAz?$AAC?$AAo?$AAd?$AAe?$AAP?$AAa?$AAg?$AAe?$AA?0?$AA?5?$AA?$CI?$AAs?$AAi@ 00582720     LIBCMTD:wsetloca.obj
 0002:0001c7f0       ??_C@_1BK@HEBMGPEK@?$AA_?$AA_?$AAl?$AAc?$AA_?$AAl?$AAc?$AAt?$AAo?$AAw?$AAc?$AAs?$AA?$AA@ 005827f0     LIBCMTD:wsetloca.obj
 0002:0001c810       ??_C@_1GM@FOFMGOEK@?$AAw?$AAc?$AAs?$AAc?$AAp?$AAy?$AA_?$AAs?$AA?$CI?$AAl?$AAo?$AAc?$AAa?$AAl?$AAe?$AA?0?$AA?5?$AAn?$AAu?$AAm?$AAb?$AAe?$AAr?$AAO?$AAf?$AAE?$AAl?$AAe?$AAm?$AAe?$AAn?$AAt@ 00582810     LIBCMTD:wsetloca.obj
 0002:0001c87c       ??_C@_13ENNFDPBH@?$AA_?$AA?$AA@ 0058287c     LIBCMTD:wsetloca.obj
 0002:0001c880       ??_C@_13JOFGPIOO@?$AA?4?$AA?$AA@ 00582880     LIBCMTD:wsetloca.obj
 0002:0001c884       ??_C@_1CG@HCGEAFEA@?$AA_?$AA_?$AAc?$AAo?$AAp?$AAy?$AA_?$AAl?$AAo?$AAc?$AAa?$AAl?$AAe?$AA_?$AAn?$AAa?$AAm?$AAe?$AA?$AA@ 00582884     LIBCMTD:wsetloca.obj
 0002:0001c8b0       ??_C@_1GI@HBNMCKGD@?$AAw?$AAc?$AAs?$AAn?$AAc?$AAp?$AAy?$AA_?$AAs?$AA?$CI?$AAl?$AAo?$AAc?$AAa?$AAl?$AAe?$AAN?$AAa?$AAm?$AAe?$AAC?$AAo?$AAp?$AAy?$AA?0?$AA?5?$AAc?$AAc?$AAh?$AA?$CL?$AA1?$AA?0@ 005828b0     LIBCMTD:wsetloca.obj
 0002:0001c918       ??_C@_1DO@MBOKMJPK@?$AAn?$AAF?$AAl?$AAo?$AAa?$AAt?$AAS?$AAt?$AAr?$AAU?$AAs?$AAe?$AAd?$AA?$DM?$AA?$DN?$AA?$CI?$AA?$CK?$AAp?$AAn?$AAF?$AAl?$AAo?$AAa?$AAt?$AAS?$AAt?$AAr?$AAS?$AAz?$AA?$CJ?$AA?$AA@ 00582918     LIBCMTD:input.obj
 0002:0001c958       ??_C@_1EO@KHEPNMPN@?$AAf?$AA?3?$AA?2?$AAd?$AAd?$AA?2?$AAv?$AAc?$AAt?$AAo?$AAo?$AAl?$AAs?$AA?2?$AAc?$AAr?$AAt?$AA?2?$AAc?$AAr?$AAt?$AAw?$AA3?$AA2?$AA?2?$AAs?$AAt?$AAd?$AAi?$AAo?$AA?2?$AAi@ 00582958     LIBCMTD:input.obj
 0002:0001c9a8       ??_C@_0CH@IOLKKJMC@f?3?2dd?2vctools?2crt?2crtw32?2stdio?2i@ 005829a8     LIBCMTD:input.obj
 0002:0001c9d0       ??_C@_1BC@MJNBEDIJ@?$AA_?$AAi?$AAn?$AAp?$AAu?$AAt?$AA_?$AAl?$AA?$AA@ 005829d0     LIBCMTD:input.obj
 0002:0001c9e4       ??_C@_1BG@LBKFJFHM@?$AA_?$AAi?$AAn?$AAp?$AAu?$AAt?$AA_?$AAs?$AA_?$AAl?$AA?$AA@ 005829e4     LIBCMTD:inputs.obj
 0002:0001c9fc       ??_C@_1DG@MPPGJOHD@?$AA?$CI?$AA?$CC?$AAI?$AAn?$AAv?$AAa?$AAl?$AAi?$AAd?$AA?5?$AAI?$AAn?$AAp?$AAu?$AAt?$AA?5?$AAF?$AAo?$AAr?$AAm?$AAa?$AAt?$AA?$CC?$AA?0?$AA0?$AA?$CJ?$AA?$AA@ 005829fc     LIBCMTD:inputs.obj
 0002:0001ca38       ??_C@_1FC@OBEHAONE@?$AAf?$AA?3?$AA?2?$AAd?$AAd?$AA?2?$AAv?$AAc?$AAt?$AAo?$AAo?$AAl?$AAs?$AA?2?$AAc?$AAr?$AAt?$AA?2?$AAc?$AAr?$AAt?$AAw?$AA3?$AA2?$AA?2?$AAs?$AAt?$AAd?$AAi?$AAo?$AA?2?$AA_@ 00582a38     LIBCMTD:_flsbuf.obj
 0002:0001ca90       ??_C@_1HO@MLMGPAFH@?$AA?$CI?$AA?$CC?$AAi?$AAn?$AAc?$AAo?$AAn?$AAs?$AAi?$AAs?$AAt?$AAe?$AAn?$AAt?$AA?5?$AAI?$AAO?$AAB?$AA?5?$AAf?$AAi?$AAe?$AAl?$AAd?$AAs?$AA?$CC?$AA?0?$AA?5?$AAs?$AAt?$AAr?$AAe@ 00582a90     LIBCMTD:_flsbuf.obj
 0002:0001cb10       ??_C@_06OJHGLDPL@?$CInull?$CJ?$AA@ 00582b10     LIBCMTD:output.obj
 0002:0001cb18       ??_C@_1O@CEDCILHN@?$AA?$CI?$AAn?$AAu?$AAl?$AAl?$AA?$CJ?$AA?$AA@ 00582b18     LIBCMTD:output.obj
 0002:0001cb28       ___lookuptable             00582b28     LIBCMTD:output.obj
 0002:0001cb88       ??_C@_1FA@KMIJDCIC@?$AAf?$AA?3?$AA?2?$AAd?$AAd?$AA?2?$AAv?$AAc?$AAt?$AAo?$AAo?$AAl?$AAs?$AA?2?$AAc?$AAr?$AAt?$AA?2?$AAc?$AAr?$AAt?$AAw?$AA3?$AA2?$AA?2?$AAs?$AAt?$AAd?$AAi?$AAo?$AA?2?$AAo@ 00582b88     LIBCMTD:output.obj
 0002:0001cbd8       ??_C@_1BE@IONLIDNC@?$AA_?$AAo?$AAu?$AAt?$AAp?$AAu?$AAt?$AA_?$AAl?$AA?$AA@ 00582bd8     LIBCMTD:output.obj
 0002:0001cbec       ??_C@_1CC@IFFHEMNF@?$AA?$CI?$AAc?$AAh?$AA?5?$AA?$CB?$AA?$DN?$AA?5?$AA_?$AAT?$AA?$CI?$AA?8?$AA?2?$AA0?$AA?8?$AA?$CJ?$AA?$CJ?$AA?$AA@ 00582bec     LIBCMTD:output.obj
 0002:0001cc10       ??_C@_1EK@PNGFDECN@?$AA?$CI?$AA?$CC?$AA?8?$AAn?$AA?8?$AA?5?$AAf?$AAo?$AAr?$AAm?$AAa?$AAt?$AA?5?$AAs?$AAp?$AAe?$AAc?$AAi?$AAf?$AAi?$AAe?$AAr?$AA?5?$AAd?$AAi?$AAs?$AAa?$AAb?$AAl?$AAe?$AAd?$AA?$CC@ 00582c10     LIBCMTD:output.obj
 0002:0001cc5c       ??_C@_0CI@CMOPBIOD@f?3?2dd?2vctools?2crt?2crtw32?2stdio?2o@ 00582c5c     LIBCMTD:output.obj
 0002:0001cc84       ??_C@_1BI@IGILPKD@?$AA_?$AAv?$AAs?$AAp?$AAr?$AAi?$AAn?$AAt?$AAf?$AA_?$AAl?$AA?$AA@ 00582c84     LIBCMTD:vsprintf.obj
 0002:0001cc9c       ??_C@_1CE@HMKDJHB@?$AA_?$AAv?$AAs?$AAc?$AAp?$AAr?$AAi?$AAn?$AAt?$AAf?$AA_?$AAh?$AAe?$AAl?$AAp?$AAe?$AAr?$AA?$AA@ 00582c9c     LIBCMTD:vsprintf.obj
 0002:0001ccc0       ??_C@_1CE@PCFPEIFI@?$AA_?$AAv?$AAs?$AAn?$AAp?$AAr?$AAi?$AAn?$AAt?$AAf?$AA_?$AAh?$AAe?$AAl?$AAp?$AAe?$AAr?$AA?$AA@ 00582cc0     LIBCMTD:vsnprnc.obj
 0002:0001cce4       ??_C@_1BO@MLMCMBKN@?$AAf?$AAo?$AAr?$AAm?$AAa?$AAt?$AA?5?$AA?$CB?$AA?$DN?$AA?5?$AAN?$AAU?$AAL?$AAL?$AA?$AA@ 00582ce4     LIBCMTD:vsnprnc.obj
 0002:0001cd04       ??_C@_1BM@BLJALHEF@?$AA_?$AAv?$AAs?$AAp?$AAr?$AAi?$AAn?$AAt?$AAf?$AA_?$AAs?$AA_?$AAl?$AA?$AA@ 00582d04     LIBCMTD:vsnprnc.obj
 0002:0001cd20       ??_C@_1EE@OKCKIGFK@?$AAs?$AAt?$AAr?$AAi?$AAn?$AAg?$AA?5?$AA?$CB?$AA?$DN?$AA?5?$AAN?$AAU?$AAL?$AAL?$AA?5?$AA?$CG?$AA?$CG?$AA?5?$AAs?$AAi?$AAz?$AAe?$AAI?$AAn?$AAB?$AAy?$AAt?$AAe?$AAs?$AA?5?$AA?$DO?$AA?5@ 00582d20     LIBCMTD:vsnprnc.obj
 0002:0001cd64       ??_C@_1DA@HPBFKMEB@?$AA?$CI?$AA?$CC?$AAB?$AAu?$AAf?$AAf?$AAe?$AAr?$AA?5?$AAt?$AAo?$AAo?$AA?5?$AAs?$AAm?$AAa?$AAl?$AAl?$AA?$CC?$AA?0?$AA?5?$AA0?$AA?$CJ?$AA?$AA@ 00582d64     LIBCMTD:vsnprnc.obj
 0002:0001cd94       ??_C@_1BO@MMPELNIM@?$AA_?$AAv?$AAs?$AAn?$AAp?$AAr?$AAi?$AAn?$AAt?$AAf?$AA_?$AAs?$AA_?$AAl?$AA?$AA@ 00582d94     LIBCMTD:vsnprnc.obj
 0002:0001cdb8       ??_C@_1FG@COJCEIPE@?$AAf?$AA?3?$AA?2?$AAd?$AAd?$AA?2?$AAv?$AAc?$AAt?$AAo?$AAo?$AAl?$AAs?$AA?2?$AAc?$AAr?$AAt?$AA?2?$AAc?$AAr?$AAt?$AAw?$AA3?$AA2?$AA?2?$AAs?$AAt?$AAr?$AAi?$AAn?$AAg?$AA?2@ 00582db8     LIBCMTD:memcpy_s.obj
 0002:0001ce10       ??_C@_1BC@GKHDJMGB@?$AAm?$AAe?$AAm?$AAc?$AAp?$AAy?$AA_?$AAs?$AA?$AA@ 00582e10     LIBCMTD:memcpy_s.obj
 0002:0001ce24       ??_C@_1CK@DDKKOLAN@?$AAs?$AAi?$AAz?$AAe?$AAI?$AAn?$AAB?$AAy?$AAt?$AAe?$AAs?$AA?5?$AA?$DO?$AA?$DN?$AA?5?$AAc?$AAo?$AAu?$AAn?$AAt?$AA?$AA@ 00582e24     LIBCMTD:memcpy_s.obj
 0002:0001ce50       ??_C@_1FC@PFMLEHKI@?$AA?$CI?$AA?$CI?$AA_?$AAD?$AAs?$AAt?$AA?$CJ?$AA?$CJ?$AA?5?$AA?$CB?$AA?$DN?$AA?5?$AAN?$AAU?$AAL?$AAL?$AA?5?$AA?$CG?$AA?$CG?$AA?5?$AA?$CI?$AA?$CI?$AA_?$AAS?$AAi?$AAz?$AAe?$AAI?$AAn?$AAW?$AAo?$AAr@ 00582e50     LIBCMTD:wcscpy_s.obj
 0002:0001cea4       ??_C@_1BC@KIONAFPO@?$AAw?$AAc?$AAs?$AAc?$AAp?$AAy?$AA_?$AAs?$AA?$AA@ 00582ea4     LIBCMTD:wcscpy_s.obj
 0002:0001ceb8       ??_C@_1FE@HMGHELF@?$AAf?$AA?3?$AA?2?$AAd?$AAd?$AA?2?$AAv?$AAc?$AAt?$AAo?$AAo?$AAl?$AAs?$AA?2?$AAc?$AAr?$AAt?$AA?2?$AAc?$AAr?$AAt?$AAw?$AA3?$AA2?$AA?2?$AAs?$AAt?$AAd?$AAi?$AAo?$AA?2?$AAs@ 00582eb8     LIBCMTD:swprintf.obj
 0002:0001cf0c       ??_C@_1BE@BMIJMLDD@?$AA_?$AAs?$AAw?$AAp?$AAr?$AAi?$AAn?$AAt?$AAf?$AA?$AA@ 00582f0c     LIBCMTD:swprintf.obj
 0002:0001cf20       ??_C@_0CH@KINPIPGE@f?3?2dd?2vctools?2crt?2crtw32?2misc?2wi@ 00582f20     LIBCMTD:winsig.obj
 0002:0001cf48       ??_C@_1DO@MLNEDKGB@?$AA?$CI?$AA?$CC?$AAI?$AAn?$AAv?$AAa?$AAl?$AAi?$AAd?$AA?5?$AAs?$AAi?$AAg?$AAn?$AAa?$AAl?$AA?5?$AAo?$AAr?$AA?5?$AAe?$AAr?$AAr?$AAo?$AAr?$AA?$CC?$AA?0?$AA?5?$AA0?$AA?$CJ?$AA?$AA@ 00582f48     LIBCMTD:winsig.obj
 0002:0001cf88       ??_C@_1EO@BCKLPCCI@?$AAf?$AA?3?$AA?2?$AAd?$AAd?$AA?2?$AAv?$AAc?$AAt?$AAo?$AAo?$AAl?$AAs?$AA?2?$AAc?$AAr?$AAt?$AA?2?$AAc?$AAr?$AAt?$AAw?$AA3?$AA2?$AA?2?$AAm?$AAi?$AAs?$AAc?$AA?2?$AAw?$AAi@ 00582f88     LIBCMTD:winsig.obj
 0002:0001cfd8       ??_C@_1O@EJLDHPPL@?$AAs?$AAi?$AAg?$AAn?$AAa?$AAl?$AA?$AA@ 00582fd8     LIBCMTD:winsig.obj
 0002:0001cfe8       ??_C@_1M@DMJEIKHL@?$AAr?$AAa?$AAi?$AAs?$AAe?$AA?$AA@ 00582fe8     LIBCMTD:winsig.obj
 0002:0001cff4       ??_C@_1BG@GOEBHBDC@?$AAU?$AAS?$AAE?$AAR?$AA3?$AA2?$AA?4?$AAD?$AAL?$AAL?$AA?$AA@ 00582ff4     LIBCMTD:crtmboxw.obj
 0002:0001d00c       ??_C@_0M@DLDCCGNP@MessageBoxW?$AA@ 0058300c     LIBCMTD:crtmboxw.obj
 0002:0001d018       ??_C@_0BA@HNOPNCHB@GetActiveWindow?$AA@ 00583018     LIBCMTD:crtmboxw.obj
 0002:0001d028       ??_C@_0BD@HHGDFDBJ@GetLastActivePopup?$AA@ 00583028     LIBCMTD:crtmboxw.obj
 0002:0001d03c       ??_C@_0BK@DEKFELLI@GetUserObjectInformationW?$AA@ 0058303c     LIBCMTD:crtmboxw.obj
 0002:0001d058       ??_C@_0BI@DFKBFLJE@GetProcessWindowStation?$AA@ 00583058     LIBCMTD:crtmboxw.obj
 0002:0001d070       ??_C@_1FA@IFFFOLDJ@?$AAn?$AAR?$AAp?$AAt?$AAT?$AAy?$AAp?$AAe?$AA?5?$AA?$DO?$AA?$DN?$AA?5?$AA0?$AA?5?$AA?$CG?$AA?$CG?$AA?5?$AAn?$AAR?$AAp?$AAt?$AAT?$AAy?$AAp?$AAe?$AA?5?$AA?$DM?$AA?5?$AA_?$AAC?$AAR?$AAT@ 00583070     LIBCMTD:dbgrptt.obj
 0002:0001d0c0       ??_C@_1FA@PPLJBGMP@?$AAf?$AA?3?$AA?2?$AAd?$AAd?$AA?2?$AAv?$AAc?$AAt?$AAo?$AAo?$AAl?$AAs?$AA?2?$AAc?$AAr?$AAt?$AA?2?$AAc?$AAr?$AAt?$AAw?$AA3?$AA2?$AA?2?$AAm?$AAi?$AAs?$AAc?$AA?2?$AAd?$AAb@ 005830c0     LIBCMTD:dbgrptt.obj
 0002:0001d110       ??_C@_1CE@FIHIECNJ@?$AA_?$AAC?$AAr?$AAt?$AAS?$AAe?$AAt?$AAR?$AAe?$AAp?$AAo?$AAr?$AAt?$AAM?$AAo?$AAd?$AAe?$AA?$AA@ 00583110     LIBCMTD:dbgrptt.obj
 0002:0001d138       ??_C@_1NK@LOFHIHFC@?$AAf?$AAM?$AAo?$AAd?$AAe?$AA?5?$AA?$DN?$AA?$DN?$AA?5?$AA_?$AAC?$AAR?$AAT?$AAD?$AAB?$AAG?$AA_?$AAR?$AAE?$AAP?$AAO?$AAR?$AAT?$AA_?$AAM?$AAO?$AAD?$AAE?$AA?5?$AA?$HM?$AA?$HM?$AA?5@ 00583138     LIBCMTD:dbgrptt.obj
 0002:0001d214       ??_C@_1CE@IKKEDCME@?$AA_?$AAC?$AAr?$AAt?$AAS?$AAe?$AAt?$AAR?$AAe?$AAp?$AAo?$AAr?$AAt?$AAF?$AAi?$AAl?$AAe?$AA?$AA@ 00583214     LIBCMTD:dbgrptt.obj
 0002:0001d238       ??_C@_1CA@KHJHLKA@?$AA_?$AAV?$AAC?$AAr?$AAt?$AAD?$AAb?$AAg?$AAR?$AAe?$AAp?$AAo?$AAr?$AAt?$AAA?$AA?$AA@ 00583238     LIBCMTD:dbgrptt.obj
 0002:0001d258       ??_C@_1FA@JPHJBHEM@?$AA_?$AAi?$AAt?$AAo?$AAa?$AA_?$AAs?$AA?$CI?$AAn?$AAL?$AAi?$AAn?$AAe?$AA?0?$AA?5?$AAs?$AAz?$AAL?$AAi?$AAn?$AAe?$AAM?$AAe?$AAs?$AAs?$AAa?$AAg?$AAe?$AA?0?$AA?5?$AA4?$AA0@ 00583258     LIBCMTD:dbgrptt.obj
 0002:0001d2a8       ??_C@_0CG@BNGLOCEO@Second?5Chance?5Assertion?5Failed?3?5@ 005832a8     LIBCMTD:dbgrptt.obj
 0002:0001d2d0       ??_C@_0P@DFJNDPOP@?$DMfile?5unknown?$DO?$AA@ 005832d0     LIBCMTD:dbgrptt.obj
 0002:0001d2e0       ??_C@_07BHGABMGB@?0?5Line?5?$AA@ 005832e0     LIBCMTD:dbgrptt.obj
 0002:0001d2e8       ??_C@_1JI@GAALPGBM@?$AAs?$AAt?$AAr?$AAc?$AAp?$AAy?$AA_?$AAs?$AA?$CI?$AAs?$AAz?$AAU?$AAs?$AAe?$AAr?$AAM?$AAe?$AAs?$AAs?$AAa?$AAg?$AAe?$AA?0?$AA?5?$AA4?$AA0?$AA9?$AA6?$AA?0?$AA?5?$AA?$CC?$AA_@ 005832e8     LIBCMTD:dbgrptt.obj
 0002:0001d380       ??_C@_0CL@EACFGMNB@_CrtDbgReport?3?5String?5too?5long?5o@ 00583380     LIBCMTD:dbgrptt.obj
 0002:0001d3b0       ??_C@_1KK@GIGAEDMO@?$AAs?$AAt?$AAr?$AAc?$AAp?$AAy?$AA_?$AAs?$AA?$CI?$AAs?$AAz?$AAL?$AAi?$AAn?$AAe?$AAM?$AAe?$AAs?$AAs?$AAa?$AAg?$AAe?$AA?0?$AA?5?$AA4?$AA0?$AA9?$AA6?$AA?0?$AA?5?$AAs?$AAz@ 005833b0     LIBCMTD:dbgrptt.obj
 0002:0001d45c       ??_C@_0BD@CAENFOHP@Assertion?5failed?3?5?$AA@ 0058345c     LIBCMTD:dbgrptt.obj
 0002:0001d470       ??_C@_0BC@LAIDCHCH@Assertion?5failed?$CB?$AA@ 00583470     LIBCMTD:dbgrptt.obj
 0002:0001d488       ??_C@_1FK@NPGBPOFO@?$AAs?$AAt?$AAr?$AAc?$AAa?$AAt?$AA_?$AAs?$AA?$CI?$AAs?$AAz?$AAL?$AAi?$AAn?$AAe?$AAM?$AAe?$AAs?$AAs?$AAa?$AAg?$AAe?$AA?0?$AA?5?$AA4?$AA0?$AA9?$AA6?$AA?0?$AA?5?$AAs?$AAz@ 00583488     LIBCMTD:dbgrptt.obj
 0002:0001d4e8       ??_C@_1EI@CACDLAFK@?$AAs?$AAt?$AAr?$AAc?$AAa?$AAt?$AA_?$AAs?$AA?$CI?$AAs?$AAz?$AAL?$AAi?$AAn?$AAe?$AAM?$AAe?$AAs?$AAs?$AAa?$AAg?$AAe?$AA?0?$AA?5?$AA4?$AA0?$AA9?$AA6?$AA?0?$AA?5?$AA?$CC?$AA?2@ 005834e8     LIBCMTD:dbgrptt.obj
 0002:0001d530       ??_C@_01LIIJDEN@?$AN?$AA@  00583530     LIBCMTD:dbgrptt.obj
 0002:0001d538       ??_C@_1EI@LDHJEDO@?$AAs?$AAt?$AAr?$AAc?$AAa?$AAt?$AA_?$AAs?$AA?$CI?$AAs?$AAz?$AAL?$AAi?$AAn?$AAe?$AAM?$AAe?$AAs?$AAs?$AAa?$AAg?$AAe?$AA?0?$AA?5?$AA4?$AA0?$AA9?$AA6?$AA?0?$AA?5?$AA?$CC?$AA?2@ 00583538     LIBCMTD:dbgrptt.obj
 0002:0001d580       ??_C@_0M@IPILFDFN@?$CFs?$CI?$CFd?$CJ?5?3?5?$CFs?$AA@ 00583580     LIBCMTD:dbgrptt.obj
 0002:0001d590       ??_C@_1JG@CPKCIOEE@?$AAs?$AAt?$AAr?$AAc?$AAp?$AAy?$AA_?$AAs?$AA?$CI?$AAs?$AAz?$AAO?$AAu?$AAt?$AAM?$AAe?$AAs?$AAs?$AAa?$AAg?$AAe?$AA?0?$AA?5?$AA4?$AA0?$AA9?$AA6?$AA?0?$AA?5?$AA?$CC?$AA_?$AAC@ 00583590     LIBCMTD:dbgrptt.obj
 0002:0001d628       ??_C@_1FI@IBIOIHEG@?$AAs?$AAt?$AAr?$AAc?$AAp?$AAy?$AA_?$AAs?$AA?$CI?$AAs?$AAz?$AAO?$AAu?$AAt?$AAM?$AAe?$AAs?$AAs?$AAa?$AAg?$AAe?$AA?0?$AA?5?$AA4?$AA0?$AA9?$AA6?$AA?0?$AA?5?$AAs?$AAz?$AAL@ 00583628     LIBCMTD:dbgrptt.obj
 0002:0001d680       ??_C@_1IM@OOKIFKOH@?$AAe?$AA?5?$AA?$DN?$AA?5?$AAm?$AAb?$AAs?$AAt?$AAo?$AAw?$AAc?$AAs?$AA_?$AAs?$AA?$CI?$AA?$CG?$AAr?$AAe?$AAt?$AA?0?$AA?5?$AAs?$AAz?$AAO?$AAu?$AAt?$AAM?$AAe?$AAs?$AAs?$AAa?$AAg@ 00583680     LIBCMTD:dbgrptt.obj
 0002:0001d710       ??_C@_1MC@IGEECMDB@?$AAw?$AAc?$AAs?$AAc?$AAp?$AAy?$AA_?$AAs?$AA?$CI?$AAs?$AAz?$AAO?$AAu?$AAt?$AAM?$AAe?$AAs?$AAs?$AAa?$AAg?$AAe?$AA2?$AA?0?$AA?5?$AA4?$AA0?$AA9?$AA6?$AA?0?$AA?5?$AAL?$AA?$CC@ 00583710     LIBCMTD:dbgrptt.obj
 0002:0001d7d8       ??_C@_1HO@PJOFIKFE@?$AA_?$AAC?$AAr?$AAt?$AAD?$AAb?$AAg?$AAR?$AAe?$AAp?$AAo?$AAr?$AAt?$AA?3?$AA?5?$AAS?$AAt?$AAr?$AAi?$AAn?$AAg?$AA?5?$AAt?$AAo?$AAo?$AA?5?$AAl?$AAo?$AAn?$AAg?$AA?5?$AAo@ 005837d8     LIBCMTD:dbgrptt.obj
 0002:0001d858       ??_C@_1CA@HPALHDOD@?$AA_?$AAV?$AAC?$AAr?$AAt?$AAD?$AAb?$AAg?$AAR?$AAe?$AAp?$AAo?$AAr?$AAt?$AAW?$AA?$AA@ 00583858     LIBCMTD:dbgrptt.obj
 0002:0001d878       ??_C@_1FA@CNLLOMHI@?$AA_?$AAi?$AAt?$AAo?$AAw?$AA_?$AAs?$AA?$CI?$AAn?$AAL?$AAi?$AAn?$AAe?$AA?0?$AA?5?$AAs?$AAz?$AAL?$AAi?$AAn?$AAe?$AAM?$AAe?$AAs?$AAs?$AAa?$AAg?$AAe?$AA?0?$AA?5?$AA4?$AA0@ 00583878     LIBCMTD:dbgrptt.obj
 0002:0001d8c8       ??_C@_1EM@MJFLEDMB@?$AAS?$AAe?$AAc?$AAo?$AAn?$AAd?$AA?5?$AAC?$AAh?$AAa?$AAn?$AAc?$AAe?$AA?5?$AAA?$AAs?$AAs?$AAe?$AAr?$AAt?$AAi?$AAo?$AAn?$AA?5?$AAF?$AAa?$AAi?$AAl?$AAe?$AAd?$AA?3?$AA?5@ 005838c8     LIBCMTD:dbgrptt.obj
 0002:0001d914       ??_C@_1BO@OCHMLCAG@?$AA?$DM?$AAf?$AAi?$AAl?$AAe?$AA?5?$AAu?$AAn?$AAk?$AAn?$AAo?$AAw?$AAn?$AA?$DO?$AA?$AA@ 00583914     LIBCMTD:dbgrptt.obj
 0002:0001d934       ??_C@_1BA@ELMMDCFC@?$AA?0?$AA?5?$AAL?$AAi?$AAn?$AAe?$AA?5?$AA?$AA@ 00583934     LIBCMTD:dbgrptt.obj
 0002:0001d948       ??_C@_1JK@KHFABAEO@?$AAw?$AAc?$AAs?$AAc?$AAp?$AAy?$AA_?$AAs?$AA?$CI?$AAs?$AAz?$AAU?$AAs?$AAe?$AAr?$AAM?$AAe?$AAs?$AAs?$AAa?$AAg?$AAe?$AA?0?$AA?5?$AA4?$AA0?$AA9?$AA6?$AA?0?$AA?5?$AAL?$AA?$CC@ 00583948     LIBCMTD:dbgrptt.obj
 0002:0001d9e8       ??_C@_1KO@DGAHENCH@?$AAw?$AAc?$AAs?$AAc?$AAp?$AAy?$AA_?$AAs?$AA?$CI?$AAs?$AAz?$AAL?$AAi?$AAn?$AAe?$AAM?$AAe?$AAs?$AAs?$AAa?$AAg?$AAe?$AA?0?$AA?5?$AA4?$AA0?$AA9?$AA6?$AA?0?$AA?5?$AAs?$AAz@ 005839e8     LIBCMTD:dbgrptt.obj
 0002:0001da98       ??_C@_1CG@FFFGGODN@?$AAA?$AAs?$AAs?$AAe?$AAr?$AAt?$AAi?$AAo?$AAn?$AA?5?$AAf?$AAa?$AAi?$AAl?$AAe?$AAd?$AA?3?$AA?5?$AA?$AA@ 00583a98     LIBCMTD:dbgrptt.obj
 0002:0001dac0       ??_C@_1FK@HPADHBBD@?$AAw?$AAc?$AAs?$AAc?$AAa?$AAt?$AA_?$AAs?$AA?$CI?$AAs?$AAz?$AAL?$AAi?$AAn?$AAe?$AAM?$AAe?$AAs?$AAs?$AAa?$AAg?$AAe?$AA?0?$AA?5?$AA4?$AA0?$AA9?$AA6?$AA?0?$AA?5?$AAs?$AAz@ 00583ac0     LIBCMTD:dbgrptt.obj
 0002:0001db20       ??_C@_1EK@NMDFGHMF@?$AAw?$AAc?$AAs?$AAc?$AAa?$AAt?$AA_?$AAs?$AA?$CI?$AAs?$AAz?$AAL?$AAi?$AAn?$AAe?$AAM?$AAe?$AAs?$AAs?$AAa?$AAg?$AAe?$AA?0?$AA?5?$AA4?$AA0?$AA9?$AA6?$AA?0?$AA?5?$AAL?$AA?$CC@ 00583b20     LIBCMTD:dbgrptt.obj
 0002:0001db6c       ??_C@_13CMNBPIDO@?$AA?$AN?$AA?$AA@ 00583b6c     LIBCMTD:dbgrptt.obj
 0002:0001db70       ??_C@_1EK@PHCBEDKB@?$AAw?$AAc?$AAs?$AAc?$AAa?$AAt?$AA_?$AAs?$AA?$CI?$AAs?$AAz?$AAL?$AAi?$AAn?$AAe?$AAM?$AAe?$AAs?$AAs?$AAa?$AAg?$AAe?$AA?0?$AA?5?$AA4?$AA0?$AA9?$AA6?$AA?0?$AA?5?$AAL?$AA?$CC@ 00583b70     LIBCMTD:dbgrptt.obj
 0002:0001dbbc       ??_C@_1BI@JIDBEPIG@?$AA?$CF?$AAs?$AA?$CI?$AA?$CF?$AAd?$AA?$CJ?$AA?5?$AA?3?$AA?5?$AA?$CF?$AAs?$AA?$AA@ 00583bbc     LIBCMTD:dbgrptt.obj
 0002:0001dbd8       ??_C@_1FI@DBAIJPJE@?$AAw?$AAc?$AAs?$AAc?$AAp?$AAy?$AA_?$AAs?$AA?$CI?$AAs?$AAz?$AAO?$AAu?$AAt?$AAM?$AAe?$AAs?$AAs?$AAa?$AAg?$AAe?$AA?0?$AA?5?$AA4?$AA0?$AA9?$AA6?$AA?0?$AA?5?$AAs?$AAz?$AAL@ 00583bd8     LIBCMTD:dbgrptt.obj
 0002:0001dc30       ??_C@_1JC@EOAPFDLN@?$AAw?$AAc?$AAs?$AAt?$AAo?$AAm?$AAb?$AAs?$AA_?$AAs?$AA?$CI?$AA?$CI?$AA?$CI?$AAv?$AAo?$AAi?$AAd?$AA?5?$AA?$CK?$AA?$CJ?$AA0?$AA?$CJ?$AA?0?$AA?5?$AAs?$AAz?$AAO?$AAu?$AAt?$AAM?$AAe?$AAs@ 00583c30     LIBCMTD:dbgrptt.obj
 0002:0001dcc8       ??_C@_1MA@LBAMNNOB@?$AAs?$AAt?$AAr?$AAc?$AAp?$AAy?$AA_?$AAs?$AA?$CI?$AAs?$AAz?$AAO?$AAu?$AAt?$AAM?$AAe?$AAs?$AAs?$AAa?$AAg?$AAe?$AA2?$AA?0?$AA?5?$AA4?$AA0?$AA9?$AA6?$AA?0?$AA?5?$AA?$CC?$AA_@ 00583cc8     LIBCMTD:dbgrptt.obj
 0002:0001dd88       ??_C@_0DP@GNPEPHJD@_CrtDbgReport?3?5String?5too?5long?5o@ 00583d88     LIBCMTD:dbgrptt.obj
 0002:0001ddc8       ??_C@_1IE@CPGKIAGP@?$AAw?$AAc?$AAs?$AAt?$AAo?$AAm?$AAb?$AAs?$AA_?$AAs?$AA?$CI?$AA?$CG?$AAr?$AAe?$AAt?$AA?0?$AA?5?$AAs?$AAz?$AAa?$AAO?$AAu?$AAt?$AAM?$AAe?$AAs?$AAs?$AAa?$AAg?$AAe?$AA?0?$AA?5@ 00583dc8     LIBCMTD:dbgrptt.obj
 0002:0001de4c       ??_C@_1BC@PLIEPKPJ@?$AAw?$AAc?$AAs?$AAc?$AAa?$AAt?$AA_?$AAs?$AA?$AA@ 00583e4c     LIBCMTD:wcscat_s.obj
 0002:0001de60       ??_C@_1FC@HNAKBBDB@?$AAf?$AA?3?$AA?2?$AAd?$AAd?$AA?2?$AAv?$AAc?$AAt?$AAo?$AAo?$AAl?$AAs?$AA?2?$AAc?$AAr?$AAt?$AA?2?$AAc?$AAr?$AAt?$AAw?$AA3?$AA2?$AA?2?$AAh?$AA?2?$AAt?$AAc?$AAs?$AAn?$AAc@ 00583e60     LIBCMTD:wcsncat_s.obj
 0002:0001deb4       ??_C@_1BE@KPKIKKCF@?$AAw?$AAc?$AAs?$AAn?$AAc?$AAa?$AAt?$AA_?$AAs?$AA?$AA@ 00583eb4     LIBCMTD:wcsncat_s.obj
 0002:0001dec8       ??_C@_1DE@BCNCAIK@?$AA?$CI?$AA?$CC?$AAI?$AAn?$AAv?$AAa?$AAl?$AAi?$AAd?$AA?5?$AAe?$AAr?$AAr?$AAo?$AAr?$AA_?$AAm?$AAo?$AAd?$AAe?$AA?$CC?$AA?0?$AA?5?$AA0?$AA?$CJ?$AA?$AA@ 00583ec8     LIBCMTD:errmode.obj
 0002:0001df00       ??_C@_1FA@PBBGNIFD@?$AAf?$AA?3?$AA?2?$AAd?$AAd?$AA?2?$AAv?$AAc?$AAt?$AAo?$AAo?$AAl?$AAs?$AA?2?$AAc?$AAr?$AAt?$AA?2?$AAc?$AAr?$AAt?$AAw?$AA3?$AA2?$AA?2?$AAm?$AAi?$AAs?$AAc?$AA?2?$AAe?$AAr@ 00583f00     LIBCMTD:errmode.obj
 0002:0001df50       ??_C@_1CA@LFDHAMEM@?$AA_?$AAs?$AAe?$AAt?$AA_?$AAe?$AAr?$AAr?$AAo?$AAr?$AA_?$AAm?$AAo?$AAd?$AAe?$AA?$AA@ 00583f50     LIBCMTD:errmode.obj
 0002:0001df70       ??_C@_1FA@LEFFAILN@?$AAf?$AA?3?$AA?2?$AAd?$AAd?$AA?2?$AAv?$AAc?$AAt?$AAo?$AAo?$AAl?$AAs?$AA?2?$AAc?$AAr?$AAt?$AA?2?$AAc?$AAr?$AAt?$AAw?$AA3?$AA2?$AA?2?$AAc?$AAo?$AAn?$AAv?$AAe?$AAr?$AAt@ 00583f70     LIBCMTD:xtows.obj
 0002:0001dfc0       ??_C@_1O@NCBFODOE@?$AAx?$AAt?$AAo?$AAw?$AA_?$AAs?$AA?$AA@ 00583fc0     LIBCMTD:xtows.obj
 0002:0001dfd0       ??_C@_1FA@MKGGAGEI@?$AAs?$AAi?$AAz?$AAe?$AAI?$AAn?$AAT?$AAC?$AAh?$AAa?$AAr?$AAs?$AA?5?$AA?$DO?$AA?5?$AA?$CI?$AAs?$AAi?$AAz?$AAe?$AA_?$AAt?$AA?$CJ?$AA?$CI?$AAi?$AAs?$AA_?$AAn?$AAe?$AAg?$AA?5?$AA?$DP@ 00583fd0     LIBCMTD:xtows.obj
 0002:0001e020       ??_C@_1DE@PCJGDBBD@?$AA2?$AA?5?$AA?$DM?$AA?$DN?$AA?5?$AAr?$AAa?$AAd?$AAi?$AAx?$AA?5?$AA?$CG?$AA?$CG?$AA?5?$AAr?$AAa?$AAd?$AAi?$AAx?$AA?5?$AA?$DM?$AA?$DN?$AA?5?$AA3?$AA6?$AA?$AA@ 00584020     LIBCMTD:xtows.obj
 0002:0001e054       ??_C@_1CM@HABGDNLJ@?$AAl?$AAe?$AAn?$AAg?$AAt?$AAh?$AA?5?$AA?$DM?$AA?5?$AAs?$AAi?$AAz?$AAe?$AAI?$AAn?$AAT?$AAC?$AAh?$AAa?$AAr?$AAs?$AA?$AA@ 00584054     LIBCMTD:xtows.obj
 0002:0001e080       ??_C@_1BC@HDEJCFPB@?$AAx?$AA6?$AA4?$AAt?$AAo?$AAw?$AA_?$AAs?$AA?$AA@ 00584080     LIBCMTD:xtows.obj
 0002:0001e098       ??_C@_1FE@OFLIMJDE@?$AAf?$AA?3?$AA?2?$AAd?$AAd?$AA?2?$AAv?$AAc?$AAt?$AAo?$AAo?$AAl?$AAs?$AA?2?$AAc?$AAr?$AAt?$AA?2?$AAc?$AAr?$AAt?$AAw?$AA3?$AA2?$AA?2?$AAs?$AAt?$AAd?$AAi?$AAo?$AA?2?$AAf@ 00584098     LIBCMTD:fwprintf.obj
 0002:0001e0ec       ??_C@_1BC@BHLPNJBO@?$AAf?$AAw?$AAp?$AAr?$AAi?$AAn?$AAt?$AAf?$AA?$AA@ 005840ec     LIBCMTD:fwprintf.obj
 0002:0001e100       ??_C@_1FE@DHCMIOFC@?$AAf?$AA?3?$AA?2?$AAd?$AAd?$AA?2?$AAv?$AAc?$AAt?$AAo?$AAo?$AAl?$AAs?$AA?2?$AAc?$AAr?$AAt?$AA?2?$AAc?$AAr?$AAt?$AAw?$AA3?$AA2?$AA?2?$AAs?$AAt?$AAd?$AAi?$AAo?$AA?2?$AAv@ 00584100     LIBCMTD:vswprnc.obj
 0002:0001e154       ??_C@_1CE@IGKFIJFD@?$AA_?$AAv?$AAs?$AAw?$AAp?$AAr?$AAi?$AAn?$AAt?$AAf?$AA_?$AAh?$AAe?$AAl?$AAp?$AAe?$AAr?$AA?$AA@ 00584154     LIBCMTD:vswprnc.obj
 0002:0001e178       ??_C@_1BO@OALHJLCI@?$AA_?$AAv?$AAs?$AAw?$AAp?$AAr?$AAi?$AAn?$AAt?$AAf?$AA_?$AAs?$AA_?$AAl?$AA?$AA@ 00584178     LIBCMTD:vswprnc.obj
 0002:0001e198       ??_C@_1EE@MPCHJFGP@?$AAs?$AAt?$AAr?$AAi?$AAn?$AAg?$AA?5?$AA?$CB?$AA?$DN?$AA?5?$AAN?$AAU?$AAL?$AAL?$AA?5?$AA?$CG?$AA?$CG?$AA?5?$AAs?$AAi?$AAz?$AAe?$AAI?$AAn?$AAW?$AAo?$AAr?$AAd?$AAs?$AA?5?$AA?$DO?$AA?5@ 00584198     LIBCMTD:vswprnc.obj
 0002:0001e1dc       ??_C@_1CA@BKFKMJFF@?$AA_?$AAv?$AAs?$AAn?$AAw?$AAp?$AAr?$AAi?$AAn?$AAt?$AAf?$AA_?$AAs?$AA_?$AAl?$AA?$AA@ 005841dc     LIBCMTD:vswprnc.obj
 0002:0001e1fc       ??_C@_1CI@JELMFMDH@?$AAc?$AA?5?$AA?$DO?$AA?$DN?$AA?5?$AA?9?$AA1?$AA?5?$AA?$CG?$AA?$CG?$AA?5?$AAc?$AA?5?$AA?$DM?$AA?$DN?$AA?5?$AA2?$AA5?$AA5?$AA?$AA@ 005841fc     LIBCMTD:isctype.obj
 0002:0001e228       ??_C@_1FG@IBFIOCOE@?$AAf?$AA?3?$AA?2?$AAd?$AAd?$AA?2?$AAv?$AAc?$AAt?$AAo?$AAo?$AAl?$AAs?$AA?2?$AAc?$AAr?$AAt?$AA?2?$AAc?$AAr?$AAt?$AAw?$AA3?$AA2?$AA?2?$AAc?$AAo?$AAn?$AAv?$AAe?$AAr?$AAt@ 00584228     LIBCMTD:isctype.obj
 0002:0001e280       ??_C@_1FE@JDMNKKN@?$AAf?$AA?3?$AA?2?$AAd?$AAd?$AA?2?$AAv?$AAc?$AAt?$AAo?$AAo?$AAl?$AAs?$AA?2?$AAc?$AAr?$AAt?$AA?2?$AAc?$AAr?$AAt?$AAw?$AA3?$AA2?$AA?2?$AAc?$AAo?$AAn?$AAv?$AAe?$AAr?$AAt@ 00584280     LIBCMTD:strtoq.obj
 0002:0001e2d4       ??_C@_1BA@BMMDEPNE@?$AAs?$AAt?$AAr?$AAt?$AAo?$AAx?$AAq?$AA?$AA@ 005842d4     LIBCMTD:strtoq.obj
 0002:0001e2e4       ___dnames                  005842e4     LIBCMTD:timeset.obj
 0002:0001e2fc       ___mnames                  005842fc     LIBCMTD:timeset.obj
 0002:0001e324       ??_C@_1CI@MKJEHFPG@?$AA?$CI?$AA_?$AAD?$AAa?$AAy?$AAl?$AAi?$AAg?$AAh?$AAt?$AA?5?$AA?$CB?$AA?$DN?$AA?5?$AAN?$AAU?$AAL?$AAL?$AA?$CJ?$AA?$AA@ 00584324     LIBCMTD:timeset.obj
 0002:0001e350       ??_C@_1FA@KOPEOCAM@?$AAf?$AA?3?$AA?2?$AAd?$AAd?$AA?2?$AAv?$AAc?$AAt?$AAo?$AAo?$AAl?$AAs?$AA?2?$AAc?$AAr?$AAt?$AA?2?$AAc?$AAr?$AAt?$AAw?$AA3?$AA2?$AA?2?$AAt?$AAi?$AAm?$AAe?$AA?2?$AAt?$AAi@ 00584350     LIBCMTD:timeset.obj
 0002:0001e3a0       ??_C@_1BM@FIMHBHEB@?$AA_?$AAg?$AAe?$AAt?$AA_?$AAd?$AAa?$AAy?$AAl?$AAi?$AAg?$AAh?$AAt?$AA?$AA@ 005843a0     LIBCMTD:timeset.obj
 0002:0001e3c0       ??_C@_1EC@PKDJPAAB@?$AA?$CI?$AA_?$AAD?$AAa?$AAy?$AAl?$AAi?$AAg?$AAh?$AAt?$AA_?$AAs?$AAa?$AAv?$AAi?$AAn?$AAg?$AAs?$AA_?$AAb?$AAi?$AAa?$AAs?$AA?5?$AA?$CB?$AA?$DN?$AA?5?$AAN?$AAU?$AAL?$AAL?$AA?$CJ@ 005843c0     LIBCMTD:timeset.obj
 0002:0001e404       ??_C@_1BK@EMODDHEE@?$AA_?$AAg?$AAe?$AAt?$AA_?$AAd?$AAs?$AAt?$AAb?$AAi?$AAa?$AAs?$AA?$AA@ 00584404     LIBCMTD:timeset.obj
 0002:0001e420       ??_C@_1CI@PODJJGAL@?$AA?$CI?$AA_?$AAT?$AAi?$AAm?$AAe?$AAz?$AAo?$AAn?$AAe?$AA?5?$AA?$CB?$AA?$DN?$AA?5?$AAN?$AAU?$AAL?$AAL?$AA?$CJ?$AA?$AA@ 00584420     LIBCMTD:timeset.obj
 0002:0001e448       ??_C@_1BM@MGEAKPEJ@?$AA_?$AAg?$AAe?$AAt?$AA_?$AAt?$AAi?$AAm?$AAe?$AAz?$AAo?$AAn?$AAe?$AA?$AA@ 00584448     LIBCMTD:timeset.obj
 0002:0001e468       ??_C@_1KA@POFLNEC@?$AA?$CI?$AA_?$AAB?$AAu?$AAf?$AAf?$AAe?$AAr?$AA?5?$AA?$CB?$AA?$DN?$AA?5?$AAN?$AAU?$AAL?$AAL?$AA?5?$AA?$CG?$AA?$CG?$AA?5?$AA_?$AAS?$AAi?$AAz?$AAe?$AAI?$AAn?$AAB?$AAy?$AAt?$AAe?$AAs@ 00584468     LIBCMTD:timeset.obj
 0002:0001e508       ??_C@_1BI@BHCKCCFA@?$AA_?$AAg?$AAe?$AAt?$AA_?$AAt?$AAz?$AAn?$AAa?$AAm?$AAe?$AA?$AA@ 00584508     LIBCMTD:timeset.obj
 0002:0001e520       ??_C@_1CK@GBKHKEI@?$AA_?$AAR?$AAe?$AAt?$AAu?$AAr?$AAn?$AAV?$AAa?$AAl?$AAu?$AAe?$AA?5?$AA?$CB?$AA?$DN?$AA?5?$AAN?$AAU?$AAL?$AAL?$AA?$AA@ 00584520     LIBCMTD:timeset.obj
 0002:0001e54c       ??_C@_1DG@HLGKANIP@?$AA_?$AAI?$AAn?$AAd?$AAe?$AAx?$AA?5?$AA?$DN?$AA?$DN?$AA?5?$AA0?$AA?5?$AA?$HM?$AA?$HM?$AA?5?$AA_?$AAI?$AAn?$AAd?$AAe?$AAx?$AA?5?$AA?$DN?$AA?$DN?$AA?5?$AA1?$AA?$AA@ 0058454c     LIBCMTD:timeset.obj
 0002:0001e588       ??_C@_1FE@DBCNNJOP@?$AAf?$AA?3?$AA?2?$AAd?$AAd?$AA?2?$AAv?$AAc?$AAt?$AAo?$AAo?$AAl?$AAs?$AA?2?$AAc?$AAr?$AAt?$AA?2?$AAc?$AAr?$AAt?$AAw?$AA3?$AA2?$AA?2?$AAs?$AAt?$AAd?$AAi?$AAo?$AA?2?$AA_@ 00584588     LIBCMTD:_freebuf.obj
 0002:0001e5dc       ??_C@_0CI@CCALCGFN@f?3?2dd?2vctools?2crt?2crtw32?2stdio?2s@ 005845dc     LIBCMTD:stream.obj
 0002:0001e604       ??_C@_0CI@BIOGDJKL@f?3?2dd?2vctools?2crt?2crtw32?2lowio?2i@ 00584604     LIBCMTD:ioinit.obj
 0002:0001e630       ??_C@_1FA@HELGICMG@?$AAf?$AA?3?$AA?2?$AAd?$AAd?$AA?2?$AAv?$AAc?$AAt?$AAo?$AAo?$AAl?$AAs?$AA?2?$AAc?$AAr?$AAt?$AA?2?$AAc?$AAr?$AAt?$AAw?$AA3?$AA2?$AA?2?$AAl?$AAo?$AAw?$AAi?$AAo?$AA?2?$AAc@ 00584630     LIBCMTD:commit.obj
 0002:0001e680       ??_C@_1BA@FLNMBBIM@?$AA_?$AAc?$AAo?$AAm?$AAm?$AAi?$AAt?$AA?$AA@ 00584680     LIBCMTD:commit.obj
 0002:0001e690       ??_C@_1FC@LLDAFLML@?$AAf?$AA?3?$AA?2?$AAd?$AAd?$AA?2?$AAv?$AAc?$AAt?$AAo?$AAo?$AAl?$AAs?$AA?2?$AAc?$AAr?$AAt?$AA?2?$AAc?$AAr?$AAt?$AAw?$AA3?$AA2?$AA?2?$AAs?$AAt?$AAd?$AAi?$AAo?$AA?2?$AAv@ 00584690     LIBCMTD:vprintf.obj
 0002:0001e6e4       ??_C@_1BO@JGFPDJCP@?$AAv?$AAp?$AAr?$AAi?$AAn?$AAt?$AAf?$AA_?$AAh?$AAe?$AAl?$AAp?$AAe?$AAr?$AA?$AA@ 005846e4     LIBCMTD:vprintf.obj
 0002:0001e708       ??_C@_1FC@LKGACDMH@?$AAf?$AA?3?$AA?2?$AAd?$AAd?$AA?2?$AAv?$AAc?$AAt?$AAo?$AAo?$AAl?$AAs?$AA?2?$AAc?$AAr?$AAt?$AA?2?$AAc?$AAr?$AAt?$AAw?$AA3?$AA2?$AA?2?$AAs?$AAt?$AAd?$AAi?$AAo?$AA?2?$AA_@ 00584708     LIBCMTD:_sftbuf.obj
 0002:0001e75c       ??_C@_0CJ@KDJGPIJL@f?3?2dd?2vctools?2crt?2crtw32?2stdio?2_@ 0058475c     LIBCMTD:_sftbuf.obj
 0002:0001e788       ??_C@_1CO@KCKAACMI@?$AAf?$AAl?$AAa?$AAg?$AA?5?$AA?$DN?$AA?$DN?$AA?5?$AA0?$AA?5?$AA?$HM?$AA?$HM?$AA?5?$AAf?$AAl?$AAa?$AAg?$AA?5?$AA?$DN?$AA?$DN?$AA?5?$AA1?$AA?$AA@ 00584788     LIBCMTD:_sftbuf.obj
 0002:0001e7b8       ??_C@_1FE@KNPCCODH@?$AA?$CI?$AA?$CC?$AAC?$AAo?$AAr?$AAr?$AAu?$AAp?$AAt?$AAe?$AAd?$AA?5?$AAp?$AAo?$AAi?$AAn?$AAt?$AAe?$AAr?$AA?5?$AAp?$AAa?$AAs?$AAs?$AAe?$AAd?$AA?5?$AAt?$AAo?$AA?5?$AA_?$AAf@ 005847b8     LIBCMTD:a_map.obj
 0002:0001e810       ??_C@_1EI@DKDOCKPJ@?$AAf?$AA?3?$AA?2?$AAd?$AAd?$AA?2?$AAv?$AAc?$AAt?$AAo?$AAo?$AAl?$AAs?$AA?2?$AAc?$AAr?$AAt?$AA?2?$AAc?$AAr?$AAt?$AAw?$AA3?$AA2?$AA?2?$AAh?$AA?2?$AAm?$AAa?$AAl?$AAl?$AAo@ 00584810     LIBCMTD:a_map.obj
 0002:0001e858       ??_C@_1CK@GFDNDKK@?$AA_?$AAR?$AAa?$AAn?$AAd?$AAo?$AAm?$AAV?$AAa?$AAl?$AAu?$AAe?$AA?5?$AA?$CB?$AA?$DN?$AA?5?$AAN?$AAU?$AAL?$AAL?$AA?$AA@ 00584858     LIBCMTD:rand_s.obj
 0002:0001e888       ??_C@_1EO@GANOMFFN@?$AAf?$AA?3?$AA?2?$AAd?$AAd?$AA?2?$AAv?$AAc?$AAt?$AAo?$AAo?$AAl?$AAs?$AA?2?$AAc?$AAr?$AAt?$AA?2?$AAc?$AAr?$AAt?$AAw?$AA3?$AA2?$AA?2?$AAm?$AAi?$AAs?$AAc?$AA?2?$AAr?$AAa@ 00584888     LIBCMTD:rand_s.obj
 0002:0001e8d8       ??_C@_1O@IJGPPOGF@?$AAr?$AAa?$AAn?$AAd?$AA_?$AAs?$AA?$AA@ 005848d8     LIBCMTD:rand_s.obj
 0002:0001e8e8       ??_C@_1BK@GAEMIDIL@?$AAA?$AAD?$AAV?$AAA?$AAP?$AAI?$AA3?$AA2?$AA?4?$AAD?$AAL?$AAL?$AA?$AA@ 005848e8     LIBCMTD:rand_s.obj
 0002:0001e908       ??_C@_1GA@EBEDGGGB@?$AA?$CI?$AA?$CC?$AAr?$AAa?$AAn?$AAd?$AA_?$AAs?$AA?5?$AAi?$AAs?$AA?5?$AAn?$AAo?$AAt?$AA?5?$AAa?$AAv?$AAa?$AAi?$AAl?$AAa?$AAb?$AAl?$AAe?$AA?5?$AAo?$AAn?$AA?5?$AAt?$AAh?$AAi@ 00584908     LIBCMTD:rand_s.obj
 0002:0001e968       ??_C@_0BC@JEAENNKH@SystemFunction036?$AA@ 00584968     LIBCMTD:rand_s.obj
 0002:0001e97c       ??_C@_0CJ@NMHEPMFE@f?3?2dd?2vctools?2crt?2crtw32?2misc?2wt@ 0058497c     LIBCMTD:wtombenv.obj
 0002:0001e9a8       ??_C@_1BG@MODEICJK@?$AAs?$AA1?$AA?5?$AA?$CB?$AA?$DN?$AA?5?$AAN?$AAU?$AAL?$AAL?$AA?$AA@ 005849a8     LIBCMTD:mbsnbico.obj
 0002:0001e9c0       ??_C@_1FK@CAOBGJOM@?$AAf?$AA?3?$AA?2?$AAd?$AAd?$AA?2?$AAv?$AAc?$AAt?$AAo?$AAo?$AAl?$AAs?$AA?2?$AAc?$AAr?$AAt?$AA?2?$AAc?$AAr?$AAt?$AAw?$AA3?$AA2?$AA?2?$AAm?$AAb?$AAs?$AAt?$AAr?$AAi?$AAn@ 005849c0     LIBCMTD:mbsnbico.obj
 0002:0001ea1c       ??_C@_1BM@FKNNDAHH@?$AA_?$AAm?$AAb?$AAs?$AAn?$AAb?$AAi?$AAc?$AAo?$AAl?$AAl?$AA_?$AAl?$AA?$AA@ 00584a1c     LIBCMTD:mbsnbico.obj
 0002:0001ea38       ??_C@_1BG@GBJNMPFA@?$AAs?$AA2?$AA?5?$AA?$CB?$AA?$DN?$AA?5?$AAN?$AAU?$AAL?$AAL?$AA?$AA@ 00584a38     LIBCMTD:mbsnbico.obj
 0002:0001ea50       ??_C@_1BK@CMPKHPEC@?$AAn?$AA?5?$AA?$DM?$AA?$DN?$AA?5?$AAI?$AAN?$AAT?$AA_?$AAM?$AAA?$AAX?$AA?$AA@ 00584a50     LIBCMTD:mbsnbico.obj
 0002:0001ea70       ??_C@_1EM@MKIAKJ@?$AAf?$AA?3?$AA?2?$AAd?$AAd?$AA?2?$AAv?$AAc?$AAt?$AAo?$AAo?$AAl?$AAs?$AA?2?$AAc?$AAr?$AAt?$AA?2?$AAc?$AAr?$AAt?$AAw?$AA3?$AA2?$AA?2?$AAd?$AAo?$AAs?$AA?2?$AAa?$AAc?$AAc@ 00584a70     LIBCMTD:waccess.obj
 0002:0001eabc       ??_C@_1BG@CFNNCJOE@?$AA_?$AAw?$AAa?$AAc?$AAc?$AAe?$AAs?$AAs?$AA_?$AAs?$AA?$AA@ 00584abc     LIBCMTD:waccess.obj
 0002:0001ead4       ??_C@_1CM@DCGCAFIP@?$AA?$CI?$AA?$CI?$AAa?$AAm?$AAo?$AAd?$AAe?$AA?5?$AA?$CG?$AA?5?$AA?$CI?$AA?$HO?$AA6?$AA?$CJ?$AA?$CJ?$AA?5?$AA?$DN?$AA?$DN?$AA?5?$AA0?$AA?$CJ?$AA?$AA@ 00584ad4     LIBCMTD:waccess.obj
 0002:0001eb00       ??_C@_1BO@PCMLKEJK@?$AA?$CI?$AAn?$AAa?$AAm?$AAe?$AA?5?$AA?$CB?$AA?$DN?$AA?5?$AAN?$AAU?$AAL?$AAL?$AA?$CJ?$AA?$AA@ 00584b00     LIBCMTD:wstati32.obj
 0002:0001eb20       ??_C@_1EM@BNHLBDPH@?$AAf?$AA?3?$AA?2?$AAd?$AAd?$AA?2?$AAv?$AAc?$AAt?$AAo?$AAo?$AAl?$AAs?$AA?2?$AAc?$AAr?$AAt?$AA?2?$AAc?$AAr?$AAt?$AAw?$AA3?$AA2?$AA?2?$AAd?$AAo?$AAs?$AA?2?$AAs?$AAt?$AAa@ 00584b20     LIBCMTD:wstati32.obj
 0002:0001eb6c       ??_C@_1BI@CDEGEEHA@?$AA_?$AAw?$AAs?$AAt?$AAa?$AAt?$AA6?$AA4?$AAi?$AA3?$AA2?$AA?$AA@ 00584b6c     LIBCMTD:wstati32.obj
 0002:0001eb84       ??_C@_15HEJOKEHO@?$AA?$DP?$AA?$CK?$AA?$AA@ 00584b84     LIBCMTD:wstati32.obj
 0002:0001eb8c       ??_C@_17BAAFHAL@?$AA?4?$AA?1?$AA?2?$AA?$AA@ 00584b8c     LIBCMTD:wstati32.obj
 0002:0001eb98       ??_C@_1FE@MJOOBDBG@?$AAf?$AA?3?$AA?2?$AAd?$AAd?$AA?2?$AAv?$AAc?$AAt?$AAo?$AAo?$AAl?$AAs?$AA?2?$AAc?$AAr?$AAt?$AA?2?$AAc?$AAr?$AAt?$AAw?$AA3?$AA2?$AA?2?$AAs?$AAt?$AAd?$AAi?$AAo?$AA?2?$AAv@ 00584b98     LIBCMTD:vfprintf.obj
 0002:0001ebec       ??_C@_1CA@OEHMHBJF@?$AAv?$AAf?$AAp?$AAr?$AAi?$AAn?$AAt?$AAf?$AA_?$AAh?$AAe?$AAl?$AAp?$AAe?$AAr?$AA?$AA@ 00584bec     LIBCMTD:vfprintf.obj
 0002:0001ec10       __XcptActTab               00584c10     LIBCMTD:winxfltr.obj
 0002:0001eca0       __XcptActTabCount          00584ca0     LIBCMTD:winxfltr.obj
 0002:0001eca4       __XcptActTabSize           00584ca4     LIBCMTD:winxfltr.obj
 0002:0001eca8       __First_FPE_Indx           00584ca8     LIBCMTD:winxfltr.obj
 0002:0001ecac       __Num_FPE                  00584cac     LIBCMTD:winxfltr.obj
 0002:0001ecb0       ??_C@_1BC@DENNNKIM@?$AA_?$AAc?$AAr?$AAt?$AAh?$AAe?$AAa?$AAp?$AA?$AA@ 00584cb0     LIBCMTD:heapinit.obj
 0002:0001ecc8       ??_C@_1FC@JOHAHJGP@?$AAf?$AA?3?$AA?2?$AAd?$AAd?$AA?2?$AAv?$AAc?$AAt?$AAo?$AAo?$AAl?$AAs?$AA?2?$AAc?$AAr?$AAt?$AA?2?$AAc?$AAr?$AAt?$AAw?$AA3?$AA2?$AA?2?$AAh?$AAe?$AAa?$AAp?$AA?2?$AAh?$AAe@ 00584cc8     LIBCMTD:heapinit.obj
 0002:0001ed1c       ??_C@_0CL@OBKFGCKK@f?3?2dd?2vctools?2crt?2crtw32?2startup@ 00584d1c     LIBCMTD:stdargv.obj
 0002:0001ed48       ??_C@_0CL@BJBFGFLH@f?3?2dd?2vctools?2crt?2crtw32?2startup@ 00584d48     LIBCMTD:stdenvp.obj
 0002:0001ed78       ??_C@_1FG@MHBLOJIO@?$AAf?$AA?3?$AA?2?$AAd?$AAd?$AA?2?$AAv?$AAc?$AAt?$AAo?$AAo?$AAl?$AAs?$AA?2?$AAc?$AAr?$AAt?$AA?2?$AAc?$AAr?$AAt?$AAw?$AA3?$AA2?$AA?2?$AAs?$AAt?$AAa?$AAr?$AAt?$AAu?$AAp@ 00584d78     LIBCMTD:stdenvp.obj
 0002:0001edd0       ??_C@_1BC@GHMCNHHL@?$AA_?$AAs?$AAe?$AAt?$AAe?$AAn?$AAv?$AAp?$AA?$AA@ 00584dd0     LIBCMTD:stdenvp.obj
 0002:0001ede4       ??_C@_1DE@MMOGFGHF@?$AAs?$AAt?$AAr?$AAc?$AAp?$AAy?$AA_?$AAs?$AA?$CI?$AA?$CK?$AAe?$AAn?$AAv?$AA?0?$AA?5?$AAc?$AAc?$AAh?$AAa?$AAr?$AAs?$AA?0?$AA?5?$AAp?$AA?$CJ?$AA?$AA@ 00584de4     LIBCMTD:stdenvp.obj
 0002:0001ee18       ??_C@_0CG@NNNNMKLF@f?3?2dd?2vctools?2crt?2crtw32?2misc?2a_@ 00584e18     LIBCMTD:a_env.obj
 0002:0001ee40       __sys_errlist              00584e40     LIBCMTD:syserr.obj
 0002:0001eef0       ??_C@_08INEPGKHH@No?5error?$AA@ 00584ef0     LIBCMTD:syserr.obj
 0002:0001eefc       ??_C@_0BI@BJFCGOHL@Operation?5not?5permitted?$AA@ 00584efc     LIBCMTD:syserr.obj
 0002:0001ef14       ??_C@_0BK@FMDHKPNF@No?5such?5file?5or?5directory?$AA@ 00584f14     LIBCMTD:syserr.obj
 0002:0001ef30       ??_C@_0BA@FKIAIBGA@No?5such?5process?$AA@ 00584f30     LIBCMTD:syserr.obj
 0002:0001ef40       ??_C@_0BK@FJBOAFDK@Interrupted?5function?5call?$AA@ 00584f40     LIBCMTD:syserr.obj
 0002:0001ef5c       ??_C@_0BD@KKNFOBBD@Input?1output?5error?$AA@ 00584f5c     LIBCMTD:syserr.obj
 0002:0001ef70       ??_C@_0BK@DPKMCKJ@No?5such?5device?5or?5address?$AA@ 00584f70     LIBCMTD:syserr.obj
 0002:0001ef8c       ??_C@_0BC@MFFGCDFL@Arg?5list?5too?5long?$AA@ 00584f8c     LIBCMTD:syserr.obj
 0002:0001efa0       ??_C@_0BC@HKPNECK@Exec?5format?5error?$AA@ 00584fa0     LIBCMTD:syserr.obj
 0002:0001efb4       ??_C@_0BE@NFGDDCEF@Bad?5file?5descriptor?$AA@ 00584fb4     LIBCMTD:syserr.obj
 0002:0001efc8       ??_C@_0BD@LOHELEP@No?5child?5processes?$AA@ 00584fc8     LIBCMTD:syserr.obj
 0002:0001efdc       ??_C@_0CB@EPFKGNAK@Resource?5temporarily?5unavailable@ 00584fdc     LIBCMTD:syserr.obj
 0002:0001f000       ??_C@_0BB@IMDKMPFB@Not?5enough?5space?$AA@ 00585000     LIBCMTD:syserr.obj
 0002:0001f014       ??_C@_0BC@HFNFNKAI@Permission?5denied?$AA@ 00585014     LIBCMTD:syserr.obj
 0002:0001f028       ??_C@_0M@LOEHLCJD@Bad?5address?$AA@ 00585028     LIBCMTD:syserr.obj
 0002:0001f034       ??_C@_0O@NIPGCINC@Unknown?5error?$AA@ 00585034     LIBCMTD:syserr.obj
 0002:0001f044       ??_C@_0BA@BIBLIOEK@Resource?5device?$AA@ 00585044     LIBCMTD:syserr.obj
 0002:0001f054       ??_C@_0M@NAAJNNGH@File?5exists?$AA@ 00585054     LIBCMTD:syserr.obj
 0002:0001f060       ??_C@_0O@OAMDNOCP@Improper?5link?$AA@ 00585060     LIBCMTD:syserr.obj
 0002:0001f070       ??_C@_0P@NLEIANHE@No?5such?5device?$AA@ 00585070     LIBCMTD:syserr.obj
 0002:0001f080       ??_C@_0BA@CJBACOOL@Not?5a?5directory?$AA@ 00585080     LIBCMTD:syserr.obj
 0002:0001f090       ??_C@_0P@NDHGCGKE@Is?5a?5directory?$AA@ 00585090     LIBCMTD:syserr.obj
 0002:0001f0a0       ??_C@_0BB@HMGGCEBG@Invalid?5argument?$AA@ 005850a0     LIBCMTD:syserr.obj
 0002:0001f0b4       ??_C@_0BO@IIFBODJE@Too?5many?5open?5files?5in?5system?$AA@ 005850b4     LIBCMTD:syserr.obj
 0002:0001f0d4       ??_C@_0BE@INBJMKGG@Too?5many?5open?5files?$AA@ 005850d4     LIBCMTD:syserr.obj
 0002:0001f0e8       ??_C@_0CE@ONOKNLPF@Inappropriate?5I?1O?5control?5operat@ 005850e8     LIBCMTD:syserr.obj
 0002:0001f10c       ??_C@_0P@LFMMIPAE@File?5too?5large?$AA@ 0058510c     LIBCMTD:syserr.obj
 0002:0001f11c       ??_C@_0BI@FEALHKLD@No?5space?5left?5on?5device?$AA@ 0058511c     LIBCMTD:syserr.obj
 0002:0001f134       ??_C@_0N@FEHLOILP@Invalid?5seek?$AA@ 00585134     LIBCMTD:syserr.obj
 0002:0001f144       ??_C@_0BG@DDBFNKBH@Read?9only?5file?5system?$AA@ 00585144     LIBCMTD:syserr.obj
 0002:0001f15c       ??_C@_0P@PKCJJLLM@Too?5many?5links?$AA@ 0058515c     LIBCMTD:syserr.obj
 0002:0001f16c       ??_C@_0M@LHEPIIOM@Broken?5pipe?$AA@ 0058516c     LIBCMTD:syserr.obj
 0002:0001f178       ??_C@_0N@MMJPGLJK@Domain?5error?$AA@ 00585178     LIBCMTD:syserr.obj
 0002:0001f188       ??_C@_0BB@FCBJFCAJ@Result?5too?5large?$AA@ 00585188     LIBCMTD:syserr.obj
 0002:0001f19c       ??_C@_0BK@JAEBMJJM@Resource?5deadlock?5avoided?$AA@ 0058519c     LIBCMTD:syserr.obj
 0002:0001f1b8       ??_C@_0BC@BEDIHIDK@Filename?5too?5long?$AA@ 005851b8     LIBCMTD:syserr.obj
 0002:0001f1cc       ??_C@_0BD@CLHBCGPB@No?5locks?5available?$AA@ 005851cc     LIBCMTD:syserr.obj
 0002:0001f1e0       ??_C@_0BJ@IHEHINLI@Function?5not?5implemented?$AA@ 005851e0     LIBCMTD:syserr.obj
 0002:0001f1fc       ??_C@_0BE@ICMCHPHH@Directory?5not?5empty?$AA@ 005851fc     LIBCMTD:syserr.obj
 0002:0001f210       ??_C@_0BG@KLEAJEFJ@Illegal?5byte?5sequence?$AA@ 00585210     LIBCMTD:syserr.obj
 0002:0001f2c8       ??_C@_0NN@NGPKDKPD@The?5value?5of?5ESP?5was?5not?5properl@ 005852c8     LIBCMTD:error.obj
 0002:0001f3a8       ??_C@_0BBN@GPMLNJCF@A?5cast?5to?5a?5smaller?5data?5type?5ha@ 005853a8     LIBCMTD:error.obj
 0002:0001f4c8       ??_C@_0BN@FFOINMNJ@Stack?5memory?5was?5corrupted?6?$AN?$AA@ 005854c8     LIBCMTD:error.obj
 0002:0001f4e8       ??_C@_0DG@HKJMLLLP@A?5local?5variable?5was?5used?5before@ 005854e8     LIBCMTD:error.obj
 0002:0001f520       ??_C@_0CM@NGINOKPC@Stack?5memory?5around?5_alloca?5was?5@ 00585520     LIBCMTD:error.obj
 0002:0001f54c       ??_C@_0BO@GNIAFIKK@Unknown?5Runtime?5Check?5Error?6?$AN?$AA@ 0058554c     LIBCMTD:error.obj
 0002:0001f570       ??_C@_1GM@OLMCBDMB@?$AAR?$AAu?$AAn?$AAt?$AAi?$AAm?$AAe?$AA?5?$AAC?$AAh?$AAe?$AAc?$AAk?$AA?5?$AAE?$AAr?$AAr?$AAo?$AAr?$AA?4?$AA?6?$AA?$AN?$AA?5?$AAU?$AAn?$AAa?$AAb?$AAl?$AAe?$AA?5?$AAt?$AAo@ 00585570     LIBCMTD:error.obj
 0002:0001f5e0       ??_C@_1EA@NFKNIFJP@?$AAR?$AAu?$AAn?$AA?9?$AAT?$AAi?$AAm?$AAe?$AA?5?$AAC?$AAh?$AAe?$AAc?$AAk?$AA?5?$AAF?$AAa?$AAi?$AAl?$AAu?$AAr?$AAe?$AA?5?$AA?$CD?$AA?$CF?$AAd?$AA?5?$AA?9?$AA?5?$AA?$CF?$AAs?$AA?$AA@ 005855e0     LIBCMTD:error.obj
 0002:0001f620       ??_C@_0BB@PFFGGCJP@Unknown?5Filename?$AA@ 00585620     LIBCMTD:error.obj
 0002:0001f634       ??_C@_0BE@GNBOBNCK@Unknown?5Module?5Name?$AA@ 00585634     LIBCMTD:error.obj
 0002:0001f648       ??_C@_0CA@IODNCDPG@Run?9Time?5Check?5Failure?5?$CD?$CFd?5?9?5?$CFs?$AA@ 00585648     LIBCMTD:error.obj
 0002:0001f668       ??_C@_0CG@IAFNJNEE@Stack?5corrupted?5near?5unknown?5var@ 00585668     LIBCMTD:error.obj
 0002:0001f690       ??_C@_1BG@OILDLIOJ@?$AAu?$AAs?$AAe?$AAr?$AA3?$AA2?$AA?4?$AAd?$AAl?$AAl?$AA?$AA@ 00585690     LIBCMTD:error.obj
 0002:0001f6a8       ??_C@_09FOPFMPEJ@wsprintfA?$AA@ 005856a8     LIBCMTD:error.obj
 0002:0001f6b8       ??_C@_0EJ@LJKNEOLN@Stack?5area?5around?5_alloca?5memory@ 005856b8     LIBCMTD:error.obj
 0002:0001f704       ??_C@_08OMAHNMHJ@?6Data?3?5?$DM?$AA@ 00585704     LIBCMTD:error.obj
 0002:0001f710       ??_C@_0CK@DKGBICFE@?6Allocation?5number?5within?5this?5f@ 00585710     LIBCMTD:error.obj
 0002:0001f73c       ??_C@_07DFDJCKFN@?6Size?3?5?$AA@ 0058573c     LIBCMTD:error.obj
 0002:0001f744       ??_C@_0N@MHFFIMFG@?6Address?3?50x?$AA@ 00585744     LIBCMTD:error.obj
 0002:0001f758       ??_C@_0EI@CLEPFNGI@Stack?5area?5around?5_alloca?5memory@ 00585758     LIBCMTD:error.obj
 0002:0001f7a0       ??_C@_0BC@KIBAILCI@?$CFs?$CFs?$CFp?$CFs?$CFld?$CFs?$CFd?$CFs?$AA@ 005857a0     LIBCMTD:error.obj
 0002:0001f7b4       ??_C@_02LLMPMKNF@?$DO?5?$AA@ 005857b4     LIBCMTD:error.obj
 0002:0001f7b8       ??_C@_08KJEDNCKC@?$CFs?$CFs?$CFs?$CFs?$AA@ 005857b8     LIBCMTD:error.obj
 0002:0001f7c4       ??_C@_0DE@OHJBPMBP@A?5variable?5is?5being?5used?5without@ 005857c4     LIBCMTD:error.obj
 0002:0001f80c       ??_C@_0BJ@HEGAHDFO@Stack?5pointer?5corruption?$AA@ 0058580c     LIBCMTD:userapi.obj
 0002:0001f828       ??_C@_0CK@FEGOIOPB@Cast?5to?5smaller?5type?5causing?5los@ 00585828     LIBCMTD:userapi.obj
 0002:0001f854       ??_C@_0BI@CIGMDCBH@Stack?5memory?5corruption?$AA@ 00585854     LIBCMTD:userapi.obj
 0002:0001f86c       ??_C@_0CK@CNLNOEPB@Local?5variable?5used?5before?5initi@ 0058586c     LIBCMTD:userapi.obj
 0002:0001f898       ??_C@_0BP@OGBCLIBO@Stack?5around?5_alloca?5corrupted?$AA@ 00585898     LIBCMTD:userapi.obj
 0002:0001f8b8       ??_C@_0NM@DNEDKLDF@The?5value?5of?5ESP?5was?5not?5properl@ 005858b8     LIBCMTD:chkesp.obj
 0002:0001f994       ??_C@_0CM@CNHKCLGP@f?3?2dd?2vctools?2crt?2crtw32?2misc?2i3@ 00585994     LIBCMTD:chkesp.obj
 0002:0001f9c0       ??_C@_1FE@NDDOFCDF@?$AAf?$AA?3?$AA?2?$AAd?$AAd?$AA?2?$AAv?$AAc?$AAt?$AAo?$AAo?$AAl?$AAs?$AA?2?$AAc?$AAr?$AAt?$AA?2?$AAc?$AAr?$AAt?$AAw?$AA3?$AA2?$AA?2?$AAl?$AAo?$AAw?$AAi?$AAo?$AA?2?$AAl@ 005859c0     LIBCMTD:lseeki64.obj
 0002:0001fa14       ??_C@_1BE@KHFBJMNM@?$AA_?$AAl?$AAs?$AAe?$AAe?$AAk?$AAi?$AA6?$AA4?$AA?$AA@ 00585a14     LIBCMTD:lseeki64.obj
 0002:0001fa28       ??_C@_1FE@EKLDGEI@?$AAf?$AA?3?$AA?2?$AAd?$AAd?$AA?2?$AAv?$AAc?$AAt?$AAo?$AAo?$AAl?$AAs?$AA?2?$AAc?$AAr?$AAt?$AA?2?$AAc?$AAr?$AAt?$AAw?$AA3?$AA2?$AA?2?$AAc?$AAo?$AAn?$AAv?$AAe?$AAr?$AAt@ 00585a28     LIBCMTD:mbtowc.obj
 0002:0001fa7c       ??_C@_1BE@EEKACIGI@?$AAs?$AA?5?$AA?$CB?$AA?$DN?$AA?5?$AAN?$AAU?$AAL?$AAL?$AA?$AA@ 00585a7c     LIBCMTD:mbstowcs.obj
 0002:0001fa90       ??_C@_1FI@DADFCCMF@?$AAf?$AA?3?$AA?2?$AAd?$AAd?$AA?2?$AAv?$AAc?$AAt?$AAo?$AAo?$AAl?$AAs?$AA?2?$AAc?$AAr?$AAt?$AA?2?$AAc?$AAr?$AAt?$AAw?$AA3?$AA2?$AA?2?$AAc?$AAo?$AAn?$AAv?$AAe?$AAr?$AAt@ 00585a90     LIBCMTD:mbstowcs.obj
 0002:0001fae8       ??_C@_1CG@JEHFHLNG@?$AA_?$AAm?$AAb?$AAs?$AAt?$AAo?$AAw?$AAc?$AAs?$AA_?$AAl?$AA_?$AAh?$AAe?$AAl?$AAp?$AAe?$AAr?$AA?$AA@ 00585ae8     LIBCMTD:mbstowcs.obj
 0002:0001fb10       ??_C@_1JA@JKDFMOPO@?$AA?$CI?$AAp?$AAw?$AAc?$AAs?$AA?5?$AA?$DN?$AA?$DN?$AA?5?$AAN?$AAU?$AAL?$AAL?$AA?5?$AA?$CG?$AA?$CG?$AA?5?$AAs?$AAi?$AAz?$AAe?$AAI?$AAn?$AAW?$AAo?$AAr?$AAd?$AAs?$AA?5?$AA?$DN?$AA?$DN?$AA?5@ 00585b10     LIBCMTD:mbstowcs.obj
 0002:0001fba0       ??_C@_1BM@PHENIGHD@?$AA_?$AAm?$AAb?$AAs?$AAt?$AAo?$AAw?$AAc?$AAs?$AA_?$AAs?$AA_?$AAl?$AA?$AA@ 00585ba0     LIBCMTD:mbstowcs.obj
 0002:0001fbbc       ??_C@_1CM@LLECFMFH@?$AAb?$AAu?$AAf?$AAf?$AAe?$AAr?$AAS?$AAi?$AAz?$AAe?$AA?5?$AA?$DM?$AA?$DN?$AA?5?$AAI?$AAN?$AAT?$AA_?$AAM?$AAA?$AAX?$AA?$AA@ 00585bbc     LIBCMTD:mbstowcs.obj
 0002:0001fbe8       ??_C@_1CO@JNPEPJAL@?$AAr?$AAe?$AAt?$AAs?$AAi?$AAz?$AAe?$AA?5?$AA?$DM?$AA?$DN?$AA?5?$AAs?$AAi?$AAz?$AAe?$AAI?$AAn?$AAW?$AAo?$AAr?$AAd?$AAs?$AA?$AA@ 00585be8     LIBCMTD:mbstowcs.obj
 0002:0001fc18       ??_C@_1BK@OIBENBPM@?$AAp?$AAw?$AAc?$AAs?$AA?5?$AA?$CB?$AA?$DN?$AA?5?$AAN?$AAU?$AAL?$AAL?$AA?$AA@ 00585c18     LIBCMTD:wcstombs.obj
 0002:0001fc38       ??_C@_1FI@GCFLNCOB@?$AAf?$AA?3?$AA?2?$AAd?$AAd?$AA?2?$AAv?$AAc?$AAt?$AAo?$AAo?$AAl?$AAs?$AA?2?$AAc?$AAr?$AAt?$AA?2?$AAc?$AAr?$AAt?$AAw?$AA3?$AA2?$AA?2?$AAc?$AAo?$AAn?$AAv?$AAe?$AAr?$AAt@ 00585c38     LIBCMTD:wcstombs.obj
 0002:0001fc90       ??_C@_1CG@LLJCAOHF@?$AA_?$AAw?$AAc?$AAs?$AAt?$AAo?$AAm?$AAb?$AAs?$AA_?$AAl?$AA_?$AAh?$AAe?$AAl?$AAp?$AAe?$AAr?$AA?$AA@ 00585c90     LIBCMTD:wcstombs.obj
 0002:0001fcb8       ??_C@_1IM@MFGKHGBP@?$AA?$CI?$AAd?$AAs?$AAt?$AA?5?$AA?$CB?$AA?$DN?$AA?5?$AAN?$AAU?$AAL?$AAL?$AA?5?$AA?$CG?$AA?$CG?$AA?5?$AAs?$AAi?$AAz?$AAe?$AAI?$AAn?$AAB?$AAy?$AAt?$AAe?$AAs?$AA?5?$AA?$DO?$AA?5?$AA0?$AA?$CJ@ 00585cb8     LIBCMTD:wcstombs.obj
 0002:0001fd44       ??_C@_1BM@BDMCLLDL@?$AA_?$AAw?$AAc?$AAs?$AAt?$AAo?$AAm?$AAb?$AAs?$AA_?$AAs?$AA_?$AAl?$AA?$AA@ 00585d44     LIBCMTD:wcstombs.obj
 0002:0001fd60       ??_C@_1CM@KEOGBFLI@?$AAs?$AAi?$AAz?$AAe?$AAI?$AAn?$AAB?$AAy?$AAt?$AAe?$AAs?$AA?5?$AA?$DO?$AA?5?$AAr?$AAe?$AAt?$AAs?$AAi?$AAz?$AAe?$AA?$AA@ 00585d60     LIBCMTD:wcstombs.obj
 0002:0001fd8c       ??_C@_1CA@LMBEKBDN@?$AAp?$AAo?$AAp?$AAt?$AAi?$AAo?$AAn?$AA?5?$AA?$CB?$AA?$DN?$AA?5?$AAN?$AAU?$AAL?$AAL?$AA?$AA@ 00585d8c     LIBCMTD:setenv.obj
 0002:0001fdb0       ??_C@_1EO@LLEMHCMB@?$AAf?$AA?3?$AA?2?$AAd?$AAd?$AA?2?$AAv?$AAc?$AAt?$AAo?$AAo?$AAl?$AAs?$AA?2?$AAc?$AAr?$AAt?$AA?2?$AAc?$AAr?$AAt?$AAw?$AA3?$AA2?$AA?2?$AAm?$AAi?$AAs?$AAc?$AA?2?$AAs?$AAe@ 00585db0     LIBCMTD:setenv.obj
 0002:0001fe00       ??_C@_1BI@CDAFOAAL@?$AA_?$AA_?$AAc?$AAr?$AAt?$AAs?$AAe?$AAt?$AAe?$AAn?$AAv?$AA?$AA@ 00585e00     LIBCMTD:setenv.obj
 0002:0001fe18       ??_C@_1DE@EEHFNNGH@?$AAe?$AAq?$AAu?$AAa?$AAl?$AA?5?$AA?9?$AA?5?$AAo?$AAp?$AAt?$AAi?$AAo?$AAn?$AA?5?$AA?$DM?$AA?5?$AA_?$AAM?$AAA?$AAX?$AA_?$AAE?$AAN?$AAV?$AA?$AA@ 00585e18     LIBCMTD:setenv.obj
 0002:0001fe4c       ??_C@_0CH@OODIAFML@f?3?2dd?2vctools?2crt?2crtw32?2misc?2se@ 00585e4c     LIBCMTD:setenv.obj
 0002:0001fe78       ??_C@_1EI@GHDNAPMG@?$AA?$CI?$AA?$CC?$AAC?$AAR?$AAT?$AA?5?$AAL?$AAo?$AAg?$AAi?$AAc?$AA?5?$AAe?$AAr?$AAr?$AAo?$AAr?$AA?5?$AAd?$AAu?$AAr?$AAi?$AAn?$AAg?$AA?5?$AAs?$AAe?$AAt?$AAe?$AAn?$AAv?$AA?$CC@ 00585e78     LIBCMTD:setenv.obj
 0002:0001fec0       ??_C@_1FG@OKIAKKPK@?$AAs?$AAt?$AAr?$AAc?$AAp?$AAy?$AA_?$AAs?$AA?$CI?$AAn?$AAa?$AAm?$AAe?$AA?0?$AA?5?$AAs?$AAt?$AAr?$AAl?$AAe?$AAn?$AA?$CI?$AAo?$AAp?$AAt?$AAi?$AAo?$AAn?$AA?$CJ?$AA?5?$AA?$CL?$AA?5@ 00585ec0     LIBCMTD:setenv.obj
 0002:0001ff18       ??_C@_1BK@ECKIJLPM@?$AAc?$AAo?$AAp?$AAy?$AA_?$AAe?$AAn?$AAv?$AAi?$AAr?$AAo?$AAn?$AA?$AA@ 00585f18     LIBCMTD:setenv.obj
 0002:0001ff38       ??_C@_1FK@DNFLNPD@?$AAs?$AAt?$AAr?$AAc?$AAp?$AAy?$AA_?$AAs?$AA?$CI?$AA?$CK?$AAn?$AAe?$AAw?$AAe?$AAn?$AAv?$AAp?$AAt?$AAr?$AA?0?$AA?5?$AAe?$AAn?$AAv?$AAp?$AAt?$AAr?$AAS?$AAi?$AAz?$AAe?$AA?0@ 00585f38     LIBCMTD:setenv.obj
 0002:0001ff94       ??_C@_1BK@KKNFALEO@?$AA_?$AA_?$AAc?$AAr?$AAt?$AAw?$AAs?$AAe?$AAt?$AAe?$AAn?$AAv?$AA?$AA@ 00585f94     LIBCMTD:wsetenv.obj
 0002:0001ffb0       ??_C@_1FG@NIAOIHPM@?$AAw?$AAc?$AAs?$AAc?$AAp?$AAy?$AA_?$AAs?$AA?$CI?$AAn?$AAa?$AAm?$AAe?$AA?0?$AA?5?$AAw?$AAc?$AAs?$AAl?$AAe?$AAn?$AA?$CI?$AAo?$AAp?$AAt?$AAi?$AAo?$AAn?$AA?$CJ?$AA?5?$AA?$CL?$AA?5@ 00585fb0     LIBCMTD:wsetenv.obj
 0002:00020008       ??_C@_1FK@KDLHDCLO@?$AAw?$AAc?$AAs?$AAc?$AAp?$AAy?$AA_?$AAs?$AA?$CI?$AA?$CK?$AAn?$AAe?$AAw?$AAe?$AAn?$AAv?$AAp?$AAt?$AAr?$AA?0?$AA?5?$AAe?$AAn?$AAv?$AAp?$AAt?$AAr?$AAS?$AAi?$AAz?$AAe?$AA?0@ 00586008     LIBCMTD:wsetenv.obj
 0002:00020068       ___newctype                00586068     LIBCMTD:ctype.obj
 0002:00020368       __wctype                   00586368     LIBCMTD:ctype.obj
 0002:00020570       ___newclmap                00586570     LIBCMTD:ctype.obj
 0002:000206f0       ___newcumap                005866f0     LIBCMTD:ctype.obj
 0002:00020890       ??_C@_1CC@JBMDNKJP@?$AAf?$AAi?$AAl?$AAe?$AAn?$AAa?$AAm?$AAe?$AA?5?$AA?$CB?$AA?$DN?$AA?5?$AAN?$AAU?$AAL?$AAL?$AA?$AA@ 00586890     LIBCMTD:_open.obj
 0002:000208b8       ??_C@_1EO@FCBMLNIH@?$AAf?$AA?3?$AA?2?$AAd?$AAd?$AA?2?$AAv?$AAc?$AAt?$AAo?$AAo?$AAl?$AAs?$AA?2?$AAc?$AAr?$AAt?$AA?2?$AAc?$AAr?$AAt?$AAw?$AA3?$AA2?$AA?2?$AAs?$AAt?$AAd?$AAi?$AAo?$AA?2?$AA_@ 005868b8     LIBCMTD:_open.obj
 0002:00020908       ??_C@_1BE@DONHJJKE@?$AA_?$AAo?$AAp?$AAe?$AAn?$AAf?$AAi?$AAl?$AAe?$AA?$AA@ 00586908     LIBCMTD:_open.obj
 0002:00020920       ??_C@_1EK@ONCAEMDH@?$AAf?$AA?3?$AA?2?$AAd?$AAd?$AA?2?$AAv?$AAc?$AAt?$AAo?$AAo?$AAl?$AAs?$AA?2?$AAc?$AAr?$AAt?$AA?2?$AAc?$AAr?$AAt?$AAw?$AA3?$AA2?$AA?2?$AAd?$AAo?$AAs?$AA?2?$AAc?$AAh?$AAm@ 00586920     LIBCMTD:wchmod.obj
 0002:0002096c       ??_C@_1BA@EBKBJALM@?$AA_?$AAw?$AAc?$AAh?$AAm?$AAo?$AAd?$AA?$AA@ 0058696c     LIBCMTD:wchmod.obj
 0002:0002097c       ??_C@_1O@HFEBJM@?$AA_?$AAw?$AAo?$AAp?$AAe?$AAn?$AA?$AA@ 0058697c     LIBCMTD:wopen.obj
 0002:0002098c       ??_C@_1BO@NAANLDBI@?$AA_?$AAw?$AAs?$AAo?$AAp?$AAe?$AAn?$AA_?$AAh?$AAe?$AAl?$AAp?$AAe?$AAr?$AA?$AA@ 0058698c     LIBCMTD:wopen.obj
 0002:000209ac       ??_C@_0M@HHGEPIBF@CreateFile2?$AA@ 005869ac     LIBCMTD:wopen.obj
 0002:000209b8       ??_C@_1BO@JMCLMIEA@?$AA_?$AAw?$AAs?$AAo?$AAp?$AAe?$AAn?$AA_?$AAn?$AAo?$AAl?$AAo?$AAc?$AAk?$AA?$AA@ 005869b8     LIBCMTD:wopen.obj
 0002:000209d8       ??_C@_1CG@ICBEBDJJ@?$AA_?$AAg?$AAe?$AAt?$AA_?$AAf?$AAm?$AAo?$AAd?$AAe?$AA?$CI?$AA?$CG?$AAf?$AAm?$AAo?$AAd?$AAe?$AA?$CJ?$AA?$AA@ 005869d8     LIBCMTD:wopen.obj
 0002:00020a00       ??_C@_1DI@DGKIFCCE@?$AA?$CI?$AA?5?$AA?$CC?$AAI?$AAn?$AAv?$AAa?$AAl?$AAi?$AAd?$AA?5?$AAo?$AAp?$AAe?$AAn?$AA?5?$AAf?$AAl?$AAa?$AAg?$AA?$CC?$AA?5?$AA?0?$AA?5?$AA0?$AA?5?$AA?$CJ?$AA?$AA@ 00586a00     LIBCMTD:wopen.obj
 0002:00020a38       ??_C@_1DO@PJLMOANO@?$AA?$CI?$AA?5?$AA?$CC?$AAI?$AAn?$AAv?$AAa?$AAl?$AAi?$AAd?$AA?5?$AAs?$AAh?$AAa?$AAr?$AAi?$AAn?$AAg?$AA?5?$AAf?$AAl?$AAa?$AAg?$AA?$CC?$AA?5?$AA?0?$AA?5?$AA0?$AA?5?$AA?$CJ?$AA?$AA@ 00586a38     LIBCMTD:wopen.obj
 0002:00020a78       ??_C@_1HM@GJANBLHJ@?$AA?$CI?$AAo?$AAf?$AAl?$AAa?$AAg?$AA?5?$AA?$CG?$AA?5?$AA?$CI?$AA_?$AAO?$AA_?$AAT?$AAE?$AAX?$AAT?$AA?5?$AA?$HM?$AA?5?$AA_?$AAO?$AA_?$AAW?$AAT?$AAE?$AAX?$AAT?$AA?5?$AA?$HM?$AA?5?$AA_@ 00586a78     LIBCMTD:wopen.obj
 0002:00020af4       ??_C@_1CM@IDLMKMPG@?$AA0?$AA?5?$AA?$CG?$AA?$CG?$AA?5?$AA?$CC?$AAI?$AAn?$AAt?$AAe?$AAr?$AAn?$AAa?$AAl?$AA?5?$AAE?$AAr?$AAr?$AAo?$AAr?$AA?$CC?$AA?$AA@ 00586af4     LIBCMTD:wopen.obj
 0002:00020b20       ??_C@_1IA@IENOJNJF@?$AA0?$AA?5?$AA?$CG?$AA?$CG?$AA?5?$AA?$CC?$AAO?$AAn?$AAl?$AAy?$AA?5?$AAU?$AAT?$AAF?$AA?9?$AA1?$AA6?$AA?5?$AAl?$AAi?$AAt?$AAt?$AAl?$AAe?$AA?5?$AAe?$AAn?$AAd?$AAi?$AAa?$AAn?$AA?5@ 00586b20     LIBCMTD:wopen.obj
 0002:00020ba0       ??_C@_1EO@IJLCCJKM@?$AAf?$AA?3?$AA?2?$AAd?$AAd?$AA?2?$AAv?$AAc?$AAt?$AAo?$AAo?$AAl?$AAs?$AA?2?$AAc?$AAr?$AAt?$AA?2?$AAc?$AAr?$AAt?$AAw?$AA3?$AA2?$AA?2?$AAt?$AAi?$AAm?$AAe?$AA?2?$AAg?$AAm@ 00586ba0     LIBCMTD:gmtime.obj
 0002:00020bf0       ??_C@_1BI@DFJDDOHM@?$AA_?$AAg?$AAm?$AAt?$AAi?$AAm?$AAe?$AA3?$AA2?$AA_?$AAs?$AA?$AA@ 00586bf0     LIBCMTD:gmtime.obj
 0002:00020c08       ??_C@_0CH@HLEHHIFE@f?3?2dd?2vctools?2crt?2crtw32?2time?2gm@ 00586c08     LIBCMTD:gmtime.obj
 0002:00020c30       ??_C@_1FC@KLDIFLFI@?$AAf?$AA?3?$AA?2?$AAd?$AAd?$AA?2?$AAv?$AAc?$AAt?$AAo?$AAo?$AAl?$AAs?$AA?2?$AAc?$AAr?$AAt?$AA?2?$AAc?$AAr?$AAt?$AAw?$AA3?$AA2?$AA?2?$AAs?$AAt?$AAd?$AAi?$AAo?$AA?2?$AA_@ 00586c30     LIBCMTD:_filbuf.obj
 0002:00020c84       ??_C@_1BA@IIKEPOGH@?$AA_?$AAf?$AAi?$AAl?$AAb?$AAu?$AAf?$AA?$AA@ 00586c84     LIBCMTD:_filbuf.obj
 0002:00020c94       ??_C@_0CF@IFJNLNGE@f?3?2dd?2vctools?2crt?2crtw32?2dos?2dri@ 00586c94     LIBCMTD:drive.obj
 0002:00020cc0       ??_C@_1EK@LAELMDHG@?$AAf?$AA?3?$AA?2?$AAd?$AAd?$AA?2?$AAv?$AAc?$AAt?$AAo?$AAo?$AAl?$AAs?$AA?2?$AAc?$AAr?$AAt?$AA?2?$AAc?$AAr?$AAt?$AAw?$AA3?$AA2?$AA?2?$AAd?$AAo?$AAs?$AA?2?$AAd?$AAr?$AAi@ 00586cc0     LIBCMTD:drive.obj
 0002:00020d0c       ??_C@_1BC@JCHHEAGH@?$AA_?$AAc?$AAh?$AAd?$AAr?$AAi?$AAv?$AAe?$AA?$AA@ 00586d0c     LIBCMTD:drive.obj
 0002:00020d20       ??_C@_1FC@HJMIPFDO@?$AAf?$AA?3?$AA?2?$AAd?$AAd?$AA?2?$AAv?$AAc?$AAt?$AAo?$AAo?$AAl?$AAs?$AA?2?$AAc?$AAr?$AAt?$AA?2?$AAc?$AAr?$AAt?$AAw?$AA3?$AA2?$AA?2?$AAt?$AAi?$AAm?$AAe?$AA?2?$AAd?$AAt@ 00586d20     LIBCMTD:dtoxtm64.obj
 0002:00020d74       ??_C@_1CA@BCKHBOCK@?$AA_?$AA_?$AAl?$AAo?$AAc?$AAt?$AAo?$AAt?$AAi?$AAm?$AAe?$AA6?$AA4?$AA_?$AAt?$AA?$AA@ 00586d74     LIBCMTD:dtoxtm64.obj
 0002:00020d94       ??_C@_1BE@PMMBFFCC@?$AAw?$AAc?$AAs?$AAn?$AAc?$AAp?$AAy?$AA_?$AAs?$AA?$AA@ 00586d94     LIBCMTD:wcsncpy_s.obj
 0002:00020da8       ??_C@_15EDMHLDMO@?$AAc?$AAa?$AA?$AA@ 00586da8     LIBCMTD:winapinls.obj
 0002:00020db0       ??_C@_1O@BPEAJADD@?$AAz?$AAh?$AA?9?$AAC?$AAH?$AAS?$AA?$AA@ 00586db0     LIBCMTD:winapinls.obj
 0002:00020dc0       ??_C@_15LJNHCMNK@?$AAc?$AAs?$AA?$AA@ 00586dc0     LIBCMTD:winapinls.obj
 0002:00020dc8       ??_C@_15FOMCIDHG@?$AAd?$AAa?$AA?$AA@ 00586dc8     LIBCMTD:winapinls.obj
 0002:00020dd0       ??_C@_15NBKABECB@?$AAd?$AAe?$AA?$AA@ 00586dd0     LIBCMTD:winapinls.obj
 0002:00020dd8       ??_C@_15GHPEIIAO@?$AAe?$AAl?$AA?$AA@ 00586dd8     LIBCMTD:winapinls.obj
 0002:00020de0       ??_C@_15MNPNEAIF@?$AAe?$AAn?$AA?$AA@ 00586de0     LIBCMTD:winapinls.obj
 0002:00020de8       ??_C@_15GPIOMPMH@?$AAe?$AAs?$AA?$AA@ 00586de8     LIBCMTD:winapinls.obj
 0002:00020df0       ??_C@_15NGLOAKJC@?$AAf?$AAi?$AA?$AA@ 00586df0     LIBCMTD:winapinls.obj
 0002:00020df8       ??_C@_15FBKGNKAM@?$AAf?$AAr?$AA?$AA@ 00586df8     LIBCMTD:winapinls.obj
 0002:00020e00       ??_C@_15KGGCNEFK@?$AAh?$AAe?$AA?$AA@ 00586e00     LIBCMTD:winapinls.obj
 0002:00020e08       ??_C@_15PGHLIDMF@?$AAh?$AAu?$AA?$AA@ 00586e08     LIBCMTD:winapinls.obj
 0002:00020e10       ??_C@_15BIEMAPLM@?$AAi?$AAs?$AA?$AA@ 00586e10     LIBCMTD:winapinls.obj
 0002:00020e18       ??_C@_15IFJLDHAF@?$AAi?$AAt?$AA?$AA@ 00586e18     LIBCMTD:winapinls.obj
 0002:00020e20       ??_C@_15GEMIOCAG@?$AAj?$AAa?$AA?$AA@ 00586e20     LIBCMTD:winapinls.obj
 0002:00020e28       ??_C@_15EPELEGJA@?$AAk?$AAo?$AA?$AA@ 00586e28     LIBCMTD:winapinls.obj
 0002:00020e30       ??_C@_15NDDHIMN@?$AAn?$AAl?$AA?$AA@ 00586e30     LIBCMTD:winapinls.obj
 0002:00020e38       ??_C@_15BPIGNHCD@?$AAn?$AAo?$AA?$AA@ 00586e38     LIBCMTD:winapinls.obj
 0002:00020e40       ??_C@_15DEOPBLCG@?$AAp?$AAl?$AA?$AA@ 00586e40     LIBCMTD:winapinls.obj
 0002:00020e48       ??_C@_15KBECGEFG@?$AAp?$AAt?$AA?$AA@ 00586e48     LIBCMTD:winapinls.obj
 0002:00020e50       ??_C@_15GLJCBFMD@?$AAr?$AAo?$AA?$AA@ 00586e50     LIBCMTD:winapinls.obj
 0002:00020e58       ??_C@_15FEDGKCDI@?$AAr?$AAu?$AA?$AA@ 00586e58     LIBCMTD:winapinls.obj
 0002:00020e60       ??_C@_15GLKMLLHM@?$AAh?$AAr?$AA?$AA@ 00586e60     LIBCMTD:winapinls.obj
 0002:00020e68       ??_C@_15CPKMFBDB@?$AAs?$AAk?$AA?$AA@ 00586e68     LIBCMTD:winapinls.obj
 0002:00020e70       ??_C@_15BAAIOGMK@?$AAs?$AAq?$AA?$AA@ 00586e70     LIBCMTD:winapinls.obj
 0002:00020e78       ??_C@_15INNPNOHD@?$AAs?$AAv?$AA?$AA@ 00586e78     LIBCMTD:winapinls.obj
 0002:00020e80       ??_C@_15CABMMOGH@?$AAt?$AAh?$AA?$AA@ 00586e80     LIBCMTD:winapinls.obj
 0002:00020e88       ??_C@_15BPLIHJJM@?$AAt?$AAr?$AA?$AA@ 00586e88     LIBCMTD:winapinls.obj
 0002:00020e90       ??_C@_15NEOEKKDJ@?$AAu?$AAr?$AA?$AA@ 00586e90     LIBCMTD:winapinls.obj
 0002:00020e98       ??_C@_15NFICGAJK@?$AAi?$AAd?$AA?$AA@ 00586e98     LIBCMTD:winapinls.obj
 0002:00020ea0       ??_C@_15PJPFLCCM@?$AAu?$AAk?$AA?$AA@ 00586ea0     LIBCMTD:winapinls.obj
 0002:00020ea8       ??_C@_15HPJPHDM@?$AAb?$AAe?$AA?$AA@ 00586ea8     LIBCMTD:winapinls.obj
 0002:00020eb0       ??_C@_15LCHLGJII@?$AAs?$AAl?$AA?$AA@ 00586eb0     LIBCMTD:winapinls.obj
 0002:00020eb8       ??_C@_15PCFJPHHO@?$AAe?$AAt?$AA?$AA@ 00586eb8     LIBCMTD:winapinls.obj
 0002:00020ec0       ??_C@_15HPFPGODN@?$AAl?$AAv?$AA?$AA@ 00586ec0     LIBCMTD:winapinls.obj
 0002:00020ec8       ??_C@_15NFFGKGLG@?$AAl?$AAt?$AA?$AA@ 00586ec8     LIBCMTD:winapinls.obj
 0002:00020ed0       ??_C@_15BDAKCCHN@?$AAf?$AAa?$AA?$AA@ 00586ed0     LIBCMTD:winapinls.obj
 0002:00020ed8       ??_C@_15NFGIAIAJ@?$AAv?$AAi?$AA?$AA@ 00586ed8     LIBCMTD:winapinls.obj
 0002:00020ee0       ??_C@_15LMKNDMHN@?$AAh?$AAy?$AA?$AA@ 00586ee0     LIBCMTD:winapinls.obj
 0002:00020ee8       ??_C@_15IJBHMCFL@?$AAa?$AAz?$AA?$AA@ 00586ee8     LIBCMTD:winapinls.obj
 0002:00020ef0       ??_C@_15EKOFJABL@?$AAe?$AAu?$AA?$AA@ 00586ef0     LIBCMTD:winapinls.obj
 0002:00020ef8       ??_C@_15BGHADCNK@?$AAm?$AAk?$AA?$AA@ 00586ef8     LIBCMTD:winapinls.obj
 0002:00020f00       ??_C@_15JDNICKHM@?$AAa?$AAf?$AA?$AA@ 00586f00     LIBCMTD:winapinls.obj
 0002:00020f08       ??_C@_15KPJEDBKD@?$AAk?$AAa?$AA?$AA@ 00586f08     LIBCMTD:winapinls.obj
 0002:00020f10       ??_C@_15PDNFFFEO@?$AAf?$AAo?$AA?$AA@ 00586f10     LIBCMTD:winapinls.obj
 0002:00020f18       ??_C@_15OMLEGLOC@?$AAh?$AAi?$AA?$AA@ 00586f18     LIBCMTD:winapinls.obj
 0002:00020f20       ??_C@_15IDNNENKK@?$AAm?$AAs?$AA?$AA@ 00586f20     LIBCMTD:winapinls.obj
 0002:00020f28       ??_C@_15MACJNBMH@?$AAk?$AAk?$AA?$AA@ 00586f28     LIBCMTD:winapinls.obj
 0002:00020f30       ??_C@_15DKDJEOND@?$AAk?$AAy?$AA?$AA@ 00586f30     LIBCMTD:winapinls.obj
 0002:00020f38       ??_C@_15DFGDLJBG@?$AAs?$AAw?$AA?$AA@ 00586f38     LIBCMTD:winapinls.obj
 0002:00020f40       ??_C@_15BBFAICNG@?$AAu?$AAz?$AA?$AA@ 00586f40     LIBCMTD:winapinls.obj
 0002:00020f48       ??_C@_15DKNDCGEA@?$AAt?$AAt?$AA?$AA@ 00586f48     LIBCMTD:winapinls.obj
 0002:00020f50       ??_C@_15MGIFMDPL@?$AAp?$AAa?$AA?$AA@ 00586f50     LIBCMTD:winapinls.obj
 0002:00020f58       ??_C@_15HCNDBBA@?$AAg?$AAu?$AA?$AA@ 00586f58     LIBCMTD:winapinls.obj
 0002:00020f60       ??_C@_15FNBEIBON@?$AAt?$AAa?$AA?$AA@ 00586f60     LIBCMTD:winapinls.obj
 0002:00020f68       ??_C@_15NCHGBGLK@?$AAt?$AAe?$AA?$AA@ 00586f68     LIBCMTD:winapinls.obj
 0002:00020f70       ??_C@_15PHPHCBPF@?$AAk?$AAn?$AA?$AA@ 00586f70     LIBCMTD:winapinls.obj
 0002:00020f78       ??_C@_15DLGBCKMP@?$AAm?$AAr?$AA?$AA@ 00586f78     LIBCMTD:winapinls.obj
 0002:00020f80       ??_C@_15EABBLBFF@?$AAs?$AAa?$AA?$AA@ 00586f80     LIBCMTD:winapinls.obj
 0002:00020f88       ??_C@_15CBKOMCOI@?$AAm?$AAn?$AA?$AA@ 00586f88     LIBCMTD:winapinls.obj
 0002:00020f90       ??_C@_15CKDMCJAF@?$AAg?$AAl?$AA?$AA@ 00586f90     LIBCMTD:winapinls.obj
 0002:00020f98       ??_C@_17CNJFBPG@?$AAk?$AAo?$AAk?$AA?$AA@ 00586f98     LIBCMTD:winapinls.obj
 0002:00020fa0       ??_C@_17FFBJICPL@?$AAs?$AAy?$AAr?$AA?$AA@ 00586fa0     LIBCMTD:winapinls.obj
 0002:00020fa8       ??_C@_17KPNDCPAF@?$AAd?$AAi?$AAv?$AA?$AA@ 00586fa8     LIBCMTD:winapinls.obj
 0002:00020fb0       ??_C@_1M@OKAHONE@?$AAa?$AAr?$AA?9?$AAS?$AAA?$AA?$AA@ 00586fb0     LIBCMTD:winapinls.obj
 0002:00020fbc       ??_C@_1M@FFFIGIGK@?$AAb?$AAg?$AA?9?$AAB?$AAG?$AA?$AA@ 00586fbc     LIBCMTD:winapinls.obj
 0002:00020fc8       ??_C@_1M@BJNKEDC@?$AAc?$AAa?$AA?9?$AAE?$AAS?$AA?$AA@ 00586fc8     LIBCMTD:winapinls.obj
 0002:00020fd4       ??_C@_1M@IJJHFJHA@?$AAc?$AAs?$AA?9?$AAC?$AAZ?$AA?$AA@ 00586fd4     LIBCMTD:winapinls.obj
 0002:00020fe0       ??_C@_1M@CLPEOBGI@?$AAd?$AAa?$AA?9?$AAD?$AAK?$AA?$AA@ 00586fe0     LIBCMTD:winapinls.obj
 0002:00020fec       ??_C@_1M@MCMADGCB@?$AAd?$AAe?$AA?9?$AAD?$AAE?$AA?$AA@ 00586fec     LIBCMTD:winapinls.obj
 0002:00020ff8       ??_C@_1M@OOCKEMAM@?$AAe?$AAl?$AA?9?$AAG?$AAR?$AA?$AA@ 00586ff8     LIBCMTD:winapinls.obj
 0002:00021004       ??_C@_1M@DDNJFGID@?$AAf?$AAi?$AA?9?$AAF?$AAI?$AA?$AA@ 00587004     LIBCMTD:winapinls.obj
 0002:00021010       ??_C@_1M@GLIPPMAC@?$AAf?$AAr?$AA?9?$AAF?$AAR?$AA?$AA@ 00587010     LIBCMTD:winapinls.obj
 0002:0002101c       ??_C@_1M@GFMCHPE@?$AAh?$AAe?$AA?9?$AAI?$AAL?$AA?$AA@ 0058701c     LIBCMTD:winapinls.obj
 0002:00021028       ??_C@_1M@MHLPGNKM@?$AAh?$AAu?$AA?9?$AAH?$AAU?$AA?$AA@ 00587028     LIBCMTD:winapinls.obj
 0002:00021034       ??_C@_1M@LPDDNNPN@?$AAi?$AAs?$AA?9?$AAI?$AAS?$AA?$AA@ 00587034     LIBCMTD:winapinls.obj
 0002:00021040       ??_C@_1M@MADIPODN@?$AAi?$AAt?$AA?9?$AAI?$AAT?$AA?$AA@ 00587040     LIBCMTD:winapinls.obj
 0002:0002104c       ??_C@_1M@IHBJJGG@?$AAn?$AAl?$AA?9?$AAN?$AAL?$AA?$AA@ 0058704c     LIBCMTD:winapinls.obj
 0002:00021058       ??_C@_1M@EANAGDL@?$AAn?$AAb?$AA?9?$AAN?$AAO?$AA?$AA@ 00587058     LIBCMTD:winapinls.obj
 0002:00021064       ??_C@_1M@NEIEMEGP@?$AAp?$AAl?$AA?9?$AAP?$AAL?$AA?$AA@ 00587064     LIBCMTD:winapinls.obj
 0002:00021070       ??_C@_1M@BOCFIGEP@?$AAp?$AAt?$AA?9?$AAB?$AAR?$AA?$AA@ 00587070     LIBCMTD:winapinls.obj
 0002:0002107c       ??_C@_1M@IMPFOPBG@?$AAr?$AAo?$AA?9?$AAR?$AAO?$AA?$AA@ 0058707c     LIBCMTD:winapinls.obj
 0002:00021088       ??_C@_1M@IDNNEJMM@?$AAr?$AAu?$AA?9?$AAR?$AAU?$AA?$AA@ 00587088     LIBCMTD:winapinls.obj
 0002:00021094       ??_C@_1M@LILEEOGM@?$AAh?$AAr?$AA?9?$AAH?$AAR?$AA?$AA@ 00587094     LIBCMTD:winapinls.obj
 0002:000210a0       ??_C@_1M@FKIFEHPB@?$AAs?$AAk?$AA?9?$AAS?$AAK?$AA?$AA@ 005870a0     LIBCMTD:winapinls.obj
 0002:000210ac       ??_C@_1M@LJMAMNPJ@?$AAs?$AAq?$AA?9?$AAA?$AAL?$AA?$AA@ 005870ac     LIBCMTD:winapinls.obj
 0002:000210b8       ??_C@_1M@GIAKDKJK@?$AAs?$AAv?$AA?9?$AAS?$AAE?$AA?$AA@ 005870b8     LIBCMTD:winapinls.obj
 0002:000210c4       ??_C@_1M@MKJKIKCL@?$AAt?$AAh?$AA?9?$AAT?$AAH?$AA?$AA@ 005870c4     LIBCMTD:winapinls.obj
 0002:000210d0       ??_C@_1M@MFLCCMPB@?$AAt?$AAr?$AA?9?$AAT?$AAR?$AA?$AA@ 005870d0     LIBCMTD:winapinls.obj
 0002:000210dc       ??_C@_1M@OIJHDKJN@?$AAu?$AAr?$AA?9?$AAP?$AAK?$AA?$AA@ 005870dc     LIBCMTD:winapinls.obj
 0002:000210e8       ??_C@_1M@LHIPCIEK@?$AAi?$AAd?$AA?9?$AAI?$AAD?$AA?$AA@ 005870e8     LIBCMTD:winapinls.obj
 0002:000210f4       ??_C@_1M@MFMOBGI@?$AAu?$AAk?$AA?9?$AAU?$AAA?$AA?$AA@ 005870f4     LIBCMTD:winapinls.obj
 0002:00021100       ??_C@_1M@OBGLJIPL@?$AAb?$AAe?$AA?9?$AAB?$AAY?$AA?$AA@ 00587100     LIBCMTD:winapinls.obj
 0002:0002110c       ??_C@_1M@BCFAJEAD@?$AAs?$AAl?$AA?9?$AAS?$AAI?$AA?$AA@ 0058710c     LIBCMTD:winapinls.obj
 0002:00021118       ??_C@_1M@FKFFEDDN@?$AAe?$AAt?$AA?9?$AAE?$AAE?$AA?$AA@ 00587118     LIBCMTD:winapinls.obj
 0002:00021124       ??_C@_1M@KGKKAACI@?$AAl?$AAv?$AA?9?$AAL?$AAV?$AA?$AA@ 00587124     LIBCMTD:winapinls.obj
 0002:00021130       ??_C@_1M@IFGBIJO@?$AAl?$AAt?$AA?9?$AAL?$AAT?$AA?$AA@ 00587130     LIBCMTD:winapinls.obj
 0002:0002113c       ??_C@_1M@FGEAHEDM@?$AAf?$AAa?$AA?9?$AAI?$AAR?$AA?$AA@ 0058713c     LIBCMTD:winapinls.obj
 0002:00021148       ??_C@_1M@KBMAIBFN@?$AAv?$AAi?$AA?9?$AAV?$AAN?$AA?$AA@ 00587148     LIBCMTD:winapinls.obj
 0002:00021154       ??_C@_1M@GPCBKDJK@?$AAh?$AAy?$AA?9?$AAA?$AAM?$AA?$AA@ 00587154     LIBCMTD:winapinls.obj
 0002:00021160       ??_C@_1BG@BECMDDJB@?$AAa?$AAz?$AA?9?$AAA?$AAZ?$AA?9?$AAL?$AAa?$AAt?$AAn?$AA?$AA@ 00587160     LIBCMTD:winapinls.obj
 0002:00021178       ??_C@_1M@MAOFCAEA@?$AAe?$AAu?$AA?9?$AAE?$AAS?$AA?$AA@ 00587178     LIBCMTD:winapinls.obj
 0002:00021184       ??_C@_1M@IGHABKPI@?$AAm?$AAk?$AA?9?$AAM?$AAK?$AA?$AA@ 00587184     LIBCMTD:winapinls.obj
 0002:00021190       ??_C@_1M@IAIGNEJG@?$AAt?$AAn?$AA?9?$AAZ?$AAA?$AA?$AA@ 00587190     LIBCMTD:winapinls.obj
 0002:0002119c       ??_C@_1M@IIJCOJFA@?$AAx?$AAh?$AA?9?$AAZ?$AAA?$AA?$AA@ 0058719c     LIBCMTD:winapinls.obj
 0002:000211a8       ??_C@_1M@LGPJHNJH@?$AAz?$AAu?$AA?9?$AAZ?$AAA?$AA?$AA@ 005871a8     LIBCMTD:winapinls.obj
 0002:000211b4       ??_C@_1M@HOKAOIO@?$AAa?$AAf?$AA?9?$AAZ?$AAA?$AA?$AA@ 005871b4     LIBCMTD:winapinls.obj
 0002:000211c0       ??_C@_1M@DPCLHLIE@?$AAk?$AAa?$AA?9?$AAG?$AAE?$AA?$AA@ 005871c0     LIBCMTD:winapinls.obj
 0002:000211cc       ??_C@_1M@BLKMHJBI@?$AAf?$AAo?$AA?9?$AAF?$AAO?$AA?$AA@ 005871cc     LIBCMTD:winapinls.obj
 0002:000211d8       ??_C@_1M@LGGJAPPB@?$AAh?$AAi?$AA?9?$AAI?$AAN?$AA?$AA@ 005871d8     LIBCMTD:winapinls.obj
 0002:000211e4       ??_C@_1M@FIKPIHFE@?$AAm?$AAt?$AA?9?$AAM?$AAT?$AA?$AA@ 005871e4     LIBCMTD:winapinls.obj
 0002:000211f0       ??_C@_1M@HEGGPBFA@?$AAs?$AAe?$AA?9?$AAN?$AAO?$AA?$AA@ 005871f0     LIBCMTD:winapinls.obj
 0002:000211fc       ??_C@_1M@EIBJEEPA@?$AAm?$AAs?$AA?9?$AAM?$AAY?$AA?$AA@ 005871fc     LIBCMTD:winapinls.obj
 0002:00021208       ??_C@_1M@FHLBGMPP@?$AAk?$AAk?$AA?9?$AAK?$AAZ?$AA?$AA@ 00587208     LIBCMTD:winapinls.obj
 0002:00021214       ??_C@_1M@NGJJLCGI@?$AAk?$AAy?$AA?9?$AAK?$AAG?$AA?$AA@ 00587214     LIBCMTD:winapinls.obj
 0002:00021220       ??_C@_1M@GIENNBFC@?$AAs?$AAw?$AA?9?$AAK?$AAE?$AA?$AA@ 00587220     LIBCMTD:winapinls.obj
 0002:0002122c       ??_C@_1BG@NDGMJIMJ@?$AAu?$AAz?$AA?9?$AAU?$AAZ?$AA?9?$AAL?$AAa?$AAt?$AAn?$AA?$AA@ 0058722c     LIBCMTD:winapinls.obj
 0002:00021244       ??_C@_1M@IDCCIHBC@?$AAt?$AAt?$AA?9?$AAR?$AAU?$AA?$AA@ 00587244     LIBCMTD:winapinls.obj
 0002:00021250       ??_C@_1M@LOICPMOJ@?$AAb?$AAn?$AA?9?$AAI?$AAN?$AA?$AA@ 00587250     LIBCMTD:winapinls.obj
 0002:0002125c       ??_C@_1M@KPKKNEAH@?$AAp?$AAa?$AA?9?$AAI?$AAN?$AA?$AA@ 0058725c     LIBCMTD:winapinls.obj
 0002:00021268       ??_C@_1M@PJGPPBOG@?$AAg?$AAu?$AA?9?$AAI?$AAN?$AA?$AA@ 00587268     LIBCMTD:winapinls.obj
 0002:00021274       ??_C@_1M@KMKMOPHI@?$AAt?$AAa?$AA?9?$AAI?$AAN?$AA?$AA@ 00587274     LIBCMTD:winapinls.obj
 0002:00021280       ??_C@_1M@KFEHEPAC@?$AAt?$AAe?$AA?9?$AAI?$AAN?$AA?$AA@ 00587280     LIBCMTD:winapinls.obj
 0002:0002128c       ??_C@_1M@CDCLMGHI@?$AAk?$AAn?$AA?9?$AAI?$AAN?$AA?$AA@ 0058728c     LIBCMTD:winapinls.obj
 0002:00021298       ??_C@_1M@MIODLDKF@?$AAm?$AAl?$AA?9?$AAI?$AAN?$AA?$AA@ 00587298     LIBCMTD:winapinls.obj
 0002:000212a4       ??_C@_1M@PBIEACPO@?$AAm?$AAr?$AA?9?$AAI?$AAN?$AA?$AA@ 005872a4     LIBCMTD:winapinls.obj
 0002:000212b0       ??_C@_1M@NIDEAGPH@?$AAs?$AAa?$AA?9?$AAI?$AAN?$AA?$AA@ 005872b0     LIBCMTD:winapinls.obj
 0002:000212bc       ??_C@_1M@FHIHCBIO@?$AAm?$AAn?$AA?9?$AAM?$AAN?$AA?$AA@ 005872bc     LIBCMTD:winapinls.obj
 0002:000212c8       ??_C@_1M@JAIJPENP@?$AAc?$AAy?$AA?9?$AAG?$AAB?$AA?$AA@ 005872c8     LIBCMTD:winapinls.obj
 0002:000212d4       ??_C@_1M@PHGFBEPN@?$AAg?$AAl?$AA?9?$AAE?$AAS?$AA?$AA@ 005872d4     LIBCMTD:winapinls.obj
 0002:000212e0       ??_C@_1O@KPIPDNCP@?$AAk?$AAo?$AAk?$AA?9?$AAI?$AAN?$AA?$AA@ 005872e0     LIBCMTD:winapinls.obj
 0002:000212f0       ??_C@_1O@KNHJLDJA@?$AAs?$AAy?$AAr?$AA?9?$AAS?$AAY?$AA?$AA@ 005872f0     LIBCMTD:winapinls.obj
 0002:00021300       ??_C@_1O@MKEKBLAH@?$AAd?$AAi?$AAv?$AA?9?$AAM?$AAV?$AA?$AA@ 00587300     LIBCMTD:winapinls.obj
 0002:00021310       ??_C@_1O@OHDCKDDF@?$AAq?$AAu?$AAz?$AA?9?$AAB?$AAO?$AA?$AA@ 00587310     LIBCMTD:winapinls.obj
 0002:00021320       ??_C@_1M@LEPJNLFD@?$AAn?$AAs?$AA?9?$AAZ?$AAA?$AA?$AA@ 00587320     LIBCMTD:winapinls.obj
 0002:0002132c       ??_C@_1M@OMLEIIJB@?$AAm?$AAi?$AA?9?$AAN?$AAZ?$AA?$AA@ 0058732c     LIBCMTD:winapinls.obj
 0002:00021338       ??_C@_1M@PMPEAILG@?$AAa?$AAr?$AA?9?$AAI?$AAQ?$AA?$AA@ 00587338     LIBCMTD:winapinls.obj
 0002:00021344       ??_C@_1M@CNKPNOEE@?$AAd?$AAe?$AA?9?$AAC?$AAH?$AA?$AA@ 00587344     LIBCMTD:winapinls.obj
 0002:00021350       ??_C@_1M@LKMGMLKO@?$AAe?$AAn?$AA?9?$AAG?$AAB?$AA?$AA@ 00587350     LIBCMTD:winapinls.obj
 0002:0002135c       ??_C@_1M@PGKJFFGL@?$AAe?$AAs?$AA?9?$AAM?$AAX?$AA?$AA@ 0058735c     LIBCMTD:winapinls.obj
 0002:00021368       ??_C@_1M@DNNANBDC@?$AAf?$AAr?$AA?9?$AAB?$AAE?$AA?$AA@ 00587368     LIBCMTD:winapinls.obj
 0002:00021374       ??_C@_1M@HLGMDFHM@?$AAi?$AAt?$AA?9?$AAC?$AAH?$AA?$AA@ 00587374     LIBCMTD:winapinls.obj
 0002:00021380       ??_C@_1M@CLLBGJH@?$AAn?$AAl?$AA?9?$AAB?$AAE?$AA?$AA@ 00587380     LIBCMTD:winapinls.obj
 0002:0002138c       ??_C@_1M@BODBOGLF@?$AAn?$AAn?$AA?9?$AAN?$AAO?$AA?$AA@ 0058738c     LIBCMTD:winapinls.obj
 0002:00021398       ??_C@_1M@HFFAHKAD@?$AAp?$AAt?$AA?9?$AAP?$AAT?$AA?$AA@ 00587398     LIBCMTD:winapinls.obj
 0002:000213a4       ??_C@_1BG@LNOAKHIE@?$AAs?$AAr?$AA?9?$AAS?$AAP?$AA?9?$AAL?$AAa?$AAt?$AAn?$AA?$AA@ 005873a4     LIBCMTD:winapinls.obj
 0002:000213bc       ??_C@_1M@HBMHBGAK@?$AAs?$AAv?$AA?9?$AAF?$AAI?$AA?$AA@ 005873bc     LIBCMTD:winapinls.obj
 0002:000213c8       ??_C@_1BG@DGCJGJBE@?$AAa?$AAz?$AA?9?$AAA?$AAZ?$AA?9?$AAC?$AAy?$AAr?$AAl?$AA?$AA@ 005873c8     LIBCMTD:winapinls.obj
 0002:000213e0       ??_C@_1M@KEJDAAHB@?$AAs?$AAe?$AA?9?$AAS?$AAE?$AA?$AA@ 005873e0     LIBCMTD:winapinls.obj
 0002:000213ec       ??_C@_1M@HEIBJJAD@?$AAm?$AAs?$AA?9?$AAB?$AAN?$AA?$AA@ 005873ec     LIBCMTD:winapinls.obj
 0002:000213f8       ??_C@_1BG@PBGJMCEM@?$AAu?$AAz?$AA?9?$AAU?$AAZ?$AA?9?$AAC?$AAy?$AAr?$AAl?$AA?$AA@ 005873f8     LIBCMTD:winapinls.obj
 0002:00021410       ??_C@_1O@LAOBCMDF@?$AAq?$AAu?$AAz?$AA?9?$AAE?$AAC?$AA?$AA@ 00587410     LIBCMTD:winapinls.obj
 0002:00021420       ??_C@_1M@POEEMAIO@?$AAa?$AAr?$AA?9?$AAE?$AAG?$AA?$AA@ 00587420     LIBCMTD:winapinls.obj
 0002:0002142c       ??_C@_1M@EFAKDEDL@?$AAz?$AAh?$AA?9?$AAH?$AAK?$AA?$AA@ 0058742c     LIBCMTD:winapinls.obj
 0002:00021438       ??_C@_1M@HKKIJHGI@?$AAd?$AAe?$AA?9?$AAA?$AAT?$AA?$AA@ 00587438     LIBCMTD:winapinls.obj
 0002:00021444       ??_C@_1M@KBFBEHJF@?$AAe?$AAn?$AA?9?$AAA?$AAU?$AA?$AA@ 00587444     LIBCMTD:winapinls.obj
 0002:00021450       ??_C@_1M@MNPLFAAH@?$AAe?$AAs?$AA?9?$AAE?$AAS?$AA?$AA@ 00587450     LIBCMTD:winapinls.obj
 0002:0002145c       ??_C@_1M@HJOOJFMA@?$AAf?$AAr?$AA?9?$AAC?$AAA?$AA?$AA@ 0058745c     LIBCMTD:winapinls.obj
 0002:00021468       ??_C@_1BG@JPOFPNAB@?$AAs?$AAr?$AA?9?$AAS?$AAP?$AA?9?$AAC?$AAy?$AAr?$AAl?$AA?$AA@ 00587468     LIBCMTD:winapinls.obj
 0002:00021480       ??_C@_1M@LNFOCMOB@?$AAs?$AAe?$AA?9?$AAF?$AAI?$AA?$AA@ 00587480     LIBCMTD:winapinls.obj
 0002:0002148c       ??_C@_1O@MGJBOAMB@?$AAq?$AAu?$AAz?$AA?9?$AAP?$AAE?$AA?$AA@ 0058748c     LIBCMTD:winapinls.obj
 0002:0002149c       ??_C@_1M@GJINLBOK@?$AAa?$AAr?$AA?9?$AAL?$AAY?$AA?$AA@ 0058749c     LIBCMTD:winapinls.obj
 0002:000214a8       ??_C@_1M@GGMNHJNL@?$AAz?$AAh?$AA?9?$AAS?$AAG?$AA?$AA@ 005874a8     LIBCMTD:winapinls.obj
 0002:000214b4       ??_C@_1M@HOIKODND@?$AAd?$AAe?$AA?9?$AAL?$AAU?$AA?$AA@ 005874b4     LIBCMTD:winapinls.obj
 0002:000214c0       ??_C@_1M@DDOCCGFG@?$AAe?$AAn?$AA?9?$AAC?$AAA?$AA?$AA@ 005874c0     LIBCMTD:winapinls.obj
 0002:000214cc       ??_C@_1M@BNOEMJLF@?$AAe?$AAs?$AA?9?$AAG?$AAT?$AA?$AA@ 005874cc     LIBCMTD:winapinls.obj
 0002:000214d8       ??_C@_1M@EOGNKEK@?$AAf?$AAr?$AA?9?$AAC?$AAH?$AA?$AA@ 005874d8     LIBCMTD:winapinls.obj
 0002:000214e4       ??_C@_1M@FLIDJFHL@?$AAh?$AAr?$AA?9?$AAB?$AAA?$AA?$AA@ 005874e4     LIBCMTD:winapinls.obj
 0002:000214f0       ??_C@_1O@FMCELNAJ@?$AAs?$AAm?$AAj?$AA?9?$AAN?$AAO?$AA?$AA@ 005874f0     LIBCMTD:winapinls.obj
 0002:00021500       ??_C@_1M@JHGLJMGJ@?$AAa?$AAr?$AA?9?$AAD?$AAZ?$AA?$AA@ 00587500     LIBCMTD:winapinls.obj
 0002:0002150c       ??_C@_1M@JKKFDCNP@?$AAz?$AAh?$AA?9?$AAM?$AAO?$AA?$AA@ 0058750c     LIBCMTD:winapinls.obj
 0002:00021518       ??_C@_1M@GEEFALPE@?$AAd?$AAe?$AA?9?$AAL?$AAI?$AA?$AA@ 00587518     LIBCMTD:winapinls.obj
 0002:00021524       ??_C@_1M@IGEOFBG@?$AAe?$AAn?$AA?9?$AAN?$AAZ?$AA?$AA@ 00587524     LIBCMTD:winapinls.obj
 0002:00021530       ??_C@_1M@KDBONEHP@?$AAe?$AAs?$AA?9?$AAC?$AAR?$AA?$AA@ 00587530     LIBCMTD:winapinls.obj
 0002:0002153c       ??_C@_1M@FHMDOHNN@?$AAf?$AAr?$AA?9?$AAL?$AAU?$AA?$AA@ 0058753c     LIBCMTD:winapinls.obj
 0002:00021548       ??_C@_1BG@NFKKMAFG@?$AAb?$AAs?$AA?9?$AAB?$AAA?$AA?9?$AAL?$AAa?$AAt?$AAn?$AA?$AA@ 00587548     LIBCMTD:winapinls.obj
 0002:00021560       ??_C@_1O@IMNBEMCI@?$AAs?$AAm?$AAj?$AA?9?$AAS?$AAE?$AA?$AA@ 00587560     LIBCMTD:winapinls.obj
 0002:00021570       ??_C@_1M@DHHMBNDP@?$AAa?$AAr?$AA?9?$AAM?$AAA?$AA?$AA@ 00587570     LIBCMTD:winapinls.obj
 0002:0002157c       ??_C@_1M@BNBLJCGH@?$AAe?$AAn?$AA?9?$AAI?$AAE?$AA?$AA@ 0058757c     LIBCMTD:winapinls.obj
 0002:00021588       ??_C@_1M@GEPAFMDL@?$AAe?$AAs?$AA?9?$AAP?$AAA?$AA?$AA@ 00587588     LIBCMTD:winapinls.obj
 0002:00021594       ??_C@_1M@OJONDMDL@?$AAf?$AAr?$AA?9?$AAM?$AAC?$AA?$AA@ 00587594     LIBCMTD:winapinls.obj
 0002:000215a0       ??_C@_1BG@OBCNFJB@?$AAs?$AAr?$AA?9?$AAB?$AAA?$AA?9?$AAL?$AAa?$AAt?$AAn?$AA?$AA@ 005875a0     LIBCMTD:winapinls.obj
 0002:000215b8       ??_C@_1O@KEMEEGPO@?$AAs?$AAm?$AAa?$AA?9?$AAN?$AAO?$AA?$AA@ 005875b8     LIBCMTD:winapinls.obj
 0002:000215c8       ??_C@_1M@ELMGFODK@?$AAa?$AAr?$AA?9?$AAT?$AAN?$AA?$AA@ 005875c8     LIBCMTD:winapinls.obj
 0002:000215d4       ??_C@_1M@BHDLHFAF@?$AAe?$AAn?$AA?9?$AAZ?$AAA?$AA?$AA@ 005875d4     LIBCMTD:winapinls.obj
 0002:000215e0       ??_C@_1M@BMGIGLIF@?$AAe?$AAs?$AA?9?$AAD?$AAO?$AA?$AA@ 005875e0     LIBCMTD:winapinls.obj
 0002:000215ec       ??_C@_1BG@CMBHIPBE@?$AAs?$AAr?$AA?9?$AAB?$AAA?$AA?9?$AAC?$AAy?$AAr?$AAl?$AA?$AA@ 005875ec     LIBCMTD:winapinls.obj
 0002:00021604       ??_C@_1O@HEDBLHNP@?$AAs?$AAm?$AAa?$AA?9?$AAS?$AAE?$AA?$AA@ 00587604     LIBCMTD:winapinls.obj
 0002:00021614       ??_C@_1M@DAGCADIM@?$AAa?$AAr?$AA?9?$AAO?$AAM?$AA?$AA@ 00587614     LIBCMTD:winapinls.obj
 0002:00021620       ??_C@_1M@FODLMICG@?$AAe?$AAn?$AA?9?$AAJ?$AAM?$AA?$AA@ 00587620     LIBCMTD:winapinls.obj
 0002:0002162c       ??_C@_1M@DNMLCIHB@?$AAe?$AAs?$AA?9?$AAV?$AAE?$AA?$AA@ 0058762c     LIBCMTD:winapinls.obj
 0002:00021638       ??_C@_1O@EOKHMKJK@?$AAs?$AAm?$AAs?$AA?9?$AAF?$AAI?$AA?$AA@ 00587638     LIBCMTD:winapinls.obj
 0002:00021648       ??_C@_1M@CAFJMKOF@?$AAa?$AAr?$AA?9?$AAY?$AAE?$AA?$AA@ 00587648     LIBCMTD:winapinls.obj
 0002:00021654       ??_C@_1M@CBFHIJLI@?$AAe?$AAn?$AA?9?$AAC?$AAB?$AA?$AA@ 00587654     LIBCMTD:winapinls.obj
 0002:00021660       ??_C@_1M@BGNFLDN@?$AAe?$AAs?$AA?9?$AAC?$AAO?$AA?$AA@ 00587660     LIBCMTD:winapinls.obj
 0002:0002166c       ??_C@_1O@JMPHMAMC@?$AAs?$AAm?$AAn?$AA?9?$AAF?$AAI?$AA?$AA@ 0058766c     LIBCMTD:winapinls.obj
 0002:0002167c       ??_C@_1M@JLANABKE@?$AAa?$AAr?$AA?9?$AAS?$AAY?$AA?$AA@ 0058767c     LIBCMTD:winapinls.obj
 0002:00021688       ??_C@_1M@HPKGCFGN@?$AAe?$AAn?$AA?9?$AAB?$AAZ?$AA?$AA@ 00587688     LIBCMTD:winapinls.obj
 0002:00021694       ??_C@_1M@OLJCMLGM@?$AAe?$AAs?$AA?9?$AAP?$AAE?$AA?$AA@ 00587694     LIBCMTD:winapinls.obj
 0002:000216a0       ??_C@_1M@MKKGFKLE@?$AAa?$AAr?$AA?9?$AAJ?$AAO?$AA?$AA@ 005876a0     LIBCMTD:winapinls.obj
 0002:000216ac       ??_C@_1M@EKPGLDNI@?$AAe?$AAn?$AA?9?$AAT?$AAT?$AA?$AA@ 005876ac     LIBCMTD:winapinls.obj
 0002:000216b8       ??_C@_1M@OONGHFHE@?$AAe?$AAs?$AA?9?$AAA?$AAR?$AA?$AA@ 005876b8     LIBCMTD:winapinls.obj
 0002:000216c4       ??_C@_1M@OOJFGBHE@?$AAa?$AAr?$AA?9?$AAL?$AAB?$AA?$AA@ 005876c4     LIBCMTD:winapinls.obj
 0002:000216d0       ??_C@_1M@GCEJHNEG@?$AAe?$AAn?$AA?9?$AAZ?$AAW?$AA?$AA@ 005876d0     LIBCMTD:winapinls.obj
 0002:000216dc       ??_C@_1M@JNOCAHJI@?$AAe?$AAs?$AA?9?$AAE?$AAC?$AA?$AA@ 005876dc     LIBCMTD:winapinls.obj
 0002:000216e8       ??_C@_1M@JEFHPGGB@?$AAa?$AAr?$AA?9?$AAK?$AAW?$AA?$AA@ 005876e8     LIBCMTD:winapinls.obj
 0002:000216f4       ??_C@_1M@MLKIBJOJ@?$AAe?$AAn?$AA?9?$AAP?$AAH?$AA?$AA@ 005876f4     LIBCMTD:winapinls.obj
 0002:00021700       ??_C@_1M@BDNIPEND@?$AAe?$AAs?$AA?9?$AAC?$AAL?$AA?$AA@ 00587700     LIBCMTD:winapinls.obj
 0002:0002170c       ??_C@_1M@MPNMEKBD@?$AAa?$AAr?$AA?9?$AAA?$AAE?$AA?$AA@ 0058770c     LIBCMTD:winapinls.obj
 0002:00021718       ??_C@_1M@KBJALCPI@?$AAe?$AAs?$AA?9?$AAU?$AAY?$AA?$AA@ 00587718     LIBCMTD:winapinls.obj
 0002:00021724       ??_C@_1M@LLCCOAGA@?$AAa?$AAr?$AA?9?$AAB?$AAH?$AA?$AA@ 00587724     LIBCMTD:winapinls.obj
 0002:00021730       ??_C@_1M@PBFNCDEL@?$AAe?$AAs?$AA?9?$AAP?$AAY?$AA?$AA@ 00587730     LIBCMTD:winapinls.obj
 0002:0002173c       ??_C@_1M@EDGINPNP@?$AAa?$AAr?$AA?9?$AAQ?$AAA?$AA?$AA@ 0058773c     LIBCMTD:winapinls.obj
 0002:00021748       ??_C@_1M@MKDBIIJI@?$AAe?$AAs?$AA?9?$AAB?$AAO?$AA?$AA@ 00587748     LIBCMTD:winapinls.obj
 0002:00021754       ??_C@_1M@CPKKEBLD@?$AAe?$AAs?$AA?9?$AAS?$AAV?$AA?$AA@ 00587754     LIBCMTD:winapinls.obj
 0002:00021760       ??_C@_1M@NDBGMMJL@?$AAe?$AAs?$AA?9?$AAH?$AAN?$AA?$AA@ 00587760     LIBCMTD:winapinls.obj
 0002:0002176c       ??_C@_1M@JIJIBHDP@?$AAe?$AAs?$AA?9?$AAN?$AAI?$AA?$AA@ 0058776c     LIBCMTD:winapinls.obj
 0002:00021778       ??_C@_1M@CGFMKEEK@?$AAe?$AAs?$AA?9?$AAP?$AAR?$AA?$AA@ 00587778     LIBCMTD:winapinls.obj
 0002:00021784       ??_C@_1O@ICJHKIIK@?$AAz?$AAh?$AA?9?$AAC?$AAH?$AAT?$AA?$AA@ 00587784     LIBCMTD:winapinls.obj
 0002:00021794       ??_C@_15CLNEJCE@?$AAs?$AAr?$AA?$AA@ 00587794     LIBCMTD:winapinls.obj
 0002:000217a0       _LocaleNameToIndexTable    005877a0     LIBCMTD:winapinls.obj
 0002:00021ec0       _LcidToLocaleNameTable     00587ec0     LIBCMTD:winapinls.obj
 0002:000225e0       ??_C@_1M@KAHEKEIG@?$AAa?$AAf?$AA?9?$AAz?$AAa?$AA?$AA@ 005885e0     LIBCMTD:winapinls.obj
 0002:000225ec       ??_C@_1M@GIECOABL@?$AAa?$AAr?$AA?9?$AAa?$AAe?$AA?$AA@ 005885ec     LIBCMTD:winapinls.obj
 0002:000225f8       ??_C@_1M@BMLMEKGI@?$AAa?$AAr?$AA?9?$AAb?$AAh?$AA?$AA@ 005885f8     LIBCMTD:winapinls.obj
 0002:00022604       ??_C@_1M@DAPFDGGB@?$AAa?$AAr?$AA?9?$AAd?$AAz?$AA?$AA@ 00588604     LIBCMTD:winapinls.obj
 0002:00022610       ??_C@_1M@FJNKGKIG@?$AAa?$AAr?$AA?9?$AAe?$AAg?$AA?$AA@ 00588610     LIBCMTD:winapinls.obj
 0002:0002261c       ??_C@_1M@FLGKKCLO@?$AAa?$AAr?$AA?9?$AAi?$AAq?$AA?$AA@ 0058861c     LIBCMTD:winapinls.obj
 0002:00022628       ??_C@_1M@GNDIPALM@?$AAa?$AAr?$AA?9?$AAj?$AAo?$AA?$AA@ 00588628     LIBCMTD:winapinls.obj
 0002:00022634       ??_C@_1M@DDMJFMGJ@?$AAa?$AAr?$AA?9?$AAk?$AAw?$AA?$AA@ 00588634     LIBCMTD:winapinls.obj
 0002:00022640       ??_C@_1M@EJALMLHM@?$AAa?$AAr?$AA?9?$AAl?$AAb?$AA?$AA@ 00588640     LIBCMTD:winapinls.obj
 0002:0002264c       ??_C@_1M@MOBDBLOC@?$AAa?$AAr?$AA?9?$AAl?$AAy?$AA?$AA@ 0058864c     LIBCMTD:winapinls.obj
 0002:00022658       ??_C@_1M@JAOCLHDH@?$AAa?$AAr?$AA?9?$AAm?$AAa?$AA?$AA@ 00588658     LIBCMTD:winapinls.obj
 0002:00022664       ??_C@_1M@JHPMKJIE@?$AAa?$AAr?$AA?9?$AAo?$AAm?$AA?$AA@ 00588664     LIBCMTD:winapinls.obj
 0002:00022670       ??_C@_1M@OEPGHFNH@?$AAa?$AAr?$AA?9?$AAq?$AAa?$AA?$AA@ 00588670     LIBCMTD:winapinls.obj
 0002:0002267c       ??_C@_1M@KJDONENM@?$AAa?$AAr?$AA?9?$AAs?$AAa?$AA?$AA@ 0058867c     LIBCMTD:winapinls.obj
 0002:00022688       ??_C@_1M@DMJDKLKM@?$AAa?$AAr?$AA?9?$AAs?$AAy?$AA?$AA@ 00588688     LIBCMTD:winapinls.obj
 0002:00022694       ??_C@_1M@OMFIPEDC@?$AAa?$AAr?$AA?9?$AAt?$AAn?$AA?$AA@ 00588694     LIBCMTD:winapinls.obj
 0002:000226a0       ??_C@_1M@IHMHGAON@?$AAa?$AAr?$AA?9?$AAy?$AAe?$AA?$AA@ 005886a0     LIBCMTD:winapinls.obj
 0002:000226ac       ??_C@_1BG@KDCPGJGB@?$AAa?$AAz?$AA?9?$AAa?$AAz?$AA?9?$AAc?$AAy?$AAr?$AAl?$AA?$AA@ 005886ac     LIBCMTD:winapinls.obj
 0002:000226c4       ??_C@_1BG@IBCKDDOE@?$AAa?$AAz?$AA?9?$AAa?$AAz?$AA?9?$AAl?$AAa?$AAt?$AAn?$AA?$AA@ 005886c4     LIBCMTD:winapinls.obj
 0002:000226dc       ??_C@_1M@EGPFDCPD@?$AAb?$AAe?$AA?9?$AAb?$AAy?$AA?$AA@ 005886dc     LIBCMTD:winapinls.obj
 0002:000226e8       ??_C@_1M@PCMGMCGC@?$AAb?$AAg?$AA?9?$AAb?$AAg?$AA?$AA@ 005886e8     LIBCMTD:winapinls.obj
 0002:000226f4       ??_C@_1M@BJBMFGOB@?$AAb?$AAn?$AA?9?$AAi?$AAn?$AA?$AA@ 005886f4     LIBCMTD:winapinls.obj
 0002:00022700       ??_C@_1BG@EAKMMACD@?$AAb?$AAs?$AA?9?$AAb?$AAa?$AA?9?$AAl?$AAa?$AAt?$AAn?$AA?$AA@ 00588700     LIBCMTD:winapinls.obj
 0002:00022718       ??_C@_1M@KGADAODK@?$AAc?$AAa?$AA?9?$AAe?$AAs?$AA?$AA@ 00588718     LIBCMTD:winapinls.obj
 0002:00022724       ??_C@_1M@COAJPDHI@?$AAc?$AAs?$AA?9?$AAc?$AAz?$AA?$AA@ 00588724     LIBCMTD:winapinls.obj
 0002:00022730       ??_C@_1M@DHBHFONH@?$AAc?$AAy?$AA?9?$AAg?$AAb?$AA?$AA@ 00588730     LIBCMTD:winapinls.obj
 0002:0002273c       ??_C@_1M@IMGKELGA@?$AAd?$AAa?$AA?9?$AAd?$AAk?$AA?$AA@ 0058873c     LIBCMTD:winapinls.obj
 0002:00022748       ??_C@_1M@NNDGDNGA@?$AAd?$AAe?$AA?9?$AAa?$AAt?$AA?$AA@ 00588748     LIBCMTD:winapinls.obj
 0002:00022754       ??_C@_1M@IKDBHEEM@?$AAd?$AAe?$AA?9?$AAc?$AAh?$AA?$AA@ 00588754     LIBCMTD:winapinls.obj
 0002:00022760       ??_C@_1M@GFFOJMCJ@?$AAd?$AAe?$AA?9?$AAd?$AAe?$AA?$AA@ 00588760     LIBCMTD:winapinls.obj
 0002:0002276c       ??_C@_1M@MDNLKBPM@?$AAd?$AAe?$AA?9?$AAl?$AAi?$AA?$AA@ 0058876c     LIBCMTD:winapinls.obj
 0002:00022778       ??_C@_1M@NJBEEJNL@?$AAd?$AAe?$AA?9?$AAl?$AAu?$AA?$AA@ 00588778     LIBCMTD:winapinls.obj
 0002:00022784       ??_C@_1O@GNNELBAP@?$AAd?$AAi?$AAv?$AA?9?$AAm?$AAv?$AA?$AA@ 00588784     LIBCMTD:winapinls.obj
 0002:00022794       ??_C@_1M@EJLEOGAE@?$AAe?$AAl?$AA?9?$AAg?$AAr?$AA?$AA@ 00588794     LIBCMTD:winapinls.obj
 0002:000227a0       ??_C@_1M@GMPONJN@?$AAe?$AAn?$AA?9?$AAa?$AAu?$AA?$AA@ 005887a0     LIBCMTD:winapinls.obj
 0002:000227ac       ??_C@_1M@NIDIIPGF@?$AAe?$AAn?$AA?9?$AAb?$AAz?$AA?$AA@ 005887ac     LIBCMTD:winapinls.obj
 0002:000227b8       ??_C@_1M@JEHMIMFO@?$AAe?$AAn?$AA?9?$AAc?$AAa?$AA?$AA@ 005887b8     LIBCMTD:winapinls.obj
 0002:000227c4       ??_C@_1M@IGMJCDLA@?$AAe?$AAn?$AA?9?$AAc?$AAb?$AA?$AA@ 005887c4     LIBCMTD:winapinls.obj
 0002:000227d0       ??_C@_1M@BNFIGBKG@?$AAe?$AAn?$AA?9?$AAg?$AAb?$AA?$AA@ 005887d0     LIBCMTD:winapinls.obj
 0002:000227dc       ??_C@_1M@LKIFDIGP@?$AAe?$AAn?$AA?9?$AAi?$AAe?$AA?$AA@ 005887dc     LIBCMTD:winapinls.obj
 0002:000227e8       ??_C@_1M@PJKFGCCO@?$AAe?$AAn?$AA?9?$AAj?$AAm?$AA?$AA@ 005887e8     LIBCMTD:winapinls.obj
 0002:000227f4       ??_C@_1M@KPPKEPBO@?$AAe?$AAn?$AA?9?$AAn?$AAz?$AA?$AA@ 005887f4     LIBCMTD:winapinls.obj
 0002:00022800       ??_C@_1M@GMDGLDOB@?$AAe?$AAn?$AA?9?$AAp?$AAh?$AA?$AA@ 00588800     LIBCMTD:winapinls.obj
 0002:0002280c       ??_C@_1M@ONGIBJNA@?$AAe?$AAn?$AA?9?$AAt?$AAt?$AA?$AA@ 0058880c     LIBCMTD:winapinls.obj
 0002:00022818       ??_C@_1M@LLODPCMM@?$AAe?$AAn?$AA?9?$AAu?$AAs?$AA?$AA@ 00588818     LIBCMTD:winapinls.obj
 0002:00022824       ??_C@_1M@LAKFNPAN@?$AAe?$AAn?$AA?9?$AAz?$AAa?$AA?$AA@ 00588824     LIBCMTD:winapinls.obj
 0002:00022830       ??_C@_1M@MFNHNHEO@?$AAe?$AAn?$AA?9?$AAz?$AAw?$AA?$AA@ 00588830     LIBCMTD:winapinls.obj
 0002:0002283c       ??_C@_1M@EJEINPHM@?$AAe?$AAs?$AA?9?$AAa?$AAr?$AA?$AA@ 0058883c     LIBCMTD:winapinls.obj
 0002:00022848       ??_C@_1M@GNKPCCJA@?$AAe?$AAs?$AA?9?$AAb?$AAo?$AA?$AA@ 00588848     LIBCMTD:winapinls.obj
 0002:00022854       ??_C@_1M@LEEGFONL@?$AAe?$AAs?$AA?9?$AAc?$AAl?$AA?$AA@ 00588854     LIBCMTD:winapinls.obj
 0002:00022860       ??_C@_1M@KGPDPBDF@?$AAe?$AAs?$AA?9?$AAc?$AAo?$AA?$AA@ 00588860     LIBCMTD:winapinls.obj
 0002:0002286c       ??_C@_1M@EIAHOHH@?$AAe?$AAs?$AA?9?$AAc?$AAr?$AA?$AA@ 0058886c     LIBCMTD:winapinls.obj
 0002:00022878       ??_C@_1M@LLPGMBIN@?$AAe?$AAs?$AA?9?$AAd?$AAo?$AA?$AA@ 00588878     LIBCMTD:winapinls.obj
 0002:00022884       ??_C@_1M@DKHMKNJA@?$AAe?$AAs?$AA?9?$AAe?$AAc?$AA?$AA@ 00588884     LIBCMTD:winapinls.obj
 0002:00022890       ??_C@_1M@GKGFPKAP@?$AAe?$AAs?$AA?9?$AAe?$AAs?$AA?$AA@ 00588890     LIBCMTD:winapinls.obj
 0002:0002289c       ??_C@_1M@LKHKGDLN@?$AAe?$AAs?$AA?9?$AAg?$AAt?$AA?$AA@ 0058889c     LIBCMTD:winapinls.obj
 0002:000228a8       ??_C@_1M@HEIIGGJD@?$AAe?$AAs?$AA?9?$AAh?$AAn?$AA?$AA@ 005888a8     LIBCMTD:winapinls.obj
 0002:000228b4       ??_C@_1M@FBDHPPGD@?$AAe?$AAs?$AA?9?$AAm?$AAx?$AA?$AA@ 005888b4     LIBCMTD:winapinls.obj
 0002:000228c0       ??_C@_1M@DPAGLNDH@?$AAe?$AAs?$AA?9?$AAn?$AAi?$AA?$AA@ 005888c0     LIBCMTD:winapinls.obj
 0002:000228cc       ??_C@_1M@MDGOPGDD@?$AAe?$AAs?$AA?9?$AAp?$AAa?$AA?$AA@ 005888cc     LIBCMTD:winapinls.obj
 0002:000228d8       ??_C@_1M@EMAMGBGE@?$AAe?$AAs?$AA?9?$AAp?$AAe?$AA?$AA@ 005888d8     LIBCMTD:winapinls.obj
 0002:000228e4       ??_C@_1M@IBMCAOEC@?$AAe?$AAs?$AA?9?$AAp?$AAr?$AA?$AA@ 005888e4     LIBCMTD:winapinls.obj
 0002:000228f0       ??_C@_1M@FGMDIJED@?$AAe?$AAs?$AA?9?$AAp?$AAy?$AA?$AA@ 005888f0     LIBCMTD:winapinls.obj
 0002:000228fc       ??_C@_1M@IIDEOLLL@?$AAe?$AAs?$AA?9?$AAs?$AAv?$AA?$AA@ 005888fc     LIBCMTD:winapinls.obj
 0002:00022908       ??_C@_1M@GAOBIPA@?$AAe?$AAs?$AA?9?$AAu?$AAy?$AA?$AA@ 00588908     LIBCMTD:winapinls.obj
 0002:00022914       ??_C@_1M@JKFFICHJ@?$AAe?$AAs?$AA?9?$AAv?$AAe?$AA?$AA@ 00588914     LIBCMTD:winapinls.obj
 0002:00022920       ??_C@_1M@PNMLOJDF@?$AAe?$AAt?$AA?9?$AAe?$AAe?$AA?$AA@ 00588920     LIBCMTD:winapinls.obj
 0002:0002292c       ??_C@_1M@GHHLIKEI@?$AAe?$AAu?$AA?9?$AAe?$AAs?$AA?$AA@ 0058892c     LIBCMTD:winapinls.obj
 0002:00022938       ??_C@_1M@PBNONODE@?$AAf?$AAa?$AA?9?$AAi?$AAr?$AA?$AA@ 00588938     LIBCMTD:winapinls.obj
 0002:00022944       ??_C@_1M@JEEHPMIL@?$AAf?$AAi?$AA?9?$AAf?$AAi?$AA?$AA@ 00588944     LIBCMTD:winapinls.obj
 0002:00022950       ??_C@_1M@LMDCNDBA@?$AAf?$AAo?$AA?9?$AAf?$AAo?$AA?$AA@ 00588950     LIBCMTD:winapinls.obj
 0002:0002295c       ??_C@_1M@JKEOHLDK@?$AAf?$AAr?$AA?9?$AAb?$AAe?$AA?$AA@ 0058895c     LIBCMTD:winapinls.obj
 0002:00022968       ??_C@_1M@NOHADPMI@?$AAf?$AAr?$AA?9?$AAc?$AAa?$AA?$AA@ 00588968     LIBCMTD:winapinls.obj
 0002:00022974       ??_C@_1M@KDHIHAEC@?$AAf?$AAr?$AA?9?$AAc?$AAh?$AA?$AA@ 00588974     LIBCMTD:winapinls.obj
 0002:00022980       ??_C@_1M@MMBBFGAK@?$AAf?$AAr?$AA?9?$AAf?$AAr?$AA?$AA@ 00588980     LIBCMTD:winapinls.obj
 0002:0002298c       ??_C@_1M@PAFNENNF@?$AAf?$AAr?$AA?9?$AAl?$AAu?$AA?$AA@ 0058898c     LIBCMTD:winapinls.obj
 0002:00022998       ??_C@_1M@EOHDJGDD@?$AAf?$AAr?$AA?9?$AAm?$AAc?$AA?$AA@ 00588998     LIBCMTD:winapinls.obj
 0002:000229a4       ??_C@_1M@FAPLLOPF@?$AAg?$AAl?$AA?9?$AAe?$AAs?$AA?$AA@ 005889a4     LIBCMTD:winapinls.obj
 0002:000229b0       ??_C@_1M@FOPBFLOO@?$AAg?$AAu?$AA?9?$AAi?$AAn?$AA?$AA@ 005889b0     LIBCMTD:winapinls.obj
 0002:000229bc       ??_C@_1M@KBMCINPM@?$AAh?$AAe?$AA?9?$AAi?$AAl?$AA?$AA@ 005889bc     LIBCMTD:winapinls.obj
 0002:000229c8       ??_C@_1M@BBPHKFPJ@?$AAh?$AAi?$AA?9?$AAi?$AAn?$AA?$AA@ 005889c8     LIBCMTD:winapinls.obj
 0002:000229d4       ??_C@_1M@PMBNDPHD@?$AAh?$AAr?$AA?9?$AAb?$AAa?$AA?$AA@ 005889d4     LIBCMTD:winapinls.obj
 0002:000229e0       ??_C@_1M@BPCKOEGE@?$AAh?$AAr?$AA?9?$AAh?$AAr?$AA?$AA@ 005889e0     LIBCMTD:winapinls.obj
 0002:000229ec       ??_C@_1M@GACBMHKE@?$AAh?$AAu?$AA?9?$AAh?$AAu?$AA?$AA@ 005889ec     LIBCMTD:winapinls.obj
 0002:000229f8       ??_C@_1M@MILPAJJC@?$AAh?$AAy?$AA?9?$AAa?$AAm?$AA?$AA@ 005889f8     LIBCMTD:winapinls.obj
 0002:00022a04       ??_C@_1M@BABBICEC@?$AAi?$AAd?$AA?9?$AAi?$AAd?$AA?$AA@ 00588a04     LIBCMTD:winapinls.obj
 0002:00022a10       ??_C@_1M@BIKNHHPF@?$AAi?$AAs?$AA?9?$AAi?$AAs?$AA?$AA@ 00588a10     LIBCMTD:winapinls.obj
 0002:00022a1c       ??_C@_1M@NMPCJPHE@?$AAi?$AAt?$AA?9?$AAc?$AAh?$AA?$AA@ 00588a1c     LIBCMTD:winapinls.obj
 0002:00022a28       ??_C@_1M@GHKGFEDF@?$AAi?$AAt?$AA?9?$AAi?$AAt?$AA?$AA@ 00588a28     LIBCMTD:winapinls.obj
 0002:00022a34       ??_C@_1M@NIEJCJJA@?$AAj?$AAa?$AA?9?$AAj?$AAp?$AA?$AA@ 00588a34     LIBCMTD:winapinls.obj
 0002:00022a40       ??_C@_1M@JILFNBIM@?$AAk?$AAa?$AA?9?$AAg?$AAe?$AA?$AA@ 00588a40     LIBCMTD:winapinls.obj
 0002:00022a4c       ??_C@_1M@PACPMGPH@?$AAk?$AAk?$AA?9?$AAk?$AAz?$AA?$AA@ 00588a4c     LIBCMTD:winapinls.obj
 0002:00022a58       ??_C@_1M@IELFGMHA@?$AAk?$AAn?$AA?9?$AAi?$AAn?$AA?$AA@ 00588a58     LIBCMTD:winapinls.obj
 0002:00022a64       ??_C@_1O@IBBJHCH@?$AAk?$AAo?$AAk?$AA?9?$AAi?$AAn?$AA?$AA@ 00588a64     LIBCMTD:winapinls.obj
 0002:00022a74       ??_C@_1M@DMHAEOGC@?$AAk?$AAo?$AA?9?$AAk?$AAr?$AA?$AA@ 00588a74     LIBCMTD:winapinls.obj
 0002:00022a80       ??_C@_1M@HBAHBIGA@?$AAk?$AAy?$AA?9?$AAk?$AAg?$AA?$AA@ 00588a80     LIBCMTD:winapinls.obj
 0002:00022a8c       ??_C@_1M@KPMILCJG@?$AAl?$AAt?$AA?9?$AAl?$AAt?$AA?$AA@ 00588a8c     LIBCMTD:winapinls.obj
 0002:00022a98       ??_C@_1M@BDEKKCA@?$AAl?$AAv?$AA?9?$AAl?$AAv?$AA?$AA@ 00588a98     LIBCMTD:winapinls.obj
 0002:00022aa4       ??_C@_1M@ELCKCCJJ@?$AAm?$AAi?$AA?9?$AAn?$AAz?$AA?$AA@ 00588aa4     LIBCMTD:winapinls.obj
 0002:00022ab0       ??_C@_1M@CBOOLAPA@?$AAm?$AAk?$AA?9?$AAm?$AAk?$AA?$AA@ 00588ab0     LIBCMTD:winapinls.obj
 0002:00022abc       ??_C@_1M@GPHNBJKN@?$AAm?$AAl?$AA?9?$AAi?$AAn?$AA?$AA@ 00588abc     LIBCMTD:winapinls.obj
 0002:00022ac8       ??_C@_1M@PABJILIG@?$AAm?$AAn?$AA?9?$AAm?$AAn?$AA?$AA@ 00588ac8     LIBCMTD:winapinls.obj
 0002:00022ad4       ??_C@_1M@FGBKKIPG@?$AAm?$AAr?$AA?9?$AAi?$AAn?$AA?$AA@ 00588ad4     LIBCMTD:winapinls.obj
 0002:00022ae0       ??_C@_1M@NDBPDDAL@?$AAm?$AAs?$AA?9?$AAb?$AAn?$AA?$AA@ 00588ae0     LIBCMTD:winapinls.obj
 0002:00022aec       ??_C@_1M@OPIHOOPI@?$AAm?$AAs?$AA?9?$AAm?$AAy?$AA?$AA@ 00588aec     LIBCMTD:winapinls.obj
 0002:00022af8       ??_C@_1M@PPDBCNFM@?$AAm?$AAt?$AA?9?$AAm?$AAt?$AA?$AA@ 00588af8     LIBCMTD:winapinls.obj
 0002:00022b04       ??_C@_1M@KDJDKMDD@?$AAn?$AAb?$AA?9?$AAn?$AAo?$AA?$AA@ 00588b04     LIBCMTD:winapinls.obj
 0002:00022b10       ??_C@_1M@KFCFLMJP@?$AAn?$AAl?$AA?9?$AAb?$AAe?$AA?$AA@ 00588b10     LIBCMTD:winapinls.obj
 0002:00022b1c       ??_C@_1M@KPOPDDGO@?$AAn?$AAl?$AA?9?$AAn?$AAl?$AA?$AA@ 00588b1c     LIBCMTD:winapinls.obj
 0002:00022b28       ??_C@_1M@LJKPEMLN@?$AAn?$AAn?$AA?9?$AAn?$AAo?$AA?$AA@ 00588b28     LIBCMTD:winapinls.obj
 0002:00022b34       ??_C@_1M@BDGHHBFL@?$AAn?$AAs?$AA?9?$AAz?$AAa?$AA?$AA@ 00588b34     LIBCMTD:winapinls.obj
 0002:00022b40       ??_C@_1M@IDEHOAP@?$AAp?$AAa?$AA?9?$AAi?$AAn?$AA?$AA@ 00588b40     LIBCMTD:winapinls.obj
 0002:00022b4c       ??_C@_1M@HDBKGOGH@?$AAp?$AAl?$AA?9?$AAp?$AAl?$AA?$AA@ 00588b4c     LIBCMTD:winapinls.obj
 0002:00022b58       ??_C@_1M@LJLLCMEH@?$AAp?$AAt?$AA?9?$AAb?$AAr?$AA?$AA@ 00588b58     LIBCMTD:winapinls.obj
 0002:00022b64       ??_C@_1M@NCMONAAL@?$AAp?$AAt?$AA?9?$AAp?$AAt?$AA?$AA@ 00588b64     LIBCMTD:winapinls.obj
 0002:00022b70       ??_C@_1O@EAKMAJDN@?$AAq?$AAu?$AAz?$AA?9?$AAb?$AAo?$AA?$AA@ 00588b70     LIBCMTD:winapinls.obj
 0002:00022b80       ??_C@_1O@BHHPIGDN@?$AAq?$AAu?$AAz?$AA?9?$AAe?$AAc?$AA?$AA@ 00588b80     LIBCMTD:winapinls.obj
 0002:00022b90       ??_C@_1O@GBAPEKMJ@?$AAq?$AAu?$AAz?$AA?9?$AAp?$AAe?$AA?$AA@ 00588b90     LIBCMTD:winapinls.obj
 0002:00022ba0       ??_C@_1M@CLGLEFBO@?$AAr?$AAo?$AA?9?$AAr?$AAo?$AA?$AA@ 00588ba0     LIBCMTD:winapinls.obj
 0002:00022bac       ??_C@_1M@CEEDODME@?$AAr?$AAu?$AA?9?$AAr?$AAu?$AA?$AA@ 00588bac     LIBCMTD:winapinls.obj
 0002:00022bb8       ??_C@_1M@HPKKKMPP@?$AAs?$AAa?$AA?9?$AAi?$AAn?$AA?$AA@ 00588bb8     LIBCMTD:winapinls.obj
 0002:00022bc4       ??_C@_1M@BKMAIGOJ@?$AAs?$AAe?$AA?9?$AAf?$AAi?$AA?$AA@ 00588bc4     LIBCMTD:winapinls.obj
 0002:00022bd0       ??_C@_1M@NDPIFLFI@?$AAs?$AAe?$AA?9?$AAn?$AAo?$AA?$AA@ 00588bd0     LIBCMTD:winapinls.obj
 0002:00022bdc       ??_C@_1M@DANKKHJ@?$AAs?$AAe?$AA?9?$AAs?$AAe?$AA?$AA@ 00588bdc     LIBCMTD:winapinls.obj
 0002:00022be8       ??_C@_1M@PNBLONPJ@?$AAs?$AAk?$AA?9?$AAs?$AAk?$AA?$AA@ 00588be8     LIBCMTD:winapinls.obj
 0002:00022bf4       ??_C@_1M@LFMODOAL@?$AAs?$AAl?$AA?9?$AAs?$AAi?$AA?$AA@ 00588bf4     LIBCMTD:winapinls.obj
 0002:00022c00       ??_C@_1O@DFKOMPG@?$AAs?$AAm?$AAa?$AA?9?$AAn?$AAo?$AA?$AA@ 00588c00     LIBCMTD:winapinls.obj
 0002:00022c10       ??_C@_1O@NDKPBNNH@?$AAs?$AAm?$AAa?$AA?9?$AAs?$AAe?$AA?$AA@ 00588c10     LIBCMTD:winapinls.obj
 0002:00022c20       ??_C@_1O@PLLKBHAB@?$AAs?$AAm?$AAj?$AA?9?$AAn?$AAo?$AA?$AA@ 00588c20     LIBCMTD:winapinls.obj
 0002:00022c30       ??_C@_1O@CLEPOGCA@?$AAs?$AAm?$AAj?$AA?9?$AAs?$AAe?$AA?$AA@ 00588c30     LIBCMTD:winapinls.obj
 0002:00022c40       ??_C@_1O@DLGJGKMK@?$AAs?$AAm?$AAn?$AA?9?$AAf?$AAi?$AA?$AA@ 00588c40     LIBCMTD:winapinls.obj
 0002:00022c50       ??_C@_1O@OJDJGAJC@?$AAs?$AAm?$AAs?$AA?9?$AAf?$AAi?$AA?$AA@ 00588c50     LIBCMTD:winapinls.obj
 0002:00022c60       ??_C@_1M@BOFOGHPB@?$AAs?$AAq?$AA?9?$AAa?$AAl?$AA?$AA@ 00588c60     LIBCMTD:winapinls.obj
 0002:00022c6c       ??_C@_1BG@LJBBIPGB@?$AAs?$AAr?$AA?9?$AAb?$AAa?$AA?9?$AAc?$AAy?$AAr?$AAl?$AA?$AA@ 00588c6c     LIBCMTD:winapinls.obj
 0002:00022c84       ??_C@_1BG@JLBENFOE@?$AAs?$AAr?$AA?9?$AAb?$AAa?$AA?9?$AAl?$AAa?$AAt?$AAn?$AA?$AA@ 00588c84     LIBCMTD:winapinls.obj
 0002:00022c9c       ??_C@_1BG@KODPNHE@?$AAs?$AAr?$AA?9?$AAs?$AAp?$AA?9?$AAc?$AAy?$AAr?$AAl?$AA?$AA@ 00588c9c     LIBCMTD:winapinls.obj
 0002:00022cb4       ??_C@_1BG@CIOGKHPB@?$AAs?$AAr?$AA?9?$AAs?$AAp?$AA?9?$AAl?$AAa?$AAt?$AAn?$AA?$AA@ 00588cb4     LIBCMTD:winapinls.obj
 0002:00022ccc       ??_C@_1M@NGFJLMAC@?$AAs?$AAv?$AA?9?$AAf?$AAi?$AA?$AA@ 00588ccc     LIBCMTD:winapinls.obj
 0002:00022cd8       ??_C@_1M@MPJEJAJC@?$AAs?$AAv?$AA?9?$AAs?$AAe?$AA?$AA@ 00588cd8     LIBCMTD:winapinls.obj
 0002:00022ce4       ??_C@_1M@MPNDHLFK@?$AAs?$AAw?$AA?9?$AAk?$AAe?$AA?$AA@ 00588ce4     LIBCMTD:winapinls.obj
 0002:00022cf0       ??_C@_1O@KOHBJJI@?$AAs?$AAy?$AAr?$AA?9?$AAs?$AAy?$AA?$AA@ 00588cf0     LIBCMTD:winapinls.obj
 0002:00022d00       ??_C@_1M@LDCEFHA@?$AAt?$AAa?$AA?9?$AAi?$AAn?$AA?$AA@ 00588d00     LIBCMTD:winapinls.obj
 0002:00022d0c       ??_C@_1M@CNJOFAK@?$AAt?$AAe?$AA?9?$AAi?$AAn?$AA?$AA@ 00588d0c     LIBCMTD:winapinls.obj
 0002:00022d18       ??_C@_1M@GNAECACD@?$AAt?$AAh?$AA?9?$AAt?$AAh?$AA?$AA@ 00588d18     LIBCMTD:winapinls.obj
 0002:00022d24       ??_C@_1M@CHBIHOJO@?$AAt?$AAn?$AA?9?$AAz?$AAa?$AA?$AA@ 00588d24     LIBCMTD:winapinls.obj
 0002:00022d30       ??_C@_1M@GCCMIGPJ@?$AAt?$AAr?$AA?9?$AAt?$AAr?$AA?$AA@ 00588d30     LIBCMTD:winapinls.obj
 0002:00022d3c       ??_C@_1M@CELMCNBK@?$AAt?$AAt?$AA?9?$AAr?$AAu?$AA?$AA@ 00588d3c     LIBCMTD:winapinls.obj
 0002:00022d48       ??_C@_1M@KLMCELGA@?$AAu?$AAk?$AA?9?$AAu?$AAa?$AA?$AA@ 00588d48     LIBCMTD:winapinls.obj
 0002:00022d54       ??_C@_1M@EPAJJAJF@?$AAu?$AAr?$AA?9?$AAp?$AAk?$AA?$AA@ 00588d54     LIBCMTD:winapinls.obj
 0002:00022d60       ??_C@_1BG@GEGPMCDJ@?$AAu?$AAz?$AA?9?$AAu?$AAz?$AA?9?$AAc?$AAy?$AAr?$AAl?$AA?$AA@ 00588d60     LIBCMTD:winapinls.obj
 0002:00022d78       ??_C@_1BG@EGGKJILM@?$AAu?$AAz?$AA?9?$AAu?$AAz?$AA?9?$AAl?$AAa?$AAt?$AAn?$AA?$AA@ 00588d78     LIBCMTD:winapinls.obj
 0002:00022d90       ??_C@_1M@GFOCLFF@?$AAv?$AAi?$AA?9?$AAv?$AAn?$AA?$AA@ 00588d90     LIBCMTD:winapinls.obj
 0002:00022d9c       ??_C@_1M@CPAMEDFI@?$AAx?$AAh?$AA?9?$AAz?$AAa?$AA?$AA@ 00588d9c     LIBCMTD:winapinls.obj
 0002:00022da8       ??_C@_1O@EBKIFIGN@?$AAz?$AAh?$AA?9?$AAc?$AAh?$AAs?$AA?$AA@ 00588da8     LIBCMTD:winapinls.obj
 0002:00022db8       ??_C@_1O@NMHPGANE@?$AAz?$AAh?$AA?9?$AAc?$AAh?$AAt?$AA?$AA@ 00588db8     LIBCMTD:winapinls.obj
 0002:00022dc8       ??_C@_1M@LPINJOMC@?$AAz?$AAh?$AA?9?$AAc?$AAn?$AA?$AA@ 00588dc8     LIBCMTD:winapinls.obj
 0002:00022dd4       ??_C@_1M@OCJEJODD@?$AAz?$AAh?$AA?9?$AAh?$AAk?$AA?$AA@ 00588dd4     LIBCMTD:winapinls.obj
 0002:00022de0       ??_C@_1M@DNDLJINH@?$AAz?$AAh?$AA?9?$AAm?$AAo?$AA?$AA@ 00588de0     LIBCMTD:winapinls.obj
 0002:00022dec       ??_C@_1M@MBFDNDND@?$AAz?$AAh?$AA?9?$AAs?$AAg?$AA?$AA@ 00588dec     LIBCMTD:winapinls.obj
 0002:00022df8       ??_C@_1M@IMEPLEPE@?$AAz?$AAh?$AA?9?$AAt?$AAw?$AA?$AA@ 00588df8     LIBCMTD:winapinls.obj
 0002:00022e04       ??_C@_1M@BBGHNHJP@?$AAz?$AAu?$AA?9?$AAz?$AAa?$AA?$AA@ 00588e04     LIBCMTD:winapinls.obj
 0002:00022e10       ??_C@_15EMKDOKLE@?$AAa?$AAr?$AA?$AA@ 00588e10     LIBCMTD:winapinls.obj
 0002:00022e18       ??_C@_15KNPADPLH@?$AAb?$AAg?$AA?$AA@ 00588e18     LIBCMTD:winapinls.obj
 0002:00022e20       ??_C@_1FE@HAPBHJIC@?$AAf?$AA?3?$AA?2?$AAd?$AAd?$AA?2?$AAv?$AAc?$AAt?$AAo?$AAo?$AAl?$AAs?$AA?2?$AAc?$AAr?$AAt?$AA?2?$AAc?$AAr?$AAt?$AAw?$AA3?$AA2?$AA?2?$AAm?$AAi?$AAs?$AAc?$AA?2?$AAw?$AAi@ 00588e20     LIBCMTD:winapinls.obj
 0002:00022e74       ??_C@_1DO@MBHJDOGM@?$AA_?$AA_?$AAc?$AAr?$AAt?$AAD?$AAo?$AAw?$AAn?$AAl?$AAe?$AAv?$AAe?$AAl?$AAL?$AAC?$AAI?$AAD?$AAT?$AAo?$AAL?$AAo?$AAc?$AAa?$AAl?$AAe?$AAN?$AAa?$AAm?$AAe?$AA?$AA@ 00588e74     LIBCMTD:winapinls.obj
 0002:00022eb8       ??_C@_1FO@LFACCMJH@?$AAw?$AAc?$AAs?$AAc?$AAp?$AAy?$AA_?$AAs?$AA?$CI?$AAo?$AAu?$AAt?$AAL?$AAo?$AAc?$AAa?$AAl?$AAe?$AAN?$AAa?$AAm?$AAe?$AA?0?$AA?5?$AAc?$AAc?$AAh?$AAL?$AAo?$AAc?$AAa?$AAl@ 00588eb8     LIBCMTD:winapinls.obj
 0002:00022f18       ??_C@_1BO@KFIJIAEA@?$AAp?$AAB?$AAl?$AAo?$AAc?$AAk?$AA?5?$AA?$CB?$AA?$DN?$AA?5?$AAN?$AAU?$AAL?$AAL?$AA?$AA@ 00588f18     LIBCMTD:expand.obj
 0002:00022f38       ??_C@_1EO@BOMKIKJB@?$AAf?$AA?3?$AA?2?$AAd?$AAd?$AA?2?$AAv?$AAc?$AAt?$AAo?$AAo?$AAl?$AAs?$AA?2?$AAc?$AAr?$AAt?$AA?2?$AAc?$AAr?$AAt?$AAw?$AA3?$AA2?$AA?2?$AAh?$AAe?$AAa?$AAp?$AA?2?$AAe?$AAx@ 00588f38     LIBCMTD:expand.obj
 0002:00022f88       ??_C@_1BK@JMCGJOCC@?$AA_?$AAe?$AAx?$AAp?$AAa?$AAn?$AAd?$AA_?$AAb?$AAa?$AAs?$AAe?$AA?$AA@ 00588f88     LIBCMTD:expand.obj
 0002:00022fb0       __indefinite               00588fb0     LIBCMTD:87disp.obj
 0002:00022fba       __piby2                    00588fba     LIBCMTD:87disp.obj
 0002:00022fe8       __DEFAULT_CW_in_mem        00588fe8     LIBCMTD:common.obj
 0002:00022fea       __pi_by_2_to_61            00588fea     LIBCMTD:common.obj
 0002:000231b4       ??_C@_08EHJDFFNH@__based?$CI?$AA@ 005891b4     LIBCMTD:undname.obj
 0002:000231c0       ??_C@_07KOLFKCDI@__cdecl?$AA@ 005891c0     LIBCMTD:undname.obj
 0002:000231c8       ??_C@_08GHMPAG@__pascal?$AA@ 005891c8     LIBCMTD:undname.obj
 0002:000231d4       ??_C@_09IFJBGAPI@__stdcall?$AA@ 005891d4     LIBCMTD:undname.obj
 0002:000231e0       ??_C@_0L@NPHFGOKO@__thiscall?$AA@ 005891e0     LIBCMTD:undname.obj
 0002:000231ec       ??_C@_0L@JMKHOMEK@__fastcall?$AA@ 005891ec     LIBCMTD:undname.obj
 0002:000231f8       ??_C@_0N@BCKKPABJ@__vectorcall?$AA@ 005891f8     LIBCMTD:undname.obj
 0002:00023208       ??_C@_09HIJEGCPM@__clrcall?$AA@ 00589208     LIBCMTD:undname.obj
 0002:00023214       ??_C@_06GHPCKEAG@__eabi?$AA@ 00589214     LIBCMTD:undname.obj
 0002:0002321c       ??_C@_07JOMMBBKO@__ptr64?$AA@ 0058921c     LIBCMTD:undname.obj
 0002:00023224       ??_C@_0L@PILCLIHE@__restrict?$AA@ 00589224     LIBCMTD:undname.obj
 0002:00023230       ??_C@_0M@GFIIJFMG@__unaligned?$AA@ 00589230     LIBCMTD:undname.obj
 0002:0002323c       ??_C@_09DHDLOLLB@restrict?$CI?$AA@ 0058923c     LIBCMTD:undname.obj
 0002:00023248       ??_C@_04NIHEBCM@?5new?$AA@ 00589248     LIBCMTD:undname.obj
 0002:00023250       ??_C@_07FPCDHGMM@?5delete?$AA@ 00589250     LIBCMTD:undname.obj
 0002:00023258       ??_C@_01NEMOKFLO@?$DN?$AA@ 00589258     LIBCMTD:undname.obj
 0002:0002325c       ??_C@_02GPIOPFAK@?$DO?$DO?$AA@ 0058925c     LIBCMTD:undname.obj
 0002:00023260       ??_C@_02FODMEDOG@?$DM?$DM?$AA@ 00589260     LIBCMTD:undname.obj
 0002:00023264       ??_C@_01DCLJPIOD@?$CB?$AA@ 00589264     LIBCMTD:undname.obj
 0002:00023268       ??_C@_02EGOFBIJA@?$DN?$DN?$AA@ 00589268     LIBCMTD:undname.obj
 0002:0002326c       ??_C@_02FDNJECIE@?$CB?$DN?$AA@ 0058926c     LIBCMTD:undname.obj
 0002:00023270       ??_C@_02GPECMEKF@?$FL?$FN?$AA@ 00589270     LIBCMTD:undname.obj
 0002:00023274       ??_C@_08LHJFAFGD@operator?$AA@ 00589274     LIBCMTD:undname.obj
 0002:00023280       ??_C@_02HBOOOICD@?9?$DO?$AA@ 00589280     LIBCMTD:undname.obj
 0002:00023284       ??_C@_01NBENCBCI@?$CK?$AA@ 00589284     LIBCMTD:undname.obj
 0002:00023288       ??_C@_02ECNGHCIF@?$CL?$CL?$AA@ 00589288     LIBCMTD:undname.obj
 0002:0002328c       ??_C@_02BAABKJLB@?9?9?$AA@ 0058928c     LIBCMTD:undname.obj
 0002:00023290       ??_C@_01JOAMLHOP@?9?$AA@   00589290     LIBCMTD:undname.obj
 0002:00023294       ??_C@_01MIFGBAGJ@?$CL?$AA@ 00589294     LIBCMTD:undname.obj
 0002:00023298       ??_C@_01HNPIGOCE@?$CG?$AA@ 00589298     LIBCMTD:undname.obj
 0002:0002329c       ??_C@_03MNHNFDLC@?9?$DO?$CK?$AA@ 0058929c     LIBCMTD:undname.obj
 0002:000232a0       ??_C@_01KMDKNFGN@?1?$AA@   005892a0     LIBCMTD:undname.obj
 0002:000232a4       ??_C@_01FGNFDNOH@?$CF?$AA@ 005892a4     LIBCMTD:undname.obj
 0002:000232a8       ??_C@_01MNNFJEPP@?$DM?$AA@ 005892a8     LIBCMTD:undname.obj
 0002:000232ac       ??_C@_02EHCHHCKH@?$DM?$DN?$AA@ 005892ac     LIBCMTD:undname.obj
 0002:000232b0       ??_C@_01PPODPGHN@?$DO?$AA@ 005892b0     LIBCMTD:undname.obj
 0002:000232b4       ??_C@_02EEKDKGMJ@?$DO?$DN?$AA@ 005892b4     LIBCMTD:undname.obj
 0002:000232b8       ??_C@_01IHBHIGKO@?0?$AA@   005892b8     LIBCMTD:undname.obj
 0002:000232bc       ??_C@_02HCKGKOFO@?$CI?$CJ?$AA@ 005892bc     LIBCMTD:undname.obj
 0002:000232c0       ??_C@_01PJKLJHI@?$HO?$AA@  005892c0     LIBCMTD:undname.obj
 0002:000232c4       ??_C@_01JKBOJNNK@?$FO?$AA@ 005892c4     LIBCMTD:undname.obj
 0002:000232c8       ??_C@_01DNKMNLPK@?$HM?$AA@ 005892c8     LIBCMTD:undname.obj
 0002:000232cc       ??_C@_02PPKAJPJL@?$CG?$CG?$AA@ 005892cc     LIBCMTD:undname.obj
 0002:000232d0       ??_C@_02NONPIBCD@?$HM?$HM?$AA@ 005892d0     LIBCMTD:undname.obj
 0002:000232d4       ??_C@_02FPIMKNGF@?$CK?$DN?$AA@ 005892d4     LIBCMTD:undname.obj
 0002:000232d8       ??_C@_02FOEOMHFC@?$CL?$DN?$AA@ 005892d8     LIBCMTD:undname.obj
 0002:000232dc       ??_C@_02FKMDLLOA@?9?$DN?$AA@ 005892dc     LIBCMTD:undname.obj
 0002:000232e0       ??_C@_02FJEHGPIO@?1?$DN?$AA@ 005892e0     LIBCMTD:undname.obj
 0002:000232e4       ??_C@_02FENAOKFI@?$CF?$DN?$AA@ 005892e4     LIBCMTD:undname.obj
 0002:000232e8       ??_C@_03IKFCCPFF@?$DO?$DO?$DN?$AA@ 005892e8     LIBCMTD:undname.obj
 0002:000232ec       ??_C@_03CDNPDDLA@?$DM?$DM?$DN?$AA@ 005892ec     LIBCMTD:undname.obj
 0002:000232f0       ??_C@_02FGJGFEAB@?$CG?$DN?$AA@ 005892f0     LIBCMTD:undname.obj
 0002:000232f4       ??_C@_02DHLNPPGH@?$HM?$DN?$AA@ 005892f4     LIBCMTD:undname.obj
 0002:000232f8       ??_C@_02MHEGNOJ@?$FO?$DN?$AA@ 005892f8     LIBCMTD:undname.obj
 0002:000232fc       ??_C@_09IFPLHPGF@?$GAvftable?8?$AA@ 005892fc     LIBCMTD:undname.obj
 0002:00023308       ??_C@_09BLBHBJP@?$GAvbtable?8?$AA@ 00589308     LIBCMTD:undname.obj
 0002:00023314       ??_C@_07FEEIOKP@?$GAvcall?8?$AA@ 00589314     LIBCMTD:undname.obj
 0002:0002331c       ??_C@_08LLFFHHDJ@?$GAtypeof?8?$AA@ 0058931c     LIBCMTD:undname.obj
 0002:00023328       ??_C@_0BF@KDPPACIK@?$GAlocal?5static?5guard?8?$AA@ 00589328     LIBCMTD:undname.obj
 0002:00023340       ??_C@_08OBABFOLI@?$GAstring?8?$AA@ 00589340     LIBCMTD:undname.obj
 0002:0002334c       ??_C@_0BD@JDLKDPAB@?$GAvbase?5destructor?8?$AA@ 0058934c     LIBCMTD:undname.obj
 0002:00023360       ??_C@_0BN@DEGPLNFK@?$GAvector?5deleting?5destructor?8?$AA@ 00589360     LIBCMTD:undname.obj
 0002:00023380       ??_C@_0BO@OBMKPJIG@?$GAdefault?5constructor?5closure?8?$AA@ 00589380     LIBCMTD:undname.obj
 0002:000233a0       ??_C@_0BN@IMDCHIKM@?$GAscalar?5deleting?5destructor?8?$AA@ 005893a0     LIBCMTD:undname.obj
 0002:000233c0       ??_C@_0BO@PFGOCPJJ@?$GAvector?5constructor?5iterator?8?$AA@ 005893c0     LIBCMTD:undname.obj
 0002:000233e0       ??_C@_0BN@LFPFMEDL@?$GAvector?5destructor?5iterator?8?$AA@ 005893e0     LIBCMTD:undname.obj
 0002:00023400       ??_C@_0CE@IKBNEHA@?$GAvector?5vbase?5constructor?5iterat@ 00589400     LIBCMTD:undname.obj
 0002:00023424       ??_C@_0BL@NILFHHPC@?$GAvirtual?5displacement?5map?8?$AA@ 00589424     LIBCMTD:undname.obj
 0002:00023440       ??_C@_0CB@JONCMFFK@?$GAeh?5vector?5constructor?5iterator?8@ 00589440     LIBCMTD:undname.obj
 0002:00023464       ??_C@_0CA@GCEOPDGL@?$GAeh?5vector?5destructor?5iterator?8?$AA@ 00589464     LIBCMTD:undname.obj
 0002:00023484       ??_C@_0CH@OOJPLCPH@?$GAeh?5vector?5vbase?5constructor?5ite@ 00589484     LIBCMTD:undname.obj
 0002:000234ac       ??_C@_0BL@LLKPOHJI@?$GAcopy?5constructor?5closure?8?$AA@ 005894ac     LIBCMTD:undname.obj
 0002:000234c8       ??_C@_0BA@KBCDOMBN@?$GAudt?5returning?8?$AA@ 005894c8     LIBCMTD:undname.obj
 0002:000234d8       ??_C@_03KLGMFNMG@?$GAEH?$AA@ 005894d8     LIBCMTD:undname.obj
 0002:000234dc       ??_C@_05KHLCHHI@?$GARTTI?$AA@ 005894dc     LIBCMTD:undname.obj
 0002:000234e4       ??_C@_0BA@KKLDJDLB@?$GAlocal?5vftable?8?$AA@ 005894e4     LIBCMTD:undname.obj
 0002:000234f4       ??_C@_0CE@IIHCMGGL@?$GAlocal?5vftable?5constructor?5closu@ 005894f4     LIBCMTD:undname.obj
 0002:00023518       ??_C@_06FHBGPFGH@?5new?$FL?$FN?$AA@ 00589518     LIBCMTD:undname.obj
 0002:00023520       ??_C@_09LBNFPBCA@?5delete?$FL?$FN?$AA@ 00589520     LIBCMTD:undname.obj
 0002:0002352c       ??_C@_0P@HJKNJFNN@?$GAomni?5callsig?8?$AA@ 0058952c     LIBCMTD:undname.obj
 0002:0002353c       ??_C@_0BL@CNOONJFP@?$GAplacement?5delete?5closure?8?$AA@ 0058953c     LIBCMTD:undname.obj
 0002:00023558       ??_C@_0BN@CKNJLHMB@?$GAplacement?5delete?$FL?$FN?5closure?8?$AA@ 00589558     LIBCMTD:undname.obj
 0002:00023578       ??_C@_0CG@CFDHKGGD@?$GAmanaged?5vector?5constructor?5iter@ 00589578     LIBCMTD:undname.obj
 0002:000235a0       ??_C@_0CF@IMGKMJNO@?$GAmanaged?5vector?5destructor?5itera@ 005895a0     LIBCMTD:undname.obj
 0002:000235c8       ??_C@_0CG@HLDDJMAG@?$GAeh?5vector?5copy?5constructor?5iter@ 005895c8     LIBCMTD:undname.obj
 0002:000235f0       ??_C@_0CM@FCBBDIGB@?$GAeh?5vector?5vbase?5copy?5constructo@ 005895f0     LIBCMTD:undname.obj
 0002:0002361c       ??_C@_0BL@CLIPGLGB@?$GAdynamic?5initializer?5for?5?8?$AA@ 0058961c     LIBCMTD:undname.obj
 0002:00023638       ??_C@_0CB@PDBIFEP@?$GAdynamic?5atexit?5destructor?5for?5?8@ 00589638     LIBCMTD:undname.obj
 0002:0002365c       ??_C@_0CD@CGAJBKEJ@?$GAvector?5copy?5constructor?5iterato@ 0058965c     LIBCMTD:undname.obj
 0002:00023680       ??_C@_0CJ@GJELGAMM@?$GAvector?5vbase?5copy?5constructor?5i@ 00589680     LIBCMTD:undname.obj
 0002:000236ac       ??_C@_0CL@FGIJHLCE@?$GAmanaged?5vector?5copy?5constructor@ 005896ac     LIBCMTD:undname.obj
 0002:000236d8       ??_C@_0BM@PMGGMLDN@?$GAlocal?5static?5thread?5guard?8?$AA@ 005896d8     LIBCMTD:undname.obj
 0002:000236f4       ??_C@_0BC@DAFEJGAK@?5Type?5Descriptor?8?$AA@ 005896f4     LIBCMTD:undname.obj
 0002:00023708       ??_C@_0BM@LDKODKLH@?5Base?5Class?5Descriptor?5at?5?$CI?$AA@ 00589708     LIBCMTD:undname.obj
 0002:00023724       ??_C@_0BD@LGICGFMM@?5Base?5Class?5Array?8?$AA@ 00589724     LIBCMTD:undname.obj
 0002:00023738       ??_C@_0BN@MECKDCOJ@?5Class?5Hierarchy?5Descriptor?8?$AA@ 00589738     LIBCMTD:undname.obj
 0002:00023758       ??_C@_0BK@CFCOFLF@?5Complete?5Object?5Locator?8?$AA@ 00589758     LIBCMTD:undname.obj
 0002:00023774       ??_C@_04HEJADOOB@CV?3?5?$AA@ 00589774     LIBCMTD:undname.obj
 0002:0002377c       ??_C@_02MOLJINC@?3?3?$AA@  0058977c     LIBCMTD:undname.obj
 0002:00023780       ??_C@_0BE@JAEOCHPE@template?9parameter?9?$AA@ 00589780     LIBCMTD:undname.obj
 0002:00023794       ??_C@_0O@KHGCOMHP@generic?9type?9?$AA@ 00589794     LIBCMTD:undname.obj
 0002:000237a4       ??_C@_01NLNLIGKH@?$GA?$AA@ 005897a4     LIBCMTD:undname.obj
 0002:000237a8       ??_C@_01GEODFPGF@?8?$AA@   005897a8     LIBCMTD:undname.obj
 0002:000237ac       ??_C@_0BG@JNJLAMPM@?$GAanonymous?5namespace?8?$AA@ 005897ac     LIBCMTD:undname.obj
 0002:000237c4       ??_C@_02OHHJMEON@?8?8?$AA@ 005897c4     LIBCMTD:undname.obj
 0002:000237c8       ??_C@_0BN@IBLMMFAP@?$GAnon?9type?9template?9parameter?$AA@ 005897c8     LIBCMTD:undname.obj
 0002:000237e8       ??_C@_04GKJNKENE@void?$AA@ 005897e8     LIBCMTD:undname.obj
 0002:000237f0       ??_C@_0BE@EODMJLIF@?$GAtemplate?9parameter?$AA@ 005897f0     LIBCMTD:undname.obj
 0002:00023804       ??_C@_04HIBGFPH@NULL?$AA@  00589804     LIBCMTD:undname.obj
 0002:0002380c       ??_C@_03OPGICMGF@?$HN?8?5?$AA@ 0058980c     LIBCMTD:undname.obj
 0002:00023810       ??_C@_02IGFCGPIL@?$HN?8?$AA@ 00589810     LIBCMTD:undname.obj
 0002:00023814       ??_C@_01CLKCMJKC@?5?$AA@   00589814     LIBCMTD:undname.obj
 0002:00023818       ??_C@_0N@CBHHHENL@?$GAvtordispex?$HL?$AA@ 00589818     LIBCMTD:undname.obj
 0002:00023828       ??_C@_0L@GHPFDFH@?$GAvtordisp?$HL?$AA@ 00589828     LIBCMTD:undname.obj
 0002:00023834       ??_C@_0L@HNGCOGAE@?$GAadjustor?$HL?$AA@ 00589834     LIBCMTD:undname.obj
 0002:00023840       ??_C@_0CB@KJDOOODE@?$GAlocal?5static?5destructor?5helper?8@ 00589840     LIBCMTD:undname.obj
 0002:00023864       ??_C@_0DB@ILEFOCIJ@?$GAtemplate?5static?5data?5member?5con@ 00589864     LIBCMTD:undname.obj
 0002:00023898       ??_C@_0DA@HGFJFBBE@?$GAtemplate?5static?5data?5member?5des@ 00589898     LIBCMTD:undname.obj
 0002:000238c8       ??_C@_07PGOEDBHP@static?5?$AA@ 005898c8     LIBCMTD:undname.obj
 0002:000238d0       ??_C@_08NIEOINHE@virtual?5?$AA@ 005898d0     LIBCMTD:undname.obj
 0002:000238dc       ??_C@_09LAPHOOG@private?3?5?$AA@ 005898dc     LIBCMTD:undname.obj
 0002:000238e8       ??_C@_0M@GAIFPFIP@protected?3?5?$AA@ 005898e8     LIBCMTD:undname.obj
 0002:000238f4       ??_C@_08GPDDCMKI@public?3?5?$AA@ 005898f4     LIBCMTD:undname.obj
 0002:00023900       ??_C@_08KJLFOPNE@?$FLthunk?$FN?3?$AA@ 00589900     LIBCMTD:undname.obj
 0002:0002390c       ??_C@_0M@DHNBOJMP@extern?5?$CCC?$CC?5?$AA@ 0058990c     LIBCMTD:undname.obj
 0002:00023918       ??_C@_02KCKGHPCA@?$CJ?5?$AA@ 00589918     LIBCMTD:undname.obj
 0002:0002391c       ??_C@_05CIHEBHNO@char?5?$AA@ 0058991c     LIBCMTD:undname.obj
 0002:00023924       ??_C@_06EHJMALKF@short?5?$AA@ 00589924     LIBCMTD:undname.obj
 0002:0002392c       ??_C@_04LAHKHJMA@int?5?$AA@ 0058992c     LIBCMTD:undname.obj
 0002:00023934       ??_C@_05CJIMAING@long?5?$AA@ 00589934     LIBCMTD:undname.obj
 0002:0002393c       ??_C@_09EBBEKKIH@unsigned?5?$AA@ 0058993c     LIBCMTD:undname.obj
 0002:00023948       ??_C@_05BEFAKPML@void?5?$AA@ 00589948     LIBCMTD:undname.obj
 0002:00023950       ??_C@_08PABEKFH@volatile?$AA@ 00589950     LIBCMTD:undname.obj
 0002:0002395c       ??_C@_0P@GCOCNKDM@std?3?3nullptr_t?$AA@ 0058995c     LIBCMTD:undname.obj
 0002:0002396c       ??_C@_0L@EGPHHEKN@?$DMellipsis?$DO?$AA@ 0058996c     LIBCMTD:undname.obj
 0002:00023978       ??_C@_04EENFHACM@?0?4?4?4?$AA@ 00589978     LIBCMTD:undname.obj
 0002:00023980       ??_C@_0M@ELJOJFFH@?0?$DMellipsis?$DO?$AA@ 00589980     LIBCMTD:undname.obj
 0002:0002398c       ??_C@_07HDJPLPEK@?5throw?$CI?$AA@ 0058998c     LIBCMTD:undname.obj
 0002:00023994       ??_C@_03PBJBJNON@cpu?$AA@  00589994     LIBCMTD:undname.obj
 0002:00023998       ??_C@_03DCBBJBAA@amp?$AA@  00589998     LIBCMTD:undname.obj
 0002:0002399c       ??_C@_02KEGNLNML@?0?5?$AA@ 0058999c     LIBCMTD:undname.obj
 0002:000239a0       ??_C@_04ENMBGAPA@char?$AA@ 005899a0     LIBCMTD:undname.obj
 0002:000239a8       ??_C@_05BFKKPKCG@short?$AA@ 005899a8     LIBCMTD:undname.obj
 0002:000239b0       ??_C@_03JBIPMCLC@int?$AA@  005899b0     LIBCMTD:undname.obj
 0002:000239b4       ??_C@_04GOKPGOLB@long?$AA@ 005899b4     LIBCMTD:undname.obj
 0002:000239bc       ??_C@_05KNFBNCOH@float?$AA@ 005899bc     LIBCMTD:undname.obj
 0002:000239c4       ??_C@_06BNJCAIGJ@double?$AA@ 005899c4     LIBCMTD:undname.obj
 0002:000239cc       ??_C@_04DDKJGDCM@bool?$AA@ 005899cc     LIBCMTD:undname.obj
 0002:000239d4       ??_C@_06EBGKOKIG@__int8?$AA@ 005899d4     LIBCMTD:undname.obj
 0002:000239dc       ??_C@_07ICFHOGAF@__int16?$AA@ 005899dc     LIBCMTD:undname.obj
 0002:000239e4       ??_C@_07OFLPPHGP@__int32?$AA@ 005899e4     LIBCMTD:undname.obj
 0002:000239ec       ??_C@_07LFCOJCAC@__int64?$AA@ 005899ec     LIBCMTD:undname.obj
 0002:000239f4       ??_C@_08GAHOLHEO@__int128?$AA@ 005899f4     LIBCMTD:undname.obj
 0002:00023a00       ??_C@_09EEKGDCPH@?$DMunknown?$DO?$AA@ 00589a00     LIBCMTD:undname.obj
 0002:00023a0c       ??_C@_07CLGGIAMF@wchar_t?$AA@ 00589a0c     LIBCMTD:undname.obj
 0002:00023a14       ??_C@_06GCICPBLB@__w64?5?$AA@ 00589a14     LIBCMTD:undname.obj
 0002:00023a1c       ??_C@_07NFANNNEC@UNKNOWN?$AA@ 00589a1c     LIBCMTD:undname.obj
 0002:00023a24       ??_C@_07EDHNAJHC@signed?5?$AA@ 00589a24     LIBCMTD:undname.obj
 0002:00023a2c       ??_C@_05BNCCCJPP@const?$AA@ 00589a2c     LIBCMTD:undname.obj
 0002:00023a34       ??_C@_09EFNPDFFP@?5volatile?$AA@ 00589a34     LIBCMTD:undname.obj
 0002:00023a40       ??_C@_0P@GCIFDJCJ@?$GAunknown?5ecsu?8?$AA@ 00589a40     LIBCMTD:undname.obj
 0002:00023a50       ??_C@_06MOJHIBMG@union?5?$AA@ 00589a50     LIBCMTD:undname.obj
 0002:00023a58       ??_C@_07DIBCDNGL@struct?5?$AA@ 00589a58     LIBCMTD:undname.obj
 0002:00023a60       ??_C@_06LJBABKPM@class?5?$AA@ 00589a60     LIBCMTD:undname.obj
 0002:00023a68       ??_C@_08KOFANOFK@coclass?5?$AA@ 00589a68     LIBCMTD:undname.obj
 0002:00023a74       ??_C@_0N@DLIEFKNA@cointerface?5?$AA@ 00589a74     LIBCMTD:undname.obj
 0002:00023a84       ??_C@_05LJGMCFOG@enum?5?$AA@ 00589a84     LIBCMTD:undname.obj
 0002:00023a8c       ??_C@_09GAIEOBLP@volatile?5?$AA@ 00589a8c     LIBCMTD:undname.obj
 0002:00023a98       ??_C@_06LIJLOJAG@const?5?$AA@ 00589a98     LIBCMTD:undname.obj
 0002:00023aa0       ??_C@_0M@EALIELKG@cli?3?3array?$DM?$AA@ 00589aa0     LIBCMTD:undname.obj
 0002:00023aac       ??_C@_0O@GKABPPIF@cli?3?3pin_ptr?$DM?$AA@ 00589aac     LIBCMTD:undname.obj
 0002:00023abc       ??_C@_02GOGNNPBN@?$CJ?$FL?$AA@ 00589abc     LIBCMTD:undname.obj
 0002:00023ac0       ??_C@_06EEGAIFAK@?$HLflat?$HN?$AA@ 00589ac0     LIBCMTD:undname.obj
 0002:00023ac8       ??_C@_05JIBOFOHK@?$HLfor?5?$AA@ 00589ac8     LIBCMTD:undname.obj
 0002:00023ad0       ??_C@_02MDINNEEG@s?5?$AA@  00589ad0     LIBCMTD:undname.obj
 0002:00023ad8       ??_7DNameNode@@6B@         00589ad8     LIBCMTD:undname.obj
 0002:00023ae8       ??_7charNode@@6B@          00589ae8     LIBCMTD:undname.obj
 0002:00023af8       ??_7pcharNode@@6B@         00589af8     LIBCMTD:undname.obj
 0002:00023b08       ??_7pDNameNode@@6B@        00589b08     LIBCMTD:undname.obj
 0002:00023b18       ??_7DNameStatusNode@@6B@   00589b18     LIBCMTD:undname.obj
 0002:00023b28       ??_7pairNode@@6B@          00589b28     LIBCMTD:undname.obj
 0002:00023b34       ??_C@_04OKOHEJBO@?5?$DP?$DP?5?$AA@ 00589b34     LIBCMTD:undname.obj
 0002:00023b40       ??_C@_1FI@JBLIKEIM@?$AAf?$AA?3?$AA?2?$AAd?$AAd?$AA?2?$AAv?$AAc?$AAt?$AAo?$AAo?$AAl?$AAs?$AA?2?$AAc?$AAr?$AAt?$AA?2?$AAc?$AAr?$AAt?$AAw?$AA3?$AA2?$AA?2?$AAc?$AAo?$AAn?$AAv?$AAe?$AAr?$AAt@ 00589b40     LIBCMTD:_fptostr.obj
 0002:00023b98       ??_C@_1BC@OPALLEB@?$AA_?$AAf?$AAp?$AAt?$AAo?$AAs?$AAt?$AAr?$AA?$AA@ 00589b98     LIBCMTD:_fptostr.obj
 0002:00023bb0       ??_C@_1GM@CEDLGDDI@?$AAs?$AAi?$AAz?$AAe?$AAI?$AAn?$AAB?$AAy?$AAt?$AAe?$AAs?$AA?5?$AA?$DO?$AA?5?$AA?$CI?$AAs?$AAi?$AAz?$AAe?$AA_?$AAt?$AA?$CJ?$AA?$CI?$AA?$CI?$AAd?$AAi?$AAg?$AAi?$AAt?$AAs?$AA?5?$AA?$DO@ 00589bb0     LIBCMTD:_fptostr.obj
 0002:00023c1c       ??_C@_1BK@CLIEHFDF@?$AAp?$AAf?$AAl?$AAt?$AA?5?$AA?$CB?$AA?$DN?$AA?5?$AAN?$AAU?$AAL?$AAL?$AA?$AA@ 00589c1c     LIBCMTD:_fptostr.obj
 0002:00023c38       ??_C@_1EK@LJBJCHGA@?$AAf?$AA?3?$AA?2?$AAd?$AAd?$AA?2?$AAv?$AAc?$AAt?$AAo?$AAo?$AAl?$AAs?$AA?2?$AAc?$AAr?$AAt?$AA?2?$AAf?$AAp?$AAw?$AA3?$AA2?$AA?2?$AAc?$AAo?$AAn?$AAv?$AA?2?$AAc?$AAf?$AAo@ 00589c38     LIBCMTD:cfout.obj
 0002:00023c84       ??_C@_1BC@BPMMEHLK@?$AA_?$AAf?$AAl?$AAt?$AAo?$AAu?$AAt?$AA2?$AA?$AA@ 00589c84     LIBCMTD:cfout.obj
 0002:00023c98       ??_C@_1FK@KODCOBKF@?$AAs?$AAt?$AAr?$AAc?$AAp?$AAy?$AA_?$AAs?$AA?$CI?$AAr?$AAe?$AAs?$AAu?$AAl?$AAt?$AAs?$AAt?$AAr?$AA?0?$AA?5?$AAr?$AAe?$AAs?$AAu?$AAl?$AAt?$AAs?$AAi?$AAz?$AAe?$AA?0?$AA?5@ 00589c98     LIBCMTD:cfout.obj
 0002:00023cf8       ??_C@_1EM@EGEEBJLG@?$AA?$CI?$AAo?$AAp?$AAt?$AAi?$AAo?$AAn?$AAs?$AA?5?$AA?$CG?$AA?5?$AA?$HO?$AA_?$AAT?$AAW?$AAO?$AA_?$AAD?$AAI?$AAG?$AAI?$AAT?$AA_?$AAE?$AAX?$AAP?$AAO?$AAN?$AAE?$AAN?$AAT?$AA?$CJ@ 00589cf8     LIBCMTD:outputformat.obj
 0002:00023d48       ??_C@_1FM@FBHCILLE@?$AAf?$AA?3?$AA?2?$AAd?$AAd?$AA?2?$AAv?$AAc?$AAt?$AAo?$AAo?$AAl?$AAs?$AA?2?$AAc?$AAr?$AAt?$AA?2?$AAc?$AAr?$AAt?$AAw?$AA3?$AA2?$AA?2?$AAs?$AAt?$AAd?$AAi?$AAo?$AA?2?$AAo@ 00589d48     LIBCMTD:outputformat.obj
 0002:00023da4       ??_C@_1CG@EBJECAJM@?$AA_?$AAs?$AAe?$AAt?$AA_?$AAo?$AAu?$AAt?$AAp?$AAu?$AAt?$AA_?$AAf?$AAo?$AAr?$AAm?$AAa?$AAt?$AA?$AA@ 00589da4     LIBCMTD:outputformat.obj
 0002:00023dcc       ??_C@_1DG@JNDMIEJL@?$AA?$CI?$AA?$CC?$AAI?$AAn?$AAv?$AAa?$AAl?$AAi?$AAd?$AA?5?$AAi?$AAn?$AAp?$AAu?$AAt?$AA?5?$AAv?$AAa?$AAl?$AAu?$AAe?$AA?$CC?$AA?0?$AA?5?$AA0?$AA?$CJ?$AA?$AA@ 00589dcc     LIBCMTD:contrlfp.obj
 0002:00023e08       ??_C@_1FA@IJLDLDMO@?$AAf?$AA?3?$AA?2?$AAd?$AAd?$AA?2?$AAv?$AAc?$AAt?$AAo?$AAo?$AAl?$AAs?$AA?2?$AAc?$AAr?$AAt?$AA?2?$AAf?$AAp?$AAw?$AA3?$AA2?$AA?2?$AAt?$AAr?$AAa?$AAn?$AA?2?$AAc?$AAo?$AAn@ 00589e08     LIBCMTD:contrlfp.obj
 0002:00023e58       ??_C@_1BK@CDOALEA@?$AA_?$AAc?$AAo?$AAn?$AAt?$AAr?$AAo?$AAl?$AAf?$AAp?$AA_?$AAs?$AA?$AA@ 00589e58     LIBCMTD:contrlfp.obj
 0002:00023e74       ??_C@_0CI@NOHEOGNG@f?3?2dd?2vctools?2crt?2crtw32?2misc?2in@ 00589e74     LIBCMTD:initmon.obj
 0002:00023e9c       ??_C@_1DM@GKAPAMDO@?$AAp?$AAl?$AAo?$AAc?$AAi?$AA?9?$AA?$DO?$AAl?$AAc?$AAo?$AAn?$AAv?$AA_?$AAm?$AAo?$AAn?$AA_?$AAr?$AAe?$AAf?$AAc?$AAo?$AAu?$AAn?$AAt?$AA?5?$AA?$DO?$AA?5?$AA0?$AA?$AA@ 00589e9c     LIBCMTD:initmon.obj
 0002:00023ed8       ??_C@_1FA@CNNDGPJL@?$AAf?$AA?3?$AA?2?$AAd?$AAd?$AA?2?$AAv?$AAc?$AAt?$AAo?$AAo?$AAl?$AAs?$AA?2?$AAc?$AAr?$AAt?$AA?2?$AAc?$AAr?$AAt?$AAw?$AA3?$AA2?$AA?2?$AAm?$AAi?$AAs?$AAc?$AA?2?$AAi?$AAn@ 00589ed8     LIBCMTD:initmon.obj
 0002:00023f28       ??_C@_0CI@GAAFLELF@f?3?2dd?2vctools?2crt?2crtw32?2misc?2in@ 00589f28     LIBCMTD:initnum.obj
 0002:00023f50       ??_C@_1DM@IFKAINNE@?$AAp?$AAl?$AAo?$AAc?$AAi?$AA?9?$AA?$DO?$AAl?$AAc?$AAo?$AAn?$AAv?$AA_?$AAn?$AAu?$AAm?$AA_?$AAr?$AAe?$AAf?$AAc?$AAo?$AAu?$AAn?$AAt?$AA?5?$AA?$DO?$AA?5?$AA0?$AA?$AA@ 00589f50     LIBCMTD:initnum.obj
 0002:00023f90       ??_C@_1FA@OEEOKLKJ@?$AAf?$AA?3?$AA?2?$AAd?$AAd?$AA?2?$AAv?$AAc?$AAt?$AAo?$AAo?$AAl?$AAs?$AA?2?$AAc?$AAr?$AAt?$AA?2?$AAc?$AAr?$AAt?$AAw?$AA3?$AA2?$AA?2?$AAm?$AAi?$AAs?$AAc?$AA?2?$AAi?$AAn@ 00589f90     LIBCMTD:initnum.obj
 0002:00023fe0       ??_C@_0CJ@HGFGLKBM@f?3?2dd?2vctools?2crt?2crtw32?2misc?2in@ 00589fe0     LIBCMTD:inittime.obj
 0002:00024010       ??_C@_1EE@FDHCFDHN@?$AAp?$AAl?$AAo?$AAc?$AAi?$AA?9?$AA?$DO?$AAl?$AAc?$AA_?$AAt?$AAi?$AAm?$AAe?$AA_?$AAc?$AAu?$AAr?$AAr?$AA?9?$AA?$DO?$AAr?$AAe?$AAf?$AAc?$AAo?$AAu?$AAn?$AAt?$AA?5?$AA?$DO?$AA?5@ 0058a010     LIBCMTD:inittime.obj
 0002:00024058       ??_C@_1FC@GNPEEAOA@?$AAf?$AA?3?$AA?2?$AAd?$AAd?$AA?2?$AAv?$AAc?$AAt?$AAo?$AAo?$AAl?$AAs?$AA?2?$AAc?$AAr?$AAt?$AA?2?$AAc?$AAr?$AAt?$AAw?$AA3?$AA2?$AA?2?$AAm?$AAi?$AAs?$AAc?$AA?2?$AAi?$AAn@ 0058a058     LIBCMTD:inittime.obj
 0002:000240b0       ___rg_language             0058a0b0     LIBCMTD:getqloc.obj
 0002:000243bc       ??_C@_1BC@LLOKLNP@?$AAa?$AAm?$AAe?$AAr?$AAi?$AAc?$AAa?$AAn?$AA?$AA@ 0058a3bc     LIBCMTD:getqloc.obj
 0002:000243d0       ??_C@_1CC@HEIGCDGG@?$AAa?$AAm?$AAe?$AAr?$AAi?$AAc?$AAa?$AAn?$AA?5?$AAe?$AAn?$AAg?$AAl?$AAi?$AAs?$AAh?$AA?$AA@ 0058a3d0     LIBCMTD:getqloc.obj
 0002:000243f4       ??_C@_1CC@IHCNOMIN@?$AAa?$AAm?$AAe?$AAr?$AAi?$AAc?$AAa?$AAn?$AA?9?$AAe?$AAn?$AAg?$AAl?$AAi?$AAs?$AAh?$AA?$AA@ 0058a3f4     LIBCMTD:getqloc.obj
 0002:00024418       ??_C@_1BG@GKAGPCGG@?$AAa?$AAu?$AAs?$AAt?$AAr?$AAa?$AAl?$AAi?$AAa?$AAn?$AA?$AA@ 0058a418     LIBCMTD:getqloc.obj
 0002:00024430       ??_C@_1BA@GMENCENF@?$AAb?$AAe?$AAl?$AAg?$AAi?$AAa?$AAn?$AA?$AA@ 0058a430     LIBCMTD:getqloc.obj
 0002:00024440       ??_C@_1BC@PJMIIAAN@?$AAc?$AAa?$AAn?$AAa?$AAd?$AAi?$AAa?$AAn?$AA?$AA@ 0058a440     LIBCMTD:getqloc.obj
 0002:00024454       ??_C@_17NOIMNFBF@?$AAc?$AAh?$AAh?$AA?$AA@ 0058a454     LIBCMTD:getqloc.obj
 0002:0002445c       ??_C@_17GGDALCHA@?$AAc?$AAh?$AAi?$AA?$AA@ 0058a45c     LIBCMTD:getqloc.obj
 0002:00024464       ??_C@_1BA@NPNJKIBL@?$AAc?$AAh?$AAi?$AAn?$AAe?$AAs?$AAe?$AA?$AA@ 0058a464     LIBCMTD:getqloc.obj
 0002:00024474       ??_C@_1CC@DINBAMMJ@?$AAc?$AAh?$AAi?$AAn?$AAe?$AAs?$AAe?$AA?9?$AAh?$AAo?$AAn?$AAg?$AAk?$AAo?$AAn?$AAg?$AA?$AA@ 0058a474     LIBCMTD:getqloc.obj
 0002:00024498       ??_C@_1CG@IOBJPACO@?$AAc?$AAh?$AAi?$AAn?$AAe?$AAs?$AAe?$AA?9?$AAs?$AAi?$AAm?$AAp?$AAl?$AAi?$AAf?$AAi?$AAe?$AAd?$AA?$AA@ 0058a498     LIBCMTD:getqloc.obj
 0002:000244c0       ??_C@_1CE@GAJNDCKG@?$AAc?$AAh?$AAi?$AAn?$AAe?$AAs?$AAe?$AA?9?$AAs?$AAi?$AAn?$AAg?$AAa?$AAp?$AAo?$AAr?$AAe?$AA?$AA@ 0058a4c0     LIBCMTD:getqloc.obj
 0002:000244e4       ??_C@_1CI@PAJPIOOD@?$AAc?$AAh?$AAi?$AAn?$AAe?$AAs?$AAe?$AA?9?$AAt?$AAr?$AAa?$AAd?$AAi?$AAt?$AAi?$AAo?$AAn?$AAa?$AAl?$AA?$AA@ 0058a4e4     LIBCMTD:getqloc.obj
 0002:0002450c       ??_C@_1BM@NILJBMMD@?$AAd?$AAu?$AAt?$AAc?$AAh?$AA?9?$AAb?$AAe?$AAl?$AAg?$AAi?$AAa?$AAn?$AA?$AA@ 0058a50c     LIBCMTD:getqloc.obj
 0002:00024528       ??_C@_1CC@OOJPJNEJ@?$AAe?$AAn?$AAg?$AAl?$AAi?$AAs?$AAh?$AA?9?$AAa?$AAm?$AAe?$AAr?$AAi?$AAc?$AAa?$AAn?$AA?$AA@ 0058a528     LIBCMTD:getqloc.obj
 0002:0002454c       ??_C@_1BI@IOLFEEM@?$AAe?$AAn?$AAg?$AAl?$AAi?$AAs?$AAh?$AA?9?$AAa?$AAu?$AAs?$AA?$AA@ 0058a54c     LIBCMTD:getqloc.obj
 0002:00024564       ??_C@_1BO@HFFNLENJ@?$AAe?$AAn?$AAg?$AAl?$AAi?$AAs?$AAh?$AA?9?$AAb?$AAe?$AAl?$AAi?$AAz?$AAe?$AA?$AA@ 0058a564     LIBCMTD:getqloc.obj
 0002:00024584       ??_C@_1BI@HAPKJMPO@?$AAe?$AAn?$AAg?$AAl?$AAi?$AAs?$AAh?$AA?9?$AAc?$AAa?$AAn?$AA?$AA@ 0058a584     LIBCMTD:getqloc.obj
 0002:0002459c       ??_C@_1CE@HLNDMIOJ@?$AAe?$AAn?$AAg?$AAl?$AAi?$AAs?$AAh?$AA?9?$AAc?$AAa?$AAr?$AAi?$AAb?$AAb?$AAe?$AAa?$AAn?$AA?$AA@ 0058a59c     LIBCMTD:getqloc.obj
 0002:000245c0       ??_C@_1BI@LDHJHHAC@?$AAe?$AAn?$AAg?$AAl?$AAi?$AAs?$AAh?$AA?9?$AAi?$AAr?$AAe?$AA?$AA@ 0058a5c0     LIBCMTD:getqloc.obj
 0002:000245d8       ??_C@_1CA@NJMMCFOC@?$AAe?$AAn?$AAg?$AAl?$AAi?$AAs?$AAh?$AA?9?$AAj?$AAa?$AAm?$AAa?$AAi?$AAc?$AAa?$AA?$AA@ 0058a5d8     LIBCMTD:getqloc.obj
 0002:000245f8       ??_C@_1BG@BHJEBBGG@?$AAe?$AAn?$AAg?$AAl?$AAi?$AAs?$AAh?$AA?9?$AAn?$AAz?$AA?$AA@ 0058a5f8     LIBCMTD:getqloc.obj
 0002:00024610       ??_C@_1CK@FGOEJJCO@?$AAe?$AAn?$AAg?$AAl?$AAi?$AAs?$AAh?$AA?9?$AAs?$AAo?$AAu?$AAt?$AAh?$AA?5?$AAa?$AAf?$AAr?$AAi?$AAc?$AAa?$AA?$AA@ 0058a610     LIBCMTD:getqloc.obj
 0002:0002463c       ??_C@_1DE@PDBJPCJ@?$AAe?$AAn?$AAg?$AAl?$AAi?$AAs?$AAh?$AA?9?$AAt?$AAr?$AAi?$AAn?$AAi?$AAd?$AAa?$AAd?$AA?5?$AAy?$AA?5?$AAt?$AAo?$AAb?$AAa?$AAg?$AAo?$AA?$AA@ 0058a63c     LIBCMTD:getqloc.obj
 0002:00024670       ??_C@_1BG@JGCANDME@?$AAe?$AAn?$AAg?$AAl?$AAi?$AAs?$AAh?$AA?9?$AAu?$AAk?$AA?$AA@ 0058a670     LIBCMTD:getqloc.obj
 0002:00024688       ??_C@_1BG@DINKMLE@?$AAe?$AAn?$AAg?$AAl?$AAi?$AAs?$AAh?$AA?9?$AAu?$AAs?$AA?$AA@ 0058a688     LIBCMTD:getqloc.obj
 0002:000246a0       ??_C@_1BI@NMFDBHJE@?$AAe?$AAn?$AAg?$AAl?$AAi?$AAs?$AAh?$AA?9?$AAu?$AAs?$AAa?$AA?$AA@ 0058a6a0     LIBCMTD:getqloc.obj
 0002:000246b8       ??_C@_1BO@OIHKJKII@?$AAf?$AAr?$AAe?$AAn?$AAc?$AAh?$AA?9?$AAb?$AAe?$AAl?$AAg?$AAi?$AAa?$AAn?$AA?$AA@ 0058a6b8     LIBCMTD:getqloc.obj
 0002:000246d8       ??_C@_1CA@NKAELJKI@?$AAf?$AAr?$AAe?$AAn?$AAc?$AAh?$AA?9?$AAc?$AAa?$AAn?$AAa?$AAd?$AAi?$AAa?$AAn?$AA?$AA@ 0058a6d8     LIBCMTD:getqloc.obj
 0002:000246f8       ??_C@_1CE@MGKCNLGN@?$AAf?$AAr?$AAe?$AAn?$AAc?$AAh?$AA?9?$AAl?$AAu?$AAx?$AAe?$AAm?$AAb?$AAo?$AAu?$AAr?$AAg?$AA?$AA@ 0058a6f8     LIBCMTD:getqloc.obj
 0002:0002471c       ??_C@_1BK@CEGEAILM@?$AAf?$AAr?$AAe?$AAn?$AAc?$AAh?$AA?9?$AAs?$AAw?$AAi?$AAs?$AAs?$AA?$AA@ 0058a71c     LIBCMTD:getqloc.obj
 0002:00024738       ??_C@_1CA@PAFKEOCC@?$AAg?$AAe?$AAr?$AAm?$AAa?$AAn?$AA?9?$AAa?$AAu?$AAs?$AAt?$AAr?$AAi?$AAa?$AAn?$AA?$AA@ 0058a738     LIBCMTD:getqloc.obj
 0002:00024758       ??_C@_1CI@HCFHGOFD@?$AAg?$AAe?$AAr?$AAm?$AAa?$AAn?$AA?9?$AAl?$AAi?$AAc?$AAh?$AAt?$AAe?$AAn?$AAs?$AAt?$AAe?$AAi?$AAn?$AA?$AA@ 0058a758     LIBCMTD:getqloc.obj
 0002:00024780       ??_C@_1CE@FEDDNPDG@?$AAg?$AAe?$AAr?$AAm?$AAa?$AAn?$AA?9?$AAl?$AAu?$AAx?$AAe?$AAm?$AAb?$AAo?$AAu?$AAr?$AAg?$AA?$AA@ 0058a780     LIBCMTD:getqloc.obj
 0002:000247a4       ??_C@_1BK@LIMINNMN@?$AAg?$AAe?$AAr?$AAm?$AAa?$AAn?$AA?9?$AAs?$AAw?$AAi?$AAs?$AAs?$AA?$AA@ 0058a7a4     LIBCMTD:getqloc.obj
 0002:000247c0       ??_C@_1BM@LGMDBEPD@?$AAi?$AAr?$AAi?$AAs?$AAh?$AA?9?$AAe?$AAn?$AAg?$AAl?$AAi?$AAs?$AAh?$AA?$AA@ 0058a7c0     LIBCMTD:getqloc.obj
 0002:000247dc       ??_C@_1BM@NNCFBAEE@?$AAi?$AAt?$AAa?$AAl?$AAi?$AAa?$AAn?$AA?9?$AAs?$AAw?$AAi?$AAs?$AAs?$AA?$AA@ 0058a7dc     LIBCMTD:getqloc.obj
 0002:000247f8       ??_C@_1BE@FEDJNPIB@?$AAn?$AAo?$AAr?$AAw?$AAe?$AAg?$AAi?$AAa?$AAn?$AA?$AA@ 0058a7f8     LIBCMTD:getqloc.obj
 0002:0002480c       ??_C@_1CC@CILKDEIE@?$AAn?$AAo?$AAr?$AAw?$AAe?$AAg?$AAi?$AAa?$AAn?$AA?9?$AAb?$AAo?$AAk?$AAm?$AAa?$AAl?$AA?$AA@ 0058a80c     LIBCMTD:getqloc.obj
 0002:00024830       ??_C@_1CE@DHMMHEPL@?$AAn?$AAo?$AAr?$AAw?$AAe?$AAg?$AAi?$AAa?$AAn?$AA?9?$AAn?$AAy?$AAn?$AAo?$AAr?$AAs?$AAk?$AA?$AA@ 0058a830     LIBCMTD:getqloc.obj
 0002:00024854       ??_C@_1CK@OPNMHECD@?$AAp?$AAo?$AAr?$AAt?$AAu?$AAg?$AAu?$AAe?$AAs?$AAe?$AA?9?$AAb?$AAr?$AAa?$AAz?$AAi?$AAl?$AAi?$AAa?$AAn?$AA?$AA@ 0058a854     LIBCMTD:getqloc.obj
 0002:00024880       ??_C@_1CE@KEEHCDB@?$AAs?$AAp?$AAa?$AAn?$AAi?$AAs?$AAh?$AA?9?$AAa?$AAr?$AAg?$AAe?$AAn?$AAt?$AAi?$AAn?$AAa?$AA?$AA@ 0058a880     LIBCMTD:getqloc.obj
 0002:000248a4       ??_C@_1CA@GIAOLHJD@?$AAs?$AAp?$AAa?$AAn?$AAi?$AAs?$AAh?$AA?9?$AAb?$AAo?$AAl?$AAi?$AAv?$AAi?$AAa?$AA?$AA@ 0058a8a4     LIBCMTD:getqloc.obj
 0002:000248c4       ??_C@_1BM@OJNDFNPD@?$AAs?$AAp?$AAa?$AAn?$AAi?$AAs?$AAh?$AA?9?$AAc?$AAh?$AAi?$AAl?$AAe?$AA?$AA@ 0058a8c4     LIBCMTD:getqloc.obj
 0002:000248e0       ??_C@_1CC@OCOLPALL@?$AAs?$AAp?$AAa?$AAn?$AAi?$AAs?$AAh?$AA?9?$AAc?$AAo?$AAl?$AAo?$AAm?$AAb?$AAi?$AAa?$AA?$AA@ 0058a8e0     LIBCMTD:getqloc.obj
 0002:00024904       ??_C@_1CG@BPOFMKBB@?$AAs?$AAp?$AAa?$AAn?$AAi?$AAs?$AAh?$AA?9?$AAc?$AAo?$AAs?$AAt?$AAa?$AA?5?$AAr?$AAi?$AAc?$AAa?$AA?$AA@ 0058a904     LIBCMTD:getqloc.obj
 0002:0002492c       ??_C@_1DG@IGOBAPBB@?$AAs?$AAp?$AAa?$AAn?$AAi?$AAs?$AAh?$AA?9?$AAd?$AAo?$AAm?$AAi?$AAn?$AAi?$AAc?$AAa?$AAn?$AA?5?$AAr?$AAe?$AAp?$AAu?$AAb?$AAl?$AAi?$AAc?$AA?$AA@ 0058a92c     LIBCMTD:getqloc.obj
 0002:00024964       ??_C@_1CA@JHAPGEGI@?$AAs?$AAp?$AAa?$AAn?$AAi?$AAs?$AAh?$AA?9?$AAe?$AAc?$AAu?$AAa?$AAd?$AAo?$AAr?$AA?$AA@ 0058a964     LIBCMTD:getqloc.obj
 0002:00024984       ??_C@_1CI@LAPALJPP@?$AAs?$AAp?$AAa?$AAn?$AAi?$AAs?$AAh?$AA?9?$AAe?$AAl?$AA?5?$AAs?$AAa?$AAl?$AAv?$AAa?$AAd?$AAo?$AAr?$AA?$AA@ 0058a984     LIBCMTD:getqloc.obj
 0002:000249ac       ??_C@_1CE@PDGBOFOM@?$AAs?$AAp?$AAa?$AAn?$AAi?$AAs?$AAh?$AA?9?$AAg?$AAu?$AAa?$AAt?$AAe?$AAm?$AAa?$AAl?$AAa?$AA?$AA@ 0058a9ac     LIBCMTD:getqloc.obj
 0002:000249d0       ??_C@_1CC@NBEBAODI@?$AAs?$AAp?$AAa?$AAn?$AAi?$AAs?$AAh?$AA?9?$AAh?$AAo?$AAn?$AAd?$AAu?$AAr?$AAa?$AAs?$AA?$AA@ 0058a9d0     LIBCMTD:getqloc.obj
 0002:000249f4       ??_C@_1CA@LLKGHBMF@?$AAs?$AAp?$AAa?$AAn?$AAi?$AAs?$AAh?$AA?9?$AAm?$AAe?$AAx?$AAi?$AAc?$AAa?$AAn?$AA?$AA@ 0058a9f4     LIBCMTD:getqloc.obj
 0002:00024a14       ??_C@_1BO@LKNDOIGD@?$AAs?$AAp?$AAa?$AAn?$AAi?$AAs?$AAh?$AA?9?$AAm?$AAo?$AAd?$AAe?$AAr?$AAn?$AA?$AA@ 0058aa14     LIBCMTD:getqloc.obj
 0002:00024a34       ??_C@_1CE@NMDMOEEB@?$AAs?$AAp?$AAa?$AAn?$AAi?$AAs?$AAh?$AA?9?$AAn?$AAi?$AAc?$AAa?$AAr?$AAa?$AAg?$AAu?$AAa?$AA?$AA@ 0058aa34     LIBCMTD:getqloc.obj
 0002:00024a58       ??_C@_1BO@LLCBEJGB@?$AAs?$AAp?$AAa?$AAn?$AAi?$AAs?$AAh?$AA?9?$AAp?$AAa?$AAn?$AAa?$AAm?$AAa?$AA?$AA@ 0058aa58     LIBCMTD:getqloc.obj
 0002:00024a78       ??_C@_1CC@FKPGGIHO@?$AAs?$AAp?$AAa?$AAn?$AAi?$AAs?$AAh?$AA?9?$AAp?$AAa?$AAr?$AAa?$AAg?$AAu?$AAa?$AAy?$AA?$AA@ 0058aa78     LIBCMTD:getqloc.obj
 0002:00024a9c       ??_C@_1BK@CDEIHOOP@?$AAs?$AAp?$AAa?$AAn?$AAi?$AAs?$AAh?$AA?9?$AAp?$AAe?$AAr?$AAu?$AA?$AA@ 0058aa9c     LIBCMTD:getqloc.obj
 0002:00024ab8       ??_C@_1CI@GAHAKKGP@?$AAs?$AAp?$AAa?$AAn?$AAi?$AAs?$AAh?$AA?9?$AAp?$AAu?$AAe?$AAr?$AAt?$AAo?$AA?5?$AAr?$AAi?$AAc?$AAo?$AA?$AA@ 0058aab8     LIBCMTD:getqloc.obj
 0002:00024ae0       ??_C@_1CA@NKJBCAGP@?$AAs?$AAp?$AAa?$AAn?$AAi?$AAs?$AAh?$AA?9?$AAu?$AAr?$AAu?$AAg?$AAu?$AAa?$AAy?$AA?$AA@ 0058aae0     LIBCMTD:getqloc.obj
 0002:00024b00       ??_C@_1CE@ODILCONM@?$AAs?$AAp?$AAa?$AAn?$AAi?$AAs?$AAh?$AA?9?$AAv?$AAe?$AAn?$AAe?$AAz?$AAu?$AAe?$AAl?$AAa?$AA?$AA@ 0058ab00     LIBCMTD:getqloc.obj
 0002:00024b24       ??_C@_1CA@OBNMCGFO@?$AAs?$AAw?$AAe?$AAd?$AAi?$AAs?$AAh?$AA?9?$AAf?$AAi?$AAn?$AAl?$AAa?$AAn?$AAd?$AA?$AA@ 0058ab24     LIBCMTD:getqloc.obj
 0002:00024b44       ??_C@_1M@PIPDDPPI@?$AAs?$AAw?$AAi?$AAs?$AAs?$AA?$AA@ 0058ab44     LIBCMTD:getqloc.obj
 0002:00024b50       ??_C@_15GMFIMNFM@?$AAu?$AAs?$AA?$AA@ 0058ab50     LIBCMTD:getqloc.obj
 0002:00024b58       ??_C@_17HAEBFAGL@?$AAu?$AAs?$AAa?$AA?$AA@ 0058ab58     LIBCMTD:getqloc.obj
 0002:00024b60       ___rg_country              0058ab60     LIBCMTD:getqloc.obj
 0002:00024c74       ??_C@_1BA@DPFJEPHB@?$AAa?$AAm?$AAe?$AAr?$AAi?$AAc?$AAa?$AA?$AA@ 0058ac74     LIBCMTD:getqloc.obj
 0002:00024c84       ??_C@_1BA@ELOGGFK@?$AAb?$AAr?$AAi?$AAt?$AAa?$AAi?$AAn?$AA?$AA@ 0058ac84     LIBCMTD:getqloc.obj
 0002:00024c94       ??_C@_1M@GHBGIGDA@?$AAc?$AAh?$AAi?$AAn?$AAa?$AA?$AA@ 0058ac94     LIBCMTD:getqloc.obj
 0002:00024ca0       ??_C@_1M@NCHEJOPO@?$AAc?$AAz?$AAe?$AAc?$AAh?$AA?$AA@ 0058aca0     LIBCMTD:getqloc.obj
 0002:00024cac       ??_C@_1BA@BKPAPBLA@?$AAe?$AAn?$AAg?$AAl?$AAa?$AAn?$AAd?$AA?$AA@ 0058acac     LIBCMTD:getqloc.obj
 0002:00024cbc       ??_C@_1BM@HKBCKIPC@?$AAg?$AAr?$AAe?$AAa?$AAt?$AA?5?$AAb?$AAr?$AAi?$AAt?$AAa?$AAi?$AAn?$AA?$AA@ 0058acbc     LIBCMTD:getqloc.obj
 0002:00024cd8       ??_C@_1BA@PPCHPGJB@?$AAh?$AAo?$AAl?$AAl?$AAa?$AAn?$AAd?$AA?$AA@ 0058acd8     LIBCMTD:getqloc.obj
 0002:00024ce8       ??_C@_1BE@JBMPEGDG@?$AAh?$AAo?$AAn?$AAg?$AA?9?$AAk?$AAo?$AAn?$AAg?$AA?$AA@ 0058ace8     LIBCMTD:getqloc.obj
 0002:00024cfc       ??_C@_1BI@KOELBBPJ@?$AAn?$AAe?$AAw?$AA?9?$AAz?$AAe?$AAa?$AAl?$AAa?$AAn?$AAd?$AA?$AA@ 0058acfc     LIBCMTD:getqloc.obj
 0002:00024d14       ??_C@_15HIEBHAIO@?$AAn?$AAz?$AA?$AA@ 0058ad14     LIBCMTD:getqloc.obj
 0002:00024d1c       ??_C@_1BC@CHBCPFPI@?$AAp?$AAr?$AA?5?$AAc?$AAh?$AAi?$AAn?$AAa?$AA?$AA@ 0058ad1c     LIBCMTD:getqloc.obj
 0002:00024d30       ??_C@_1BC@JAOIIFKD@?$AAp?$AAr?$AA?9?$AAc?$AAh?$AAi?$AAn?$AAa?$AA?$AA@ 0058ad30     LIBCMTD:getqloc.obj
 0002:00024d44       ??_C@_1BI@BEHPPHKC@?$AAp?$AAu?$AAe?$AAr?$AAt?$AAo?$AA?9?$AAr?$AAi?$AAc?$AAo?$AA?$AA@ 0058ad44     LIBCMTD:getqloc.obj
 0002:00024d5c       ??_C@_1O@PAEOFKDI@?$AAs?$AAl?$AAo?$AAv?$AAa?$AAk?$AA?$AA@ 0058ad5c     LIBCMTD:getqloc.obj
 0002:00024d6c       ??_C@_1BK@FIHMCKAM@?$AAs?$AAo?$AAu?$AAt?$AAh?$AA?5?$AAa?$AAf?$AAr?$AAi?$AAc?$AAa?$AA?$AA@ 0058ad6c     LIBCMTD:getqloc.obj
 0002:00024d88       ??_C@_1BI@NAEOODKB@?$AAs?$AAo?$AAu?$AAt?$AAh?$AA?5?$AAk?$AAo?$AAr?$AAe?$AAa?$AA?$AA@ 0058ad88     LIBCMTD:getqloc.obj
 0002:00024da0       ??_C@_1BK@FBDGGIFF@?$AAs?$AAo?$AAu?$AAt?$AAh?$AA?9?$AAa?$AAf?$AAr?$AAi?$AAc?$AAa?$AA?$AA@ 0058ada0     LIBCMTD:getqloc.obj
 0002:00024dbc       ??_C@_1BI@GHLEJDPK@?$AAs?$AAo?$AAu?$AAt?$AAh?$AA?9?$AAk?$AAo?$AAr?$AAe?$AAa?$AA?$AA@ 0058adbc     LIBCMTD:getqloc.obj
 0002:00024dd4       ??_C@_1CE@PLHLOMJF@?$AAt?$AAr?$AAi?$AAn?$AAi?$AAd?$AAa?$AAd?$AA?5?$AA?$CG?$AA?5?$AAt?$AAo?$AAb?$AAa?$AAg?$AAo?$AA?$AA@ 0058add4     LIBCMTD:getqloc.obj
 0002:00024df8       ??_C@_1BO@MODIMHHI@?$AAu?$AAn?$AAi?$AAt?$AAe?$AAd?$AA?9?$AAk?$AAi?$AAn?$AAg?$AAd?$AAo?$AAm?$AA?$AA@ 0058adf8     LIBCMTD:getqloc.obj
 0002:00024e18       ??_C@_1BM@FFHJONBJ@?$AAu?$AAn?$AAi?$AAt?$AAe?$AAd?$AA?9?$AAs?$AAt?$AAa?$AAt?$AAe?$AAs?$AA?$AA@ 0058ae18     LIBCMTD:getqloc.obj
 0002:00024e34       ___rg_language_count       0058ae34     LIBCMTD:getqloc.obj
 0002:00024e38       ___rg_country_count        0058ae38     LIBCMTD:getqloc.obj
 0002:00024e40       ??_C@_1FA@KCJCBMIG@?$AAf?$AA?3?$AA?2?$AAd?$AAd?$AA?2?$AAv?$AAc?$AAt?$AAo?$AAo?$AAl?$AAs?$AA?2?$AAc?$AAr?$AAt?$AA?2?$AAc?$AAr?$AAt?$AAw?$AA3?$AA2?$AA?2?$AAm?$AAi?$AAs?$AAc?$AA?2?$AAg?$AAe@ 0058ae40     LIBCMTD:getqloc.obj
 0002:00024e90       ??_C@_1CO@NJACLALJ@?$AA_?$AA_?$AAg?$AAe?$AAt?$AA_?$AAq?$AAu?$AAa?$AAl?$AAi?$AAf?$AAi?$AAe?$AAd?$AA_?$AAl?$AAo?$AAc?$AAa?$AAl?$AAe?$AA?$AA@ 0058ae90     LIBCMTD:getqloc.obj
 0002:00024ec0       ??_C@_1BGM@FCCPEFDE@?$AAw?$AAc?$AAs?$AAn?$AAc?$AAp?$AAy?$AA_?$AAs?$AA?$CI?$AAl?$AAp?$AAO?$AAu?$AAt?$AAS?$AAt?$AAr?$AA?9?$AA?$DO?$AAs?$AAz?$AAL?$AAo?$AAc?$AAa?$AAl?$AAe?$AAN?$AAa?$AAm?$AAe@ 0058aec0     LIBCMTD:getqloc.obj
 0002:0002502c       ??_C@_1CM@OGEMFJNJ@?$AAL?$AAa?$AAn?$AAg?$AAC?$AAo?$AAu?$AAn?$AAt?$AAr?$AAy?$AAE?$AAn?$AAu?$AAm?$AAP?$AAr?$AAo?$AAc?$AAE?$AAx?$AA?$AA@ 0058b02c     LIBCMTD:getqloc.obj
 0002:00025058       ??_C@_1BFO@LLJKJAIC@?$AAw?$AAc?$AAs?$AAn?$AAc?$AAp?$AAy?$AA_?$AAs?$AA?$CI?$AA_?$AAp?$AAs?$AAe?$AAt?$AAl?$AAo?$AAc?$AA_?$AAd?$AAa?$AAt?$AAa?$AA?9?$AA?$DO?$AA_?$AAc?$AAa?$AAc?$AAh?$AAe?$AAL@ 0058b058     LIBCMTD:getqloc.obj
 0002:000251b8       ??_C@_1CG@PGLLICHO@?$AAL?$AAa?$AAn?$AAg?$AAu?$AAa?$AAg?$AAe?$AAE?$AAn?$AAu?$AAm?$AAP?$AAr?$AAo?$AAc?$AAE?$AAx?$AA?$AA@ 0058b1b8     LIBCMTD:getqloc.obj
 0002:000251e0       ??_C@_1DC@CPKFANGP@?$AAG?$AAe?$AAt?$AAL?$AAo?$AAc?$AAa?$AAl?$AAe?$AAN?$AAa?$AAm?$AAe?$AAF?$AAr?$AAo?$AAm?$AAD?$AAe?$AAf?$AAa?$AAu?$AAl?$AAt?$AA?$AA@ 0058b1e0     LIBCMTD:getqloc.obj
 0002:00025218       ??_C@_1BEO@EJBNGKHB@?$AAw?$AAc?$AAs?$AAn?$AAc?$AAp?$AAy?$AA_?$AAs?$AA?$CI?$AA_?$AAp?$AAs?$AAe?$AAt?$AAl?$AAo?$AAc?$AA_?$AAd?$AAa?$AAt?$AAa?$AA?9?$AA?$DO?$AA_?$AAc?$AAa?$AAc?$AAh?$AAe?$AAL@ 0058b218     LIBCMTD:getqloc.obj
 0002:00025368       ??_C@_17DNCLJFIF@?$AAA?$AAC?$AAP?$AA?$AA@ 0058b368     LIBCMTD:getqloc.obj
 0002:00025370       ??_C@_17CIKBIHLH@?$AAO?$AAC?$AAP?$AA?$AA@ 0058b370     LIBCMTD:getqloc.obj
 0002:00025378       ___rglangidNotDefault      0058b378     LIBCMTD:getqloc_downlevel.obj
 0002:00025390       ??_C@_1FA@DLIHGOGB@?$AAf?$AA?3?$AA?2?$AAd?$AAd?$AA?2?$AAv?$AAc?$AAt?$AAo?$AAo?$AAl?$AAs?$AA?2?$AAc?$AAr?$AAt?$AA?2?$AAc?$AAr?$AAt?$AAw?$AA3?$AA2?$AA?2?$AAs?$AAt?$AAd?$AAi?$AAo?$AA?2?$AAu@ 0058b390     LIBCMTD:ungetc.obj
 0002:000253e0       ??_C@_1O@JDPLECOK@?$AAu?$AAn?$AAg?$AAe?$AAt?$AAc?$AA?$AA@ 0058b3e0     LIBCMTD:ungetc.obj
 0002:000253f0       ??_C@_1FK@GNHGKPOM@?$AAf?$AA?3?$AA?2?$AAd?$AAd?$AA?2?$AAv?$AAc?$AAt?$AAo?$AAo?$AAl?$AAs?$AA?2?$AAc?$AAr?$AAt?$AA?2?$AAc?$AAr?$AAt?$AAw?$AA3?$AA2?$AA?2?$AAh?$AA?2?$AAu?$AAn?$AAg?$AAe?$AAt@ 0058b3f0     LIBCMTD:ungetc.obj
 0002:0002544c       ??_C@_1BO@OLMLKKEA@?$AA_?$AAu?$AAn?$AAg?$AAe?$AAt?$AAc?$AA_?$AAn?$AAo?$AAl?$AAo?$AAc?$AAk?$AA?$AA@ 0058b44c     LIBCMTD:ungetc.obj
 0002:00025470       ??_C@_1FC@LGKDBMCL@?$AAf?$AA?3?$AA?2?$AAd?$AAd?$AA?2?$AAv?$AAc?$AAt?$AAo?$AAo?$AAl?$AAs?$AA?2?$AAc?$AAr?$AAt?$AA?2?$AAc?$AAr?$AAt?$AAw?$AA3?$AA2?$AA?2?$AAs?$AAt?$AAd?$AAi?$AAo?$AA?2?$AA_@ 0058b470     LIBCMTD:_getbuf.obj
 0002:000254c4       ??_C@_0CJ@NMDFOMAF@f?3?2dd?2vctools?2crt?2crtw32?2stdio?2_@ 0058b4c4     LIBCMTD:_getbuf.obj
 0002:000254f0       ??_C@_1CO@HFMIILNF@?$AAs?$AAi?$AAz?$AAe?$AAI?$AAn?$AAB?$AAy?$AAt?$AAe?$AAs?$AA?5?$AA?$DM?$AA?$DN?$AA?5?$AAI?$AAN?$AAT?$AA_?$AAM?$AAA?$AAX?$AA?$AA@ 0058b4f0     LIBCMTD:wctomb.obj
 0002:00025520       ??_C@_1FE@GKMDCPPB@?$AAf?$AA?3?$AA?2?$AAd?$AAd?$AA?2?$AAv?$AAc?$AAt?$AAo?$AAo?$AAl?$AAs?$AA?2?$AAc?$AAr?$AAt?$AA?2?$AAc?$AAr?$AAt?$AAw?$AA3?$AA2?$AA?2?$AAc?$AAo?$AAn?$AAv?$AAe?$AAr?$AAt@ 0058b520     LIBCMTD:wctomb.obj
 0002:00025574       ??_C@_1BI@IEADNOHF@?$AA_?$AAw?$AAc?$AAt?$AAo?$AAm?$AAb?$AA_?$AAs?$AA_?$AAl?$AA?$AA@ 0058b574     LIBCMTD:wctomb.obj
 0002:0002558c       ??_C@_1BI@KANOLAMF@?$AA_?$AAo?$AAu?$AAt?$AAp?$AAu?$AAt?$AA_?$AAp?$AA_?$AAl?$AA?$AA@ 0058b58c     LIBCMTD:outputp.obj
 0002:000255a8       ??_C@_1JC@PFJNKEIO@?$AA?$CI?$AA?$CI?$AAt?$AAy?$AAp?$AAe?$AA_?$AAp?$AAo?$AAs?$AA?5?$AA?$DO?$AA?$DN?$AA?5?$AA0?$AA?$CJ?$AA?5?$AA?$CG?$AA?$CG?$AA?5?$AA?$CI?$AA?$CK?$AAe?$AAn?$AAd?$AA_?$AAp?$AAo?$AAs?$AA?5?$AA?$DN?$AA?$DN@ 0058b5a8     LIBCMTD:outputp.obj
 0002:00025640       ??_C@_1EE@DMAIGNBG@?$AA?$CI?$AA?$CC?$AAI?$AAn?$AAc?$AAo?$AAr?$AAr?$AAe?$AAc?$AAt?$AA?5?$AAf?$AAo?$AAr?$AAm?$AAa?$AAt?$AA?5?$AAs?$AAp?$AAe?$AAc?$AAi?$AAf?$AAi?$AAe?$AAr?$AA?$CC?$AA?0?$AA?5?$AA0@ 0058b640     LIBCMTD:outputp.obj
 0002:00025688       ??_C@_1JE@NMBHOLFI@?$AA?$CI?$AA?$CI?$AAw?$AAi?$AAd?$AAt?$AAh?$AA_?$AAp?$AAo?$AAs?$AA?5?$AA?$DO?$AA?$DN?$AA?5?$AA0?$AA?$CJ?$AA?5?$AA?$CG?$AA?$CG?$AA?5?$AA?$CI?$AA?$CK?$AAe?$AAn?$AAd?$AA_?$AAp?$AAo?$AAs?$AA?5?$AA?$DN@ 0058b688     LIBCMTD:outputp.obj
 0002:00025720       ??_C@_1II@PIPIMLPF@?$AA_?$AAt?$AAv?$AAa?$AAl?$AAi?$AAd?$AAa?$AAt?$AAe?$AA_?$AAp?$AAa?$AAr?$AAa?$AAm?$AA_?$AAr?$AAe?$AAu?$AAs?$AAe?$AA?$CI?$AA?$CG?$AAp?$AAo?$AAs?$AA_?$AAv?$AAa?$AAl?$AAu@ 0058b720     LIBCMTD:outputp.obj
 0002:000257a8       ??_C@_1JG@JBJBOCFB@?$AA?$CI?$AA?$CI?$AAp?$AAr?$AAe?$AAc?$AAi?$AAs?$AA_?$AAp?$AAo?$AAs?$AA?5?$AA?$DO?$AA?$DN?$AA?5?$AA0?$AA?$CJ?$AA?5?$AA?$CG?$AA?$CG?$AA?5?$AA?$CI?$AA?$CK?$AAe?$AAn?$AAd?$AA_?$AAp?$AAo?$AAs?$AA?5@ 0058b7a8     LIBCMTD:outputp.obj
 0002:00025840       ??_C@_1IK@EIEPDKHJ@?$AA_?$AAt?$AAv?$AAa?$AAl?$AAi?$AAd?$AAa?$AAt?$AAe?$AA_?$AAp?$AAa?$AAr?$AAa?$AAm?$AA_?$AAr?$AAe?$AAu?$AAs?$AAe?$AA?$CI?$AA?$CG?$AAp?$AAo?$AAs?$AA_?$AAv?$AAa?$AAl?$AAu@ 0058b840     LIBCMTD:outputp.obj
 0002:000258d0       ??_C@_1EM@BNPHBBIA@?$AA?$CI?$AA?$CI?$AAt?$AAy?$AAp?$AAe?$AA_?$AAp?$AAo?$AAs?$AA?$DO?$AA?$DN?$AA0?$AA?$CJ?$AA?5?$AA?$CG?$AA?$CG?$AA?5?$AA?$CI?$AAt?$AAy?$AAp?$AAe?$AA_?$AAp?$AAo?$AAs?$AA?$DM?$AA_?$AAA?$AAR?$AAG@ 0058b8d0     LIBCMTD:outputp.obj
 0002:00025920       ??_C@_1IK@MHEDJAMK@?$AA_?$AAt?$AAv?$AAa?$AAl?$AAi?$AAd?$AAa?$AAt?$AAe?$AA_?$AAp?$AAa?$AAr?$AAa?$AAm?$AA_?$AAr?$AAe?$AAu?$AAs?$AAe?$AA?$CI?$AA?$CG?$AAp?$AAo?$AAs?$AA_?$AAv?$AAa?$AAl?$AAu@ 0058b920     LIBCMTD:outputp.obj
 0002:000259b0       ??_C@_1IG@FDCPLALG@?$AA_?$AAt?$AAv?$AAa?$AAl?$AAi?$AAd?$AAa?$AAt?$AAe?$AA_?$AAp?$AAa?$AAr?$AAa?$AAm?$AA_?$AAr?$AAe?$AAu?$AAs?$AAe?$AA?$CI?$AA?$CG?$AAp?$AAo?$AAs?$AA_?$AAv?$AAa?$AAl?$AAu@ 0058b9b0     LIBCMTD:outputp.obj
 0002:00025a38       ??_C@_1IG@HJIMKDHC@?$AA_?$AAt?$AAv?$AAa?$AAl?$AAi?$AAd?$AAa?$AAt?$AAe?$AA_?$AAp?$AAa?$AAr?$AAa?$AAm?$AA_?$AAr?$AAe?$AAu?$AAs?$AAe?$AA?$CI?$AA?$CG?$AAp?$AAo?$AAs?$AA_?$AAv?$AAa?$AAl?$AAu@ 0058ba38     LIBCMTD:outputp.obj
 0002:00025ac0       ??_C@_1IM@DNGHAPLB@?$AA_?$AAt?$AAv?$AAa?$AAl?$AAi?$AAd?$AAa?$AAt?$AAe?$AA_?$AAp?$AAa?$AAr?$AAa?$AAm?$AA_?$AAr?$AAe?$AAu?$AAs?$AAe?$AA?$CI?$AA?$CG?$AAp?$AAo?$AAs?$AA_?$AAv?$AAa?$AAl?$AAu@ 0058bac0     LIBCMTD:outputp.obj
 0002:00025b4c       ??_C@_1DG@GOHGNKHE@?$AAp?$AAa?$AAs?$AAs?$AA?5?$AA?$DN?$AA?$DN?$AA?5?$AAF?$AAO?$AAR?$AAM?$AAA?$AAT?$AA_?$AAO?$AAU?$AAT?$AAP?$AAU?$AAT?$AA_?$AAP?$AAA?$AAS?$AAS?$AA?$AA@ 0058bb4c     LIBCMTD:outputp.obj
 0002:00025b88       ??_C@_1IK@NBGDDCBN@?$AA_?$AAt?$AAv?$AAa?$AAl?$AAi?$AAd?$AAa?$AAt?$AAe?$AA_?$AAp?$AAa?$AAr?$AAa?$AAm?$AA_?$AAr?$AAe?$AAu?$AAs?$AAe?$AA?$CI?$AA?$CG?$AAp?$AAo?$AAs?$AA_?$AAv?$AAa?$AAl?$AAu@ 0058bb88     LIBCMTD:outputp.obj
 0002:00025c18       ??_C@_1JC@OACKELNN@?$AA_?$AAt?$AAv?$AAa?$AAl?$AAi?$AAd?$AAa?$AAt?$AAe?$AA_?$AAp?$AAa?$AAr?$AAa?$AAm?$AA_?$AAr?$AAe?$AAu?$AAs?$AAe?$AA?$CI?$AA?$CG?$AAp?$AAo?$AAs?$AA_?$AAv?$AAa?$AAl?$AAu@ 0058bc18     LIBCMTD:outputp.obj
 0002:00025cb0       ??_C@_1FK@LNCFKALM@?$AA?$CI?$AA?$CI?$AAs?$AAt?$AAa?$AAt?$AAe?$AA?5?$AA?$DN?$AA?$DN?$AA?5?$AAS?$AAT?$AA_?$AAN?$AAO?$AAR?$AAM?$AAA?$AAL?$AA?$CJ?$AA?5?$AA?$HM?$AA?$HM?$AA?5?$AA?$CI?$AAs?$AAt?$AAa?$AAt?$AAe?$AA?5@ 0058bcb0     LIBCMTD:outputp.obj
 0002:00025d10       ??_C@_1FK@BCPANIEK@?$AA?$CI?$AA?$CC?$AAM?$AAi?$AAs?$AAs?$AAi?$AAn?$AAg?$AA?5?$AAp?$AAo?$AAs?$AAi?$AAt?$AAi?$AAo?$AAn?$AA?5?$AAi?$AAn?$AA?5?$AAt?$AAh?$AAe?$AA?5?$AAf?$AAo?$AAr?$AAm?$AAa?$AAt@ 0058bd10     LIBCMTD:outputp.obj
 0002:00025d70       ___lookuptable_s           0058bd70     LIBCMTD:outputs.obj
 0002:00025dcc       ??_C@_1BI@COFBLHCG@?$AA_?$AAo?$AAu?$AAt?$AAp?$AAu?$AAt?$AA_?$AAs?$AA_?$AAl?$AA?$AA@ 0058bdcc     LIBCMTD:outputs.obj
 0002:00025de4       ??_C@_1BK@EPLNBKAK@?$AA_?$AAv?$AAs?$AAw?$AAp?$AAr?$AAi?$AAn?$AAt?$AAf?$AA_?$AAl?$AA?$AA@ 0058bde4     LIBCMTD:vswprint.obj
 0002:00025e00       ??_C@_1CG@IMMIEPNA@?$AA_?$AAv?$AAs?$AAc?$AAw?$AAp?$AAr?$AAi?$AAn?$AAt?$AAf?$AA_?$AAh?$AAe?$AAl?$AAp?$AAe?$AAr?$AA?$AA@ 0058be00     LIBCMTD:vswprint.obj
 0002:00025e28       ??_C@_1BG@BBCDFOMA@?$AA_?$AAw?$AAo?$AAu?$AAt?$AAp?$AAu?$AAt?$AA_?$AAl?$AA?$AA@ 0058be28     LIBCMTD:woutput.obj
 0002:00025e40       ??_C@_1O@GIMBNLEI@?$AAx?$AAt?$AAo?$AAa?$AA_?$AAs?$AA?$AA@ 0058be40     LIBCMTD:xtoas.obj
 0002:00025e50       ??_C@_1BC@MJJNBNFN@?$AAx?$AA6?$AA4?$AAt?$AAo?$AAa?$AA_?$AAs?$AA?$AA@ 0058be50     LIBCMTD:xtoas.obj
 0002:00025e68       ??_C@_1FE@PMGAPFGI@?$AAf?$AA?3?$AA?2?$AAd?$AAd?$AA?2?$AAv?$AAc?$AAt?$AAo?$AAo?$AAl?$AAs?$AA?2?$AAc?$AAr?$AAt?$AA?2?$AAc?$AAr?$AAt?$AAw?$AA3?$AA2?$AA?2?$AAs?$AAt?$AAd?$AAi?$AAo?$AA?2?$AAv@ 0058be68     LIBCMTD:vfwprint.obj
 0002:00025ebc       ??_C@_1CC@MONNFDCM@?$AAv?$AAf?$AAw?$AAp?$AAr?$AAi?$AAn?$AAt?$AAf?$AA_?$AAh?$AAe?$AAl?$AAp?$AAe?$AAr?$AA?$AA@ 0058bebc     LIBCMTD:vfwprint.obj
 0002:00025ee0       ??_C@_1BK@ONMFGLDB@?$AA_?$AAw?$AAo?$AAu?$AAt?$AAp?$AAu?$AAt?$AA_?$AAs?$AA_?$AAl?$AA?$AA@ 0058bee0     LIBCMTD:woutputs.obj
 0002:00025efc       ??_C@_1BK@GDEKGMNC@?$AA_?$AAw?$AAo?$AAu?$AAt?$AAp?$AAu?$AAt?$AA_?$AAp?$AA_?$AAl?$AA?$AA@ 0058befc     LIBCMTD:woutputp.obj
 0002:00025f18       ??_C@_1FE@DNGHOFOC@?$AAf?$AA?3?$AA?2?$AAd?$AAd?$AA?2?$AAv?$AAc?$AAt?$AAo?$AAo?$AAl?$AAs?$AA?2?$AAc?$AAr?$AAt?$AA?2?$AAc?$AAr?$AAt?$AAw?$AA3?$AA2?$AA?2?$AAc?$AAo?$AAn?$AAv?$AAe?$AAr?$AAt@ 0058bf18     LIBCMTD:strtod.obj
 0002:00025f6c       ??_C@_1BE@KFBKGHJC@?$AA_?$AAs?$AAt?$AAr?$AAt?$AAo?$AAd?$AA_?$AAl?$AA?$AA@ 0058bf6c     LIBCMTD:strtod.obj
 0002:00025f80       ??_C@_1CC@ICKKAGJA@?$AA_?$AAs?$AAt?$AAr?$AAi?$AAn?$AAg?$AA1?$AA?5?$AA?$CB?$AA?$DN?$AA?5?$AAN?$AAU?$AAL?$AAL?$AA?$AA@ 0058bf80     LIBCMTD:strnicol.obj
 0002:00025fa8       ??_C@_1FG@PLEDDDHB@?$AAf?$AA?3?$AA?2?$AAd?$AAd?$AA?2?$AAv?$AAc?$AAt?$AAo?$AAo?$AAl?$AAs?$AA?2?$AAc?$AAr?$AAt?$AA?2?$AAc?$AAr?$AAt?$AAw?$AA3?$AA2?$AA?2?$AAs?$AAt?$AAr?$AAi?$AAn?$AAg?$AA?2@ 0058bfa8     LIBCMTD:strnicol.obj
 0002:00026000       ??_C@_1BK@IOJEBPLP@?$AA_?$AAs?$AAt?$AAr?$AAn?$AAi?$AAc?$AAo?$AAl?$AAl?$AA_?$AAl?$AA?$AA@ 0058c000     LIBCMTD:strnicol.obj
 0002:0002601c       ??_C@_1CC@CNADELFK@?$AA_?$AAs?$AAt?$AAr?$AAi?$AAn?$AAg?$AA2?$AA?5?$AA?$CB?$AA?$DN?$AA?5?$AAN?$AAU?$AAL?$AAL?$AA?$AA@ 0058c01c     LIBCMTD:strnicol.obj
 0002:00026040       ??_C@_1HK@ELDMAMK@?$AAc?$AAc?$AAh?$AAC?$AAo?$AAu?$AAn?$AAt?$AA1?$AA?$DN?$AA?$DN?$AA0?$AA?5?$AA?$CG?$AA?$CG?$AA?5?$AAc?$AAc?$AAh?$AAC?$AAo?$AAu?$AAn?$AAt?$AA2?$AA?$DN?$AA?$DN?$AA1?$AA?5?$AA?$HM?$AA?$HM?$AA?5@ 0058c040     LIBCMTD:a_cmp.obj
 0002:000260c0       ??_C@_1EM@FKHOBKLM@?$AAf?$AA?3?$AA?2?$AAd?$AAd?$AA?2?$AAv?$AAc?$AAt?$AAo?$AAo?$AAl?$AAs?$AA?2?$AAc?$AAr?$AAt?$AA?2?$AAc?$AAr?$AAt?$AAw?$AA3?$AA2?$AA?2?$AAm?$AAi?$AAs?$AAc?$AA?2?$AAa?$AA_@ 0058c0c0     LIBCMTD:a_cmp.obj
 0002:0002610c       ??_C@_1BO@ECCJIFJJ@?$AA_?$AAw?$AAf?$AAu?$AAl?$AAl?$AAp?$AAa?$AAt?$AAh?$AA_?$AAd?$AAb?$AAg?$AA?$AA@ 0058c10c     LIBCMTD:wfullpat.obj
 0002:0002612c       ??_C@_19DOGDICKI@?$AA?4?$AAe?$AAx?$AAe?$AA?$AA@ 0058c12c     LIBCMTD:wstat.obj
 0002:00026138       ??_C@_19BDKLHPGC@?$AA?4?$AAc?$AAm?$AAd?$AA?$AA@ 0058c138     LIBCMTD:wstat.obj
 0002:00026144       ??_C@_19PINKOIBI@?$AA?4?$AAb?$AAa?$AAt?$AA?$AA@ 0058c144     LIBCMTD:wstat.obj
 0002:00026150       ??_C@_19CDGLJBOD@?$AA?4?$AAc?$AAo?$AAm?$AA?$AA@ 0058c150     LIBCMTD:wstat.obj
 0002:00026160       ??_C@_1EI@MABHPMCO@?$AAf?$AA?3?$AA?2?$AAd?$AAd?$AA?2?$AAv?$AAc?$AAt?$AAo?$AAo?$AAl?$AAs?$AA?2?$AAc?$AAr?$AAt?$AA?2?$AAc?$AAr?$AAt?$AAw?$AA3?$AA2?$AA?2?$AAd?$AAo?$AAs?$AA?2?$AAs?$AAt?$AAa@ 0058c160     LIBCMTD:wstat.obj
 0002:000261a8       ??_C@_1BC@KHJLGKNG@?$AA_?$AAw?$AAs?$AAt?$AAa?$AAt?$AA3?$AA2?$AA?$AA@ 0058c1a8     LIBCMTD:wstat.obj
 0002:000261fc       ?LocalIdBitWidth@CrossScopeId@CodeViewInfo@@2IB 0058c1fc     LIBCMTD:pdblkup.obj
 0002:00026200       ?IdScopeBitWidth@CrossScopeId@CodeViewInfo@@2IB 0058c200     LIBCMTD:pdblkup.obj
 0002:00026204       ?StartCrossScopeId@CrossScopeId@CodeViewInfo@@2IB 0058c204     LIBCMTD:pdblkup.obj
 0002:00026208       ?LocalIdMask@CrossScopeId@CodeViewInfo@@2IB 0058c208     LIBCMTD:pdblkup.obj
 0002:0002620c       ?ScopeIdMask@CrossScopeId@CodeViewInfo@@2IB 0058c20c     LIBCMTD:pdblkup.obj
 0002:00026210       ?MaxLocalId@CrossScopeId@CodeViewInfo@@2IB 0058c210     LIBCMTD:pdblkup.obj
 0002:00026214       ?MaxScopeId@CrossScopeId@CodeViewInfo@@2IB 0058c214     LIBCMTD:pdblkup.obj
 0002:00026218       ??_C@_0O@COHOBMLB@RegOpenKeyExW?$AA@ 0058c218     LIBCMTD:pdblkup.obj
 0002:00026228       ??_C@_0BB@GLNAEDBD@RegQueryValueExW?$AA@ 0058c228     LIBCMTD:pdblkup.obj
 0002:0002623c       ??_C@_0M@HLOHPNFA@RegCloseKey?$AA@ 0058c23c     LIBCMTD:pdblkup.obj
 0002:00026248       ??_C@_1FM@EGIBBNPP@?$AAS?$AAO?$AAF?$AAT?$AAW?$AAA?$AAR?$AAE?$AA?2?$AAM?$AAi?$AAc?$AAr?$AAo?$AAs?$AAo?$AAf?$AAt?$AA?2?$AAV?$AAi?$AAs?$AAu?$AAa?$AAl?$AAS?$AAt?$AAu?$AAd?$AAi?$AAo?$AA?2@ 0058c248     LIBCMTD:pdblkup.obj
 0002:000262a4       ??_C@_1BG@EABPBLLF@?$AAP?$AAr?$AAo?$AAd?$AAu?$AAc?$AAt?$AAD?$AAi?$AAr?$AA?$AA@ 0058c2a4     LIBCMTD:pdblkup.obj
 0002:000262d8       ??_C@_1BC@EOIMGOME@?$AAM?$AAS?$AAP?$AAD?$AAB?$AA1?$AA2?$AA0?$AA?$AA@ 0058c2d8     LIBCMTD:pdblkup.obj
 0002:000262ec       ??_C@_0BB@KCIACLNC@PDBOpenValidate5?$AA@ 0058c2ec     LIBCMTD:pdblkup.obj
 0002:00026300       ??_C@_01KDCPPGHE@r?$AA@    0058c300     LIBCMTD:pdblkup.obj
 0002:00026304       ??_C@_1BA@BALFACEM@?$AAC?$AAO?$AAN?$AAO?$AAU?$AAT?$AA$?$AA?$AA@ 0058c304     LIBCMTD:initcon.obj
 0002:00026318       ??_C@_1FG@EJDCBLCG@?$AAf?$AA?3?$AA?2?$AAd?$AAd?$AA?2?$AAv?$AAc?$AAt?$AAo?$AAo?$AAl?$AAs?$AA?2?$AAc?$AAr?$AAt?$AA?2?$AAc?$AAr?$AAt?$AAw?$AA3?$AA2?$AA?2?$AAs?$AAt?$AAr?$AAi?$AAn?$AAg?$AA?2@ 0058c318     LIBCMTD:wcsnicol.obj
 0002:00026370       ??_C@_1BK@EONLMOKH@?$AA_?$AAw?$AAc?$AAs?$AAn?$AAi?$AAc?$AAo?$AAl?$AAl?$AA_?$AAl?$AA?$AA@ 0058c370     LIBCMTD:wcsnicol.obj
 0002:0002638c       ??_C@_1BG@PCPANGGF@?$AA_?$AAw?$AAc?$AAs?$AAn?$AAi?$AAc?$AAo?$AAl?$AAl?$AA?$AA@ 0058c38c     LIBCMTD:wcsnicol.obj
 0002:000263a4       ??_C@_1BE@OMLKOOJF@?$AA_?$AAw?$AAs?$AAe?$AAt?$AAe?$AAn?$AAv?$AAp?$AA?$AA@ 0058c3a4     LIBCMTD:wstdenvp.obj
 0002:000263b8       ??_C@_1DE@IJEMLPNE@?$AAw?$AAc?$AAs?$AAc?$AAp?$AAy?$AA_?$AAs?$AA?$CI?$AA?$CK?$AAe?$AAn?$AAv?$AA?0?$AA?5?$AAc?$AAc?$AAh?$AAa?$AAr?$AAs?$AA?0?$AA?5?$AAp?$AA?$CJ?$AA?$AA@ 0058c3b8     LIBCMTD:wstdenvp.obj
 0002:000263ec       ??_C@_0CJ@ODMLPJAM@f?3?2dd?2vctools?2crt?2crtw32?2misc?2mb@ 0058c3ec     LIBCMTD:mbtowenv.obj
 0002:00026418       ??_C@_0CG@GHAJPCBJ@f?3?2dd?2vctools?2crt?2crtw32?2misc?2w_@ 0058c418     LIBCMTD:w_env.obj
 0002:00026440       ??_C@_1FK@HBIEJCLJ@?$AAf?$AA?3?$AA?2?$AAd?$AAd?$AA?2?$AAv?$AAc?$AAt?$AAo?$AAo?$AAl?$AAs?$AA?2?$AAc?$AAr?$AAt?$AA?2?$AAc?$AAr?$AAt?$AAw?$AA3?$AA2?$AA?2?$AAm?$AAb?$AAs?$AAt?$AAr?$AAi?$AAn@ 0058c440     LIBCMTD:mbsnbcmp.obj
 0002:0002649c       ??_C@_1BI@LPHOHGHI@?$AA_?$AAm?$AAb?$AAs?$AAn?$AAb?$AAc?$AAm?$AAp?$AA_?$AAl?$AA?$AA@ 0058c49c     LIBCMTD:mbsnbcmp.obj
 0002:000264b8       ??_C@_1FK@GCMEGOJB@?$AAf?$AA?3?$AA?2?$AAd?$AAd?$AA?2?$AAv?$AAc?$AAt?$AAo?$AAo?$AAl?$AAs?$AA?2?$AAc?$AAr?$AAt?$AA?2?$AAc?$AAr?$AAt?$AAw?$AA3?$AA2?$AA?2?$AAm?$AAb?$AAs?$AAt?$AAr?$AAi?$AAn@ 0058c4b8     LIBCMTD:mbsnbicm.obj
 0002:00026514       ??_C@_1BK@GEJONGBG@?$AA_?$AAm?$AAb?$AAs?$AAn?$AAb?$AAi?$AAc?$AAm?$AAp?$AA_?$AAl?$AA?$AA@ 0058c514     LIBCMTD:mbsnbicm.obj
 0002:00026530       ??_C@_1FA@FLOICDHO@?$AAf?$AA?3?$AA?2?$AAd?$AAd?$AA?2?$AAv?$AAc?$AAt?$AAo?$AAo?$AAl?$AAs?$AA?2?$AAc?$AAr?$AAt?$AA?2?$AAc?$AAr?$AAt?$AAw?$AA3?$AA2?$AA?2?$AAl?$AAo?$AAw?$AAi?$AAo?$AA?2?$AAc@ 0058c530     LIBCMTD:chsize.obj
 0002:00026580       ??_C@_1BE@MAFDNGED@?$AA_?$AAc?$AAh?$AAs?$AAi?$AAz?$AAe?$AA_?$AAs?$AA?$AA@ 0058c580     LIBCMTD:chsize.obj
 0002:00026594       ??_C@_1BI@GALBKMKE@?$AA?$CI?$AAs?$AAi?$AAz?$AAe?$AA?5?$AA?$DO?$AA?$DN?$AA?5?$AA0?$AA?$CJ?$AA?$AA@ 0058c594     LIBCMTD:chsize.obj
 0002:000265ac       ??_C@_1CA@MBDBOHIB@?$AA_?$AAL?$AAo?$AAc?$AAa?$AAl?$AAe?$AA?5?$AA?$CB?$AA?$DN?$AA?5?$AAN?$AAU?$AAL?$AAL?$AA?$AA@ 0058c5ac     LIBCMTD:strgtold.obj
 0002:000265d0       ??_C@_1FO@OFJNJPKB@?$AAf?$AA?3?$AA?2?$AAd?$AAd?$AA?2?$AAv?$AAc?$AAt?$AAo?$AAo?$AAl?$AAs?$AA?2?$AAc?$AAr?$AAt?$AA?2?$AAf?$AAp?$AAw?$AA3?$AA2?$AA?2?$AAi?$AAn?$AAc?$AAl?$AAu?$AAd?$AAe?$AA?2@ 0058c5d0     LIBCMTD:strgtold.obj
 0002:00026630       ??_C@_1BO@IHLJHOPI@?$AA_?$AA_?$AAs?$AAt?$AAr?$AAg?$AAt?$AAo?$AAl?$AAd?$AA1?$AA2?$AA_?$AAl?$AA?$AA@ 0058c630     LIBCMTD:strgtold.obj
 0002:00026650       ??_C@_1EO@IKHIJFCK@?$AAf?$AA?3?$AA?2?$AAd?$AAd?$AA?2?$AAv?$AAc?$AAt?$AAo?$AAo?$AAl?$AAs?$AA?2?$AAc?$AAr?$AAt?$AA?2?$AAf?$AAp?$AAw?$AA3?$AA2?$AA?2?$AAc?$AAo?$AAn?$AAv?$AA?2?$AAx?$AA1?$AA0@ 0058c650     LIBCMTD:x10fout.obj
 0002:000266a0       ??_C@_1BI@ELMAAFLN@?$AA$?$AAI?$AA1?$AA0?$AA_?$AAO?$AAU?$AAT?$AAP?$AAU?$AAT?$AA?$AA@ 0058c6a0     LIBCMTD:x10fout.obj
 0002:000266b8       ??_C@_1EG@CDDBFNOB@?$AAs?$AAt?$AAr?$AAc?$AAp?$AAy?$AA_?$AAs?$AA?$CI?$AAf?$AAo?$AAs?$AA?9?$AA?$DO?$AAm?$AAa?$AAn?$AA?0?$AA?5?$AA2?$AA1?$AA?$CL?$AA1?$AA?0?$AA?5?$AA?$CC?$AA1?$AA?$CD?$AAS?$AAN?$AAA?$AAN@ 0058c6b8     LIBCMTD:x10fout.obj
 0002:00026700       ??_C@_06PGGFOGJG@1?$CDSNAN?$AA@ 0058c700     LIBCMTD:x10fout.obj
 0002:00026708       ??_C@_1EE@MADEBIHF@?$AAs?$AAt?$AAr?$AAc?$AAp?$AAy?$AA_?$AAs?$AA?$CI?$AAf?$AAo?$AAs?$AA?9?$AA?$DO?$AAm?$AAa?$AAn?$AA?0?$AA?5?$AA2?$AA1?$AA?$CL?$AA1?$AA?0?$AA?5?$AA?$CC?$AA1?$AA?$CD?$AAI?$AAN?$AAD?$AA?$CC@ 0058c708     LIBCMTD:x10fout.obj
 0002:0002674c       ??_C@_05PHHOCPM@1?$CDIND?$AA@ 0058c74c     LIBCMTD:x10fout.obj
 0002:00026758       ??_C@_1EE@ICBBBPAI@?$AAs?$AAt?$AAr?$AAc?$AAp?$AAy?$AA_?$AAs?$AA?$CI?$AAf?$AAo?$AAs?$AA?9?$AA?$DO?$AAm?$AAa?$AAn?$AA?0?$AA?5?$AA2?$AA1?$AA?$CL?$AA1?$AA?0?$AA?5?$AA?$CC?$AA1?$AA?$CD?$AAI?$AAN?$AAF?$AA?$CC@ 0058c758     LIBCMTD:x10fout.obj
 0002:0002679c       ??_C@_05DNEBIAHO@1?$CDINF?$AA@ 0058c79c     LIBCMTD:x10fout.obj
 0002:000267a8       ??_C@_1EG@MCFPJJEM@?$AAs?$AAt?$AAr?$AAc?$AAp?$AAy?$AA_?$AAs?$AA?$CI?$AAf?$AAo?$AAs?$AA?9?$AA?$DO?$AAm?$AAa?$AAn?$AA?0?$AA?5?$AA2?$AA1?$AA?$CL?$AA1?$AA?0?$AA?5?$AA?$CC?$AA1?$AA?$CD?$AAQ?$AAN?$AAA?$AAN@ 0058c7a8     LIBCMTD:x10fout.obj
 0002:000267f0       ??_C@_06IMKFLFPG@1?$CDQNAN?$AA@ 0058c7f0     LIBCMTD:x10fout.obj
 0002:000267f8       ?commonFlags@?1??_control87@@9@9 0058c7f8     LIBCMTD:ieee87.obj
 0002:00026800       ??_C@_1FG@DINMPAPJ@?$AAf?$AA?3?$AA?2?$AAd?$AAd?$AA?2?$AAv?$AAc?$AAt?$AAo?$AAo?$AAl?$AAs?$AA?2?$AAc?$AAr?$AAt?$AA?2?$AAf?$AAp?$AAw?$AA3?$AA2?$AA?2?$AAt?$AAr?$AAa?$AAn?$AA?2?$AAi?$AA3?$AA8@ 0058c800     LIBCMTD:ieee87.obj
 0002:00026858       ??_C@_1BO@OFDNCLL@?$AA_?$AAs?$AAe?$AAt?$AA_?$AAc?$AAo?$AAn?$AAt?$AAr?$AAo?$AAl?$AAf?$AAp?$AA?$AA@ 0058c858     LIBCMTD:ieee87.obj
 0002:00026878       ??_C@_1GO@OKJGOMCB@?$AA_?$AAc?$AAo?$AAn?$AAt?$AAr?$AAo?$AAl?$AAf?$AAp?$AA_?$AAs?$AA?$CI?$AA?$CI?$AA?$CI?$AAv?$AAo?$AAi?$AAd?$AA?5?$AA?$CK?$AA?$CJ?$AA0?$AA?$CJ?$AA?0?$AA?5?$AAn?$AAe?$AAw?$AAc?$AAt?$AAr@ 0058c878     LIBCMTD:ieee87.obj
 0002:000268e8       ??_C@_1FE@NDFDLJMJ@?$AAf?$AA?3?$AA?2?$AAd?$AAd?$AA?2?$AAv?$AAc?$AAt?$AAo?$AAo?$AAl?$AAs?$AA?2?$AAc?$AAr?$AAt?$AA?2?$AAc?$AAr?$AAt?$AAw?$AA3?$AA2?$AA?2?$AAs?$AAt?$AAr?$AAi?$AAn?$AAg?$AA?2@ 0058c8e8     LIBCMTD:wcsicmp.obj
 0002:0002693c       ??_C@_1BG@EELGPCPD@?$AA_?$AAw?$AAc?$AAs?$AAi?$AAc?$AAm?$AAp?$AA_?$AAl?$AA?$AA@ 0058c93c     LIBCMTD:wcsicmp.obj
 0002:00026954       ??_C@_1BC@NHIBDOMC@?$AA_?$AAw?$AAc?$AAs?$AAi?$AAc?$AAm?$AAp?$AA?$AA@ 0058c954     LIBCMTD:wcsicmp.obj
 0002:00026968       ??_C@_1BM@CBACDFHA@?$AAf?$AAi?$AAr?$AAs?$AAt?$AA?5?$AA?$CB?$AA?$DN?$AA?5?$AAN?$AAU?$AAL?$AAL?$AA?$AA@ 0058c968     LIBCMTD:wcsnicmp.obj
 0002:00026988       ??_C@_1FG@GGNDOPHP@?$AAf?$AA?3?$AA?2?$AAd?$AAd?$AA?2?$AAv?$AAc?$AAt?$AAo?$AAo?$AAl?$AAs?$AA?2?$AAc?$AAr?$AAt?$AA?2?$AAc?$AAr?$AAt?$AAw?$AA3?$AA2?$AA?2?$AAs?$AAt?$AAr?$AAi?$AAn?$AAg?$AA?2@ 0058c988     LIBCMTD:wcsnicmp.obj
 0002:000269e0       ??_C@_1BI@KLMFNDBC@?$AA_?$AAw?$AAc?$AAs?$AAn?$AAi?$AAc?$AAm?$AAp?$AA_?$AAl?$AA?$AA@ 0058c9e0     LIBCMTD:wcsnicmp.obj
 0002:000269f8       ??_C@_1BK@LKBOPAFJ@?$AAl?$AAa?$AAs?$AAt?$AA?5?$AA?$CB?$AA?$DN?$AA?5?$AAN?$AAU?$AAL?$AAL?$AA?$AA@ 0058c9f8     LIBCMTD:wcsnicmp.obj
 0002:00026a14       ??_C@_1BE@JKOKKFEL@?$AA_?$AAw?$AAc?$AAs?$AAn?$AAi?$AAc?$AAm?$AAp?$AA?$AA@ 0058ca14     LIBCMTD:wcsnicmp.obj
 0002:00026a28       ??_C@_1FA@MCFBMFHP@?$AAf?$AA?3?$AA?2?$AAd?$AAd?$AA?2?$AAv?$AAc?$AAt?$AAo?$AAo?$AAl?$AAs?$AA?2?$AAc?$AAr?$AAt?$AA?2?$AAc?$AAr?$AAt?$AAw?$AA3?$AA2?$AA?2?$AAs?$AAt?$AAd?$AAi?$AAo?$AA?2?$AAf@ 0058ca28     LIBCMTD:fputwc.obj
 0002:00026a78       ??_C@_1O@HJNPHHHB@?$AAf?$AAp?$AAu?$AAt?$AAw?$AAc?$AA?$AA@ 0058ca78     LIBCMTD:fputwc.obj
 0002:00026a88       ??_C@_1FE@GDPLAOMM@?$AAf?$AA?3?$AA?2?$AAd?$AAd?$AA?2?$AAv?$AAc?$AAt?$AAo?$AAo?$AAl?$AAs?$AA?2?$AAc?$AAr?$AAt?$AA?2?$AAc?$AAr?$AAt?$AAw?$AA3?$AA2?$AA?2?$AAc?$AAo?$AAn?$AAv?$AAe?$AAr?$AAt@ 0058ca88     LIBCMTD:wcstol.obj
 0002:00026adc       ??_C@_1BA@PCFLFGNC@?$AAw?$AAc?$AAs?$AAt?$AAo?$AAx?$AAl?$AA?$AA@ 0058cadc     LIBCMTD:wcstol.obj
 0002:00026aec       ??_C@_1BM@PPJNENFC@?$AA_?$AAw?$AAg?$AAe?$AAt?$AAd?$AAc?$AAw?$AAd?$AA_?$AAd?$AAb?$AAg?$AA?$AA@ 0058caec     LIBCMTD:wgetcwd.obj
 0002:00026b08       ??_C@_1EO@ONAOGKFP@?$AAf?$AA?3?$AA?2?$AAd?$AAd?$AA?2?$AAv?$AAc?$AAt?$AAo?$AAo?$AAl?$AAs?$AA?2?$AAc?$AAr?$AAt?$AA?2?$AAc?$AAr?$AAt?$AAw?$AA3?$AA2?$AA?2?$AAl?$AAo?$AAw?$AAi?$AAo?$AA?2?$AAf@ 0058cb08     LIBCMTD:fstat.obj
 0002:00026b58       ??_C@_1BC@OPNEMFNJ@?$AA_?$AAf?$AAs?$AAt?$AAa?$AAt?$AA3?$AA2?$AA?$AA@ 0058cb58     LIBCMTD:fstat.obj
 0002:00026b70       ??_C@_1FC@KCLGEAKG@?$AAf?$AA?3?$AA?2?$AAd?$AAd?$AA?2?$AAv?$AAc?$AAt?$AAo?$AAo?$AAl?$AAs?$AA?2?$AAc?$AAr?$AAt?$AA?2?$AAc?$AAr?$AAt?$AAw?$AA3?$AA2?$AA?2?$AAt?$AAi?$AAm?$AAe?$AA?2?$AAd?$AAt@ 0058cb70     LIBCMTD:dtoxtime.obj
 0002:00026bc4       ??_C@_1CA@DCOBNMOJ@?$AA_?$AA_?$AAl?$AAo?$AAc?$AAt?$AAo?$AAt?$AAi?$AAm?$AAe?$AA3?$AA2?$AA_?$AAt?$AA?$AA@ 0058cbc4     LIBCMTD:dtoxtime.obj
 0002:00026be8       ??_C@_1FG@DIHJFNHH@?$AAf?$AA?3?$AA?2?$AAd?$AAd?$AA?2?$AAv?$AAc?$AAt?$AAo?$AAo?$AAl?$AAs?$AA?2?$AAc?$AAr?$AAt?$AA?2?$AAc?$AAr?$AAt?$AAw?$AA3?$AA2?$AA?2?$AAh?$AA?2?$AAt?$AAm?$AAa?$AAk?$AAe@ 0058cbe8     LIBCMTD:wmakepath_s.obj
 0002:00026c40       ??_C@_1BK@KHBCJPCH@?$AA_?$AAw?$AAm?$AAa?$AAk?$AAe?$AAp?$AAa?$AAt?$AAh?$AA_?$AAs?$AA?$AA@ 0058cc40     LIBCMTD:wmakepath_s.obj
 0002:00026c5c       ??_C@_1CI@MLPLHPBP@?$AA?$CI?$AA?$CI?$AA?$CI?$AA_?$AAP?$AAa?$AAt?$AAh?$AA?$CJ?$AA?$CJ?$AA?$CJ?$AA?5?$AA?$CB?$AA?$DN?$AA?5?$AAN?$AAU?$AAL?$AAL?$AA?$AA@ 0058cc5c     LIBCMTD:wsplitpath_s.obj
 0002:00026c88       ??_C@_1FI@NIGODNLP@?$AAf?$AA?3?$AA?2?$AAd?$AAd?$AA?2?$AAv?$AAc?$AAt?$AAo?$AAo?$AAl?$AAs?$AA?2?$AAc?$AAr?$AAt?$AA?2?$AAc?$AAr?$AAt?$AAw?$AA3?$AA2?$AA?2?$AAh?$AA?2?$AAt?$AAs?$AAp?$AAl?$AAi@ 0058cc88     LIBCMTD:wsplitpath_s.obj
 0002:00026ce0       ??_C@_1BM@OEAFIBCF@?$AA_?$AAw?$AAs?$AAp?$AAl?$AAi?$AAt?$AAp?$AAa?$AAt?$AAh?$AA_?$AAs?$AA?$AA@ 0058cce0     LIBCMTD:wsplitpath_s.obj
 0002:00026cfc       ??_C@_1DE@MLEJGPLF@?$AA?$CI?$AAL?$AA?$CC?$AAI?$AAn?$AAv?$AAa?$AAl?$AAi?$AAd?$AA?5?$AAp?$AAa?$AAr?$AAa?$AAm?$AAe?$AAt?$AAe?$AAr?$AA?$CC?$AA?0?$AA?5?$AA0?$AA?$CJ?$AA?$AA@ 0058ccfc     LIBCMTD:wsplitpath_s.obj
 0002:00026d30       ??_C@_1FE@IEEFCKDG@?$AAf?$AA?3?$AA?2?$AAd?$AAd?$AA?2?$AAv?$AAc?$AAt?$AAo?$AAo?$AAl?$AAs?$AA?2?$AAc?$AAr?$AAt?$AA?2?$AAc?$AAr?$AAt?$AAw?$AA3?$AA2?$AA?2?$AAc?$AAo?$AAn?$AAv?$AAe?$AAr?$AAt@ 0058cd30     LIBCMTD:wcstoq.obj
 0002:00026d84       ??_C@_1BA@FACINJJA@?$AAw?$AAc?$AAs?$AAt?$AAo?$AAx?$AAq?$AA?$AA@ 0058cd84     LIBCMTD:wcstoq.obj
 0002:00026d94       ??_C@_0CK@CEJCOKEF@f?3?2dd?2vctools?2crt?2crtw32?2convert@ 0058cd94     LIBCMTD:wcstoq.obj
 0002:00026dc0       __real@00000000            0058cdc0     LIBCMTD:wcstoq.obj
 0002:00026dc8       ??_C@_1FE@LABOBFHJ@?$AAf?$AA?3?$AA?2?$AAd?$AAd?$AA?2?$AAv?$AAc?$AAt?$AAo?$AAo?$AAl?$AAs?$AA?2?$AAc?$AAr?$AAt?$AA?2?$AAc?$AAr?$AAt?$AAw?$AA3?$AA2?$AA?2?$AAc?$AAo?$AAn?$AAv?$AAe?$AAr?$AAt@ 0058cdc8     LIBCMTD:wcstod.obj
 0002:00026e1c       ??_C@_1BE@CIGDJHAJ@?$AA_?$AAw?$AAc?$AAs?$AAt?$AAo?$AAd?$AA_?$AAl?$AA?$AA@ 0058ce1c     LIBCMTD:wcstod.obj
 0002:00026e30       ??_C@_1CA@JGBKKNCE@?$AA_?$AA_?$AAw?$AAs?$AAt?$AAr?$AAg?$AAt?$AAo?$AAl?$AAd?$AA1?$AA2?$AA_?$AAl?$AA?$AA@ 0058ce30     LIBCMTD:wstrgtold.obj
 0002:00026e50       ??_C@_1FA@JNABFIEA@?$AA?$CI?$AAt?$AAe?$AAm?$AAp?$AAl?$AAa?$AAt?$AAe?$AA?5?$AA?$CB?$AA?$DN?$AA?5?$AAN?$AAU?$AAL?$AAL?$AA?$CJ?$AA?5?$AA?$CG?$AA?$CG?$AA?5?$AA?$CI?$AAs?$AAi?$AAz?$AAe?$AAI?$AAn?$AAC?$AAh?$AAa@ 0058ce50     LIBCMTD:mktemp.obj
 0002:00026ea0       ??_C@_1FA@PKODMHJK@?$AAf?$AA?3?$AA?2?$AAd?$AAd?$AA?2?$AAv?$AAc?$AAt?$AAo?$AAo?$AAl?$AAs?$AA?2?$AAc?$AAr?$AAt?$AA?2?$AAc?$AAr?$AAt?$AAw?$AA3?$AA2?$AA?2?$AAl?$AAo?$AAw?$AAi?$AAo?$AA?2?$AAm@ 0058cea0     LIBCMTD:mktemp.obj
 0002:00026ef0       ??_C@_1BE@GBFIDCKH@?$AA_?$AAm?$AAk?$AAt?$AAe?$AAm?$AAp?$AA_?$AAs?$AA?$AA@ 0058cef0     LIBCMTD:mktemp.obj
 0002:00026f08       ??_C@_1EE@JEDJDFK@?$AA?$CI?$AA?$CC?$AAI?$AAn?$AAc?$AAo?$AAr?$AAr?$AAe?$AAc?$AAt?$AA?5?$AAI?$AAn?$AAp?$AAu?$AAt?$AA?5?$AAf?$AAo?$AAr?$AA?5?$AAm?$AAk?$AAt?$AAe?$AAm?$AAp?$AA?$CC?$AA?0?$AA?5?$AA0@ 0058cf08     LIBCMTD:mktemp.obj
 0002:00026f4c       ??_C@_1CG@KGJJGDAD@?$AA?$CI?$AAt?$AAe?$AAm?$AAp?$AAl?$AAa?$AAt?$AAe?$AA?5?$AA?$CB?$AA?$DN?$AA?5?$AAN?$AAU?$AAL?$AAL?$AA?$CJ?$AA?$AA@ 0058cf4c     LIBCMTD:mktemp.obj
 0002:00026f74       ??_C@_1BA@IPOMBLKF@?$AA_?$AAm?$AAk?$AAt?$AAe?$AAm?$AAp?$AA?$AA@ 0058cf74     LIBCMTD:mktemp.obj
 0002:00026f88       ??_C@_1FI@CHKKCPBG@?$AAf?$AA?3?$AA?2?$AAd?$AAd?$AA?2?$AAv?$AAc?$AAt?$AAo?$AAo?$AAl?$AAs?$AA?2?$AAc?$AAr?$AAt?$AA?2?$AAc?$AAr?$AAt?$AAw?$AA3?$AA2?$AA?2?$AAm?$AAb?$AAs?$AAt?$AAr?$AAi?$AAn@ 0058cf88     LIBCMTD:ismbstr.obj
 0002:00026fe0       ??_C@_1BM@OFENOEOH@?$AA_?$AAi?$AAs?$AAm?$AAb?$AAs?$AAt?$AAr?$AAa?$AAi?$AAl?$AA_?$AAl?$AA?$AA@ 0058cfe0     LIBCMTD:ismbstr.obj
 0002:00027000       __load_config_used         0058d000     LIBCMTD:loadcfg.obj
 0002:0002c6d0       ??_R4error_category@std@@6B@ 005926d0     AboutBox.obj
 0002:0002c6e8       ??_R3error_category@std@@8 005926e8     AboutBox.obj
 0002:0002c6fc       ??_R2error_category@std@@8 005926fc     AboutBox.obj
 0002:0002c704       ??_R1A@?0A@EA@error_category@std@@8 00592704     AboutBox.obj
 0002:0002c728       ??_R4_Generic_error_category@std@@6B@ 00592728     AboutBox.obj
 0002:0002c740       ??_R3_Generic_error_category@std@@8 00592740     AboutBox.obj
 0002:0002c754       ??_R2_Generic_error_category@std@@8 00592754     AboutBox.obj
 0002:0002c760       ??_R1A@?0A@EA@_Generic_error_category@std@@8 00592760     AboutBox.obj
 0002:0002c784       ??_R4_Iostream_error_category@std@@6B@ 00592784     AboutBox.obj
 0002:0002c79c       ??_R3_Iostream_error_category@std@@8 0059279c     AboutBox.obj
 0002:0002c7b0       ??_R2_Iostream_error_category@std@@8 005927b0     AboutBox.obj
 0002:0002c7c0       ??_R1A@?0A@EA@_Iostream_error_category@std@@8 005927c0     AboutBox.obj
 0002:0002c7e4       ??_R4_System_error_category@std@@6B@ 005927e4     AboutBox.obj
 0002:0002c7fc       ??_R3_System_error_category@std@@8 005927fc     AboutBox.obj
 0002:0002c810       ??_R2_System_error_category@std@@8 00592810     AboutBox.obj
 0002:0002c820       ??_R1A@?0A@EA@_System_error_category@std@@8 00592820     AboutBox.obj
 0002:0002c844       ??_R4AccelKeys@@6B@        00592844     AccelKeys.obj
 0002:0002c85c       ??_R3AccelKeys@@8          0059285c     AccelKeys.obj
 0002:0002c870       ??_R2AccelKeys@@8          00592870     AccelKeys.obj
 0002:0002c878       ??_R1A@?0A@EA@AccelKeys@@8 00592878     AccelKeys.obj
 0002:0002c89c       ??_R4AuthDialog@@6B@       0059289c     AuthDialog.obj
 0002:0002c8b4       ??_R3AuthDialog@@8         005928b4     AuthDialog.obj
 0002:0002c8c8       ??_R2AuthDialog@@8         005928c8     AuthDialog.obj
 0002:0002c8d0       ??_R1A@?0A@EA@AuthDialog@@8 005928d0     AuthDialog.obj
 0002:0002c8f4       ??_R4ClientConnection@@6B@ 005928f4     ClientConnection.obj
 0002:0002c90c       ??_R3ClientConnection@@8   0059290c     ClientConnection.obj
 0002:0002c920       ??_R2ClientConnection@@8   00592920     ClientConnection.obj
 0002:0002c92c       ??_R1A@?0A@EA@ClientConnection@@8 0059292c     ClientConnection.obj
 0002:0002c950       ??_R1A@?0A@EA@omni_thread@@8 00592950     ClientConnection.obj
 0002:0002c974       ??_R3omni_thread@@8        00592974     ClientConnection.obj
 0002:0002c988       ??_R2omni_thread@@8        00592988     ClientConnection.obj
 0002:0002c990       ??_R4Exception@@6B@        00592990     ClientConnection.obj
 0002:0002c9a8       ??_R3Exception@@8          005929a8     ClientConnection.obj
 0002:0002c9bc       ??_R2Exception@@8          005929bc     ClientConnection.obj
 0002:0002c9c4       ??_R1A@?0A@EA@Exception@@8 005929c4     ClientConnection.obj
 0002:0002c9e8       ??_R4QuietException@@6B@   005929e8     ClientConnection.obj
 0002:0002ca00       ??_R3QuietException@@8     00592a00     ClientConnection.obj
 0002:0002ca14       ??_R2QuietException@@8     00592a14     ClientConnection.obj
 0002:0002ca20       ??_R1A@?0A@EA@QuietException@@8 00592a20     ClientConnection.obj
 0002:0002ca44       ??_R4WarningException@@6B@ 00592a44     ClientConnection.obj
 0002:0002ca5c       ??_R3WarningException@@8   00592a5c     ClientConnection.obj
 0002:0002ca70       ??_R2WarningException@@8   00592a70     ClientConnection.obj
 0002:0002ca7c       ??_R1A@?0A@EA@WarningException@@8 00592a7c     ClientConnection.obj
 0002:0002caa0       ??_R4ErrorException@@6B@   00592aa0     ClientConnection.obj
 0002:0002cab8       ??_R3ErrorException@@8     00592ab8     ClientConnection.obj
 0002:0002cacc       ??_R2ErrorException@@8     00592acc     ClientConnection.obj
 0002:0002cad8       ??_R1A@?0A@EA@ErrorException@@8 00592ad8     ClientConnection.obj
 0002:0002cafc       ??_R4Exception@rdr@@6B@    00592afc     ClientConnection.obj
 0002:0002cb14       ??_R3Exception@rdr@@8      00592b14     ClientConnection.obj
 0002:0002cb28       ??_R2Exception@rdr@@8      00592b28     ClientConnection.obj
 0002:0002cb30       ??_R1A@?0A@EA@Exception@rdr@@8 00592b30     ClientConnection.obj
 0002:0002cb54       ??_R4EndOfStream@rdr@@6B@  00592b54     ClientConnection.obj
 0002:0002cb6c       ??_R3EndOfStream@rdr@@8    00592b6c     ClientConnection.obj
 0002:0002cb80       ??_R2EndOfStream@rdr@@8    00592b80     ClientConnection.obj
 0002:0002cb8c       ??_R1A@?0A@EA@EndOfStream@rdr@@8 00592b8c     ClientConnection.obj
 0002:0002cbb0       ??_R4OutStream@rdr@@6B@    00592bb0     Clipboard.obj
 0002:0002cbc8       ??_R3OutStream@rdr@@8      00592bc8     Clipboard.obj
 0002:0002cbdc       ??_R2OutStream@rdr@@8      00592bdc     Clipboard.obj
 0002:0002cbe4       ??_R1A@?0A@EA@OutStream@rdr@@8 00592be4     Clipboard.obj
 0002:0002cc08       ??_R4MemOutStream@rdr@@6B@ 00592c08     Clipboard.obj
 0002:0002cc20       ??_R3MemOutStream@rdr@@8   00592c20     Clipboard.obj
 0002:0002cc34       ??_R2MemOutStream@rdr@@8   00592c34     Clipboard.obj
 0002:0002cc40       ??_R1A@?0A@EA@MemOutStream@rdr@@8 00592c40     Clipboard.obj
 0002:0002cc64       ??_R4InStream@rdr@@6B@     00592c64     Clipboard.obj
 0002:0002cc7c       ??_R3InStream@rdr@@8       00592c7c     Clipboard.obj
 0002:0002cc90       ??_R2InStream@rdr@@8       00592c90     Clipboard.obj
 0002:0002cc98       ??_R1A@?0A@EA@InStream@rdr@@8 00592c98     Clipboard.obj
 0002:0002ccbc       ??_R4MemInStream@rdr@@6B@  00592cbc     Clipboard.obj
 0002:0002ccd4       ??_R3MemInStream@rdr@@8    00592cd4     Clipboard.obj
 0002:0002cce8       ??_R2MemInStream@rdr@@8    00592ce8     Clipboard.obj
 0002:0002ccf4       ??_R1A@?0A@EA@MemInStream@rdr@@8 00592cf4     Clipboard.obj
 0002:0002cd18       ??_R4Daemon@@6B@           00592d18     Daemon.obj
 0002:0002cd30       ??_R3Daemon@@8             00592d30     Daemon.obj
 0002:0002cd44       ??_R2Daemon@@8             00592d44     Daemon.obj
 0002:0002cd4c       ??_R1A@?0A@EA@Daemon@@8    00592d4c     Daemon.obj
 0002:0002cd70       ??_R4Except@@6B@           00592d70     dh.obj
 0002:0002cd88       ??_R3Except@@8             00592d88     dh.obj
 0002:0002cd9c       ??_R2Except@@8             00592d9c     dh.obj
 0002:0002cda4       ??_R1A@?0A@EA@Except@@8    00592da4     dh.obj
 0002:0002cdc8       ??_R4CDSMPlugin@@6B@       00592dc8     DSMPlugin.obj
 0002:0002cde0       ??_R3CDSMPlugin@@8         00592de0     DSMPlugin.obj
 0002:0002cdf4       ??_R2CDSMPlugin@@8         00592df4     DSMPlugin.obj
 0002:0002cdfc       ??_R1A@?0A@EA@CDSMPlugin@@8 00592dfc     DSMPlugin.obj
 0002:0002ce20       ??_R4ViewerDirectxClass@@6B@ 00592e20     directxviewer.obj
 0002:0002ce38       ??_R3ViewerDirectxClass@@8 00592e38     directxviewer.obj
 0002:0002ce4c       ??_R2ViewerDirectxClass@@8 00592e4c     directxviewer.obj
 0002:0002ce54       ??_R1A@?0A@EA@ViewerDirectxClass@@8 00592e54     directxviewer.obj
 0002:0002ce78       ??_R4FileTransfer@@6B@     00592e78     FileTransfer.obj
 0002:0002ce90       ??_R3FileTransfer@@8       00592e90     FileTransfer.obj
 0002:0002cea4       ??_R2FileTransfer@@8       00592ea4     FileTransfer.obj
 0002:0002ceac       ??_R1A@?0A@EA@FileTransfer@@8 00592eac     FileTransfer.obj
 0002:0002ced0       ??_R4CTitleBar@@6B@        00592ed0     FullScreenTitleBar.obj
 0002:0002cee8       ??_R3CTitleBar@@8          00592ee8     FullScreenTitleBar.obj
 0002:0002cefc       ??_R2CTitleBar@@8          00592efc     FullScreenTitleBar.obj
 0002:0002cf04       ??_R1A@?0A@EA@CTitleBar@@8 00592f04     FullScreenTitleBar.obj
 0002:0002cf28       ??_R4Log@@6B@              00592f28     Log.obj
 0002:0002cf40       ??_R3Log@@8                00592f40     Log.obj
 0002:0002cf54       ??_R2Log@@8                00592f54     Log.obj
 0002:0002cf5c       ??_R1A@?0A@EA@Log@@8       00592f5c     Log.obj
 0002:0002cf80       ??_R4MRU@@6B@              00592f80     MRU.obj
 0002:0002cf98       ??_R3MRU@@8                00592f98     MRU.obj
 0002:0002cfac       ??_R2MRU@@8                00592fac     MRU.obj
 0002:0002cfb4       ??_R1A@?0A@EA@MRU@@8       00592fb4     MRU.obj
 0002:0002cfd8       ??_R4SessionDialog@@6B@    00592fd8     SessionDialog.obj
 0002:0002cff0       ??_R3SessionDialog@@8      00592ff0     SessionDialog.obj
 0002:0002d004       ??_R2SessionDialog@@8      00593004     SessionDialog.obj
 0002:0002d00c       ??_R1A@?0A@EA@SessionDialog@@8 0059300c     SessionDialog.obj
 0002:0002d030       ??_R4TextChat@@6B@         00593030     TextChat.obj
 0002:0002d048       ??_R3TextChat@@8           00593048     TextChat.obj
 0002:0002d05c       ??_R2TextChat@@8           0059305c     TextChat.obj
 0002:0002d064       ??_R1A@?0A@EA@TextChat@@8  00593064     TextChat.obj
 0002:0002d088       ??_R4VNCOptions@@6B@       00593088     VNCOptions.obj
 0002:0002d0a0       ??_R3VNCOptions@@8         005930a0     VNCOptions.obj
 0002:0002d0b4       ??_R2VNCOptions@@8         005930b4     VNCOptions.obj
 0002:0002d0bc       ??_R1A@?0A@EA@VNCOptions@@8 005930bc     VNCOptions.obj
 0002:0002d0e0       ??_R4VNCviewerApp@@6B@     005930e0     VNCviewerApp.obj
 0002:0002d0f8       ??_R3VNCviewerApp@@8       005930f8     VNCviewerApp.obj
 0002:0002d10c       ??_R2VNCviewerApp@@8       0059310c     VNCviewerApp.obj
 0002:0002d114       ??_R1A@?0A@EA@VNCviewerApp@@8 00593114     VNCviewerApp.obj
 0002:0002d138       ??_R4VNCviewerApp32@@6B@   00593138     VNCviewerApp32.obj
 0002:0002d150       ??_R3VNCviewerApp32@@8     00593150     VNCviewerApp32.obj
 0002:0002d164       ??_R2VNCviewerApp32@@8     00593164     VNCviewerApp32.obj
 0002:0002d170       ??_R1A@?0A@EA@VNCviewerApp32@@8 00593170     VNCviewerApp32.obj
 0002:0002d194       ??_R4CZipUnZip32@@6B@      00593194     ZipUnzip32.obj
 0002:0002d1ac       ??_R3CZipUnZip32@@8        005931ac     ZipUnzip32.obj
 0002:0002d1c0       ??_R2CZipUnZip32@@8        005931c0     ZipUnzip32.obj
 0002:0002d1c8       ??_R1A@?0A@EA@CZipUnZip32@@8 005931c8     ZipUnzip32.obj
 0002:0002d1ec       ??_R4FdInStream@rdr@@6B@   005931ec     rdr:FdInStream.obj
 0002:0002d200       ??_R3FdInStream@rdr@@8     00593200     rdr:FdInStream.obj
 0002:0002d210       ??_R2FdInStream@rdr@@8     00593210     rdr:FdInStream.obj
 0002:0002d21c       ??_R1A@?0A@EA@FdInStream@rdr@@8 0059321c     rdr:FdInStream.obj
 0002:0002d238       ??_R4SystemException@rdr@@6B@ 00593238     rdr:FdInStream.obj
 0002:0002d24c       ??_R3SystemException@rdr@@8 0059324c     rdr:FdInStream.obj
 0002:0002d25c       ??_R2SystemException@rdr@@8 0059325c     rdr:FdInStream.obj
 0002:0002d268       ??_R1A@?0A@EA@SystemException@rdr@@8 00593268     rdr:FdInStream.obj
 0002:0002d284       ??_R4TimedOut@rdr@@6B@     00593284     rdr:FdInStream.obj
 0002:0002d298       ??_R3TimedOut@rdr@@8       00593298     rdr:FdInStream.obj
 0002:0002d2a8       ??_R2TimedOut@rdr@@8       005932a8     rdr:FdInStream.obj
 0002:0002d2b4       ??_R1A@?0A@EA@TimedOut@rdr@@8 005932b4     rdr:FdInStream.obj
 0002:0002d2d0       ??_R4ZlibInStream@rdr@@6B@ 005932d0     rdr:ZlibInStream.obj
 0002:0002d2e4       ??_R3ZlibInStream@rdr@@8   005932e4     rdr:ZlibInStream.obj
 0002:0002d2f4       ??_R2ZlibInStream@rdr@@8   005932f4     rdr:ZlibInStream.obj
 0002:0002d300       ??_R1A@?0A@EA@ZlibInStream@rdr@@8 00593300     rdr:ZlibInStream.obj
 0002:0002d31c       ??_R4ZlibOutStream@rdr@@6B@ 0059331c     rdr:ZlibOutStream.obj
 0002:0002d330       ??_R3ZlibOutStream@rdr@@8  00593330     rdr:ZlibOutStream.obj
 0002:0002d340       ??_R2ZlibOutStream@rdr@@8  00593340     rdr:ZlibOutStream.obj
 0002:0002d34c       ??_R1A@?0A@EA@ZlibOutStream@rdr@@8 0059334c     rdr:ZlibOutStream.obj
 0002:0002d368       ??_R4omni_thread@@6B@      00593368     omnithread:nt.obj
 0002:0002d37c       ??_R4_internal_omni_thread_dummy@@6B@ 0059337c     omnithread:nt.obj
 0002:0002d390       ??_R3_internal_omni_thread_dummy@@8 00593390     omnithread:nt.obj
 0002:0002d3a0       ??_R2_internal_omni_thread_dummy@@8 005933a0     omnithread:nt.obj
 0002:0002d3ac       ??_R1A@?0A@EA@_internal_omni_thread_dummy@@8 005933ac     omnithread:nt.obj
 0002:0002d3c8       ??_R1A@?0A@EA@exception@std@@8 005933c8     libcpmtd:xthrow.obj
 0002:0002d3e4       ??_R3exception@std@@8      005933e4     libcpmtd:xthrow.obj
 0002:0002d3f4       ??_R2exception@std@@8      005933f4     libcpmtd:xthrow.obj
 0002:0002d3fc       ??_R4bad_alloc@std@@6B@    005933fc     libcpmtd:xthrow.obj
 0002:0002d410       ??_R3bad_alloc@std@@8      00593410     libcpmtd:xthrow.obj
 0002:0002d420       ??_R2bad_alloc@std@@8      00593420     libcpmtd:xthrow.obj
 0002:0002d42c       ??_R1A@?0A@EA@bad_alloc@std@@8 0059342c     libcpmtd:xthrow.obj
 0002:0002d448       ??_R4logic_error@std@@6B@  00593448     libcpmtd:xthrow.obj
 0002:0002d45c       ??_R3logic_error@std@@8    0059345c     libcpmtd:xthrow.obj
 0002:0002d46c       ??_R2logic_error@std@@8    0059346c     libcpmtd:xthrow.obj
 0002:0002d478       ??_R1A@?0A@EA@logic_error@std@@8 00593478     libcpmtd:xthrow.obj
 0002:0002d494       ??_R4invalid_argument@std@@6B@ 00593494     libcpmtd:xthrow.obj
 0002:0002d4a8       ??_R3invalid_argument@std@@8 005934a8     libcpmtd:xthrow.obj
 0002:0002d4b8       ??_R2invalid_argument@std@@8 005934b8     libcpmtd:xthrow.obj
 0002:0002d4c8       ??_R1A@?0A@EA@invalid_argument@std@@8 005934c8     libcpmtd:xthrow.obj
 0002:0002d4e4       ??_R4length_error@std@@6B@ 005934e4     libcpmtd:xthrow.obj
 0002:0002d4f8       ??_R3length_error@std@@8   005934f8     libcpmtd:xthrow.obj
 0002:0002d508       ??_R2length_error@std@@8   00593508     libcpmtd:xthrow.obj
 0002:0002d518       ??_R1A@?0A@EA@length_error@std@@8 00593518     libcpmtd:xthrow.obj
 0002:0002d534       ??_R4out_of_range@std@@6B@ 00593534     libcpmtd:xthrow.obj
 0002:0002d548       ??_R3out_of_range@std@@8   00593548     libcpmtd:xthrow.obj
 0002:0002d558       ??_R2out_of_range@std@@8   00593558     libcpmtd:xthrow.obj
 0002:0002d568       ??_R1A@?0A@EA@out_of_range@std@@8 00593568     libcpmtd:xthrow.obj
 0002:0002d584       ??_R4runtime_error@std@@6B@ 00593584     libcpmtd:xthrow.obj
 0002:0002d598       ??_R3runtime_error@std@@8  00593598     libcpmtd:xthrow.obj
 0002:0002d5a8       ??_R2runtime_error@std@@8  005935a8     libcpmtd:xthrow.obj
 0002:0002d5b4       ??_R1A@?0A@EA@runtime_error@std@@8 005935b4     libcpmtd:xthrow.obj
 0002:0002d5d0       ??_R4overflow_error@std@@6B@ 005935d0     libcpmtd:xthrow.obj
 0002:0002d5e4       ??_R3overflow_error@std@@8 005935e4     libcpmtd:xthrow.obj
 0002:0002d5f4       ??_R2overflow_error@std@@8 005935f4     libcpmtd:xthrow.obj
 0002:0002d604       ??_R1A@?0A@EA@overflow_error@std@@8 00593604     libcpmtd:xthrow.obj
 0002:0002d620       ??_R4bad_function_call@std@@6B@ 00593620     libcpmtd:xthrow.obj
 0002:0002d634       ??_R3bad_function_call@std@@8 00593634     libcpmtd:xthrow.obj
 0002:0002d644       ??_R2bad_function_call@std@@8 00593644     libcpmtd:xthrow.obj
 0002:0002d650       ??_R1A@?0A@EA@bad_function_call@std@@8 00593650     libcpmtd:xthrow.obj
 0002:0002d66c       ??_R4regex_error@std@@6B@  0059366c     libcpmtd:xthrow.obj
 0002:0002d680       ??_R3regex_error@std@@8    00593680     libcpmtd:xthrow.obj
 0002:0002d690       ??_R2regex_error@std@@8    00593690     libcpmtd:xthrow.obj
 0002:0002d6a0       ??_R1A@?0A@EA@regex_error@std@@8 005936a0     libcpmtd:xthrow.obj
 0002:0002d6bc       ??_R4type_info@@6B@        005936bc     LIBCMTD:typinfo.obj
 0002:0002d6d0       ??_R3type_info@@8          005936d0     LIBCMTD:typinfo.obj
 0002:0002d6e0       ??_R2type_info@@8          005936e0     LIBCMTD:typinfo.obj
 0002:0002d6e8       ??_R1A@?0A@EA@type_info@@8 005936e8     LIBCMTD:typinfo.obj
 0002:0002d704       ??_R4exception@std@@6B@    00593704     LIBCMTD:stdexcpt.obj
 0002:0002d718       ??_R4bad_cast@std@@6B@     00593718     LIBCMTD:stdexcpt.obj
 0002:0002d72c       ??_R3bad_cast@std@@8       0059372c     LIBCMTD:stdexcpt.obj
 0002:0002d73c       ??_R2bad_cast@std@@8       0059373c     LIBCMTD:stdexcpt.obj
 0002:0002d748       ??_R1A@?0A@EA@bad_cast@std@@8 00593748     LIBCMTD:stdexcpt.obj
 0002:0002d764       ??_R4bad_typeid@std@@6B@   00593764     LIBCMTD:stdexcpt.obj
 0002:0002d778       ??_R3bad_typeid@std@@8     00593778     LIBCMTD:stdexcpt.obj
 0002:0002d788       ??_R2bad_typeid@std@@8     00593788     LIBCMTD:stdexcpt.obj
 0002:0002d794       ??_R1A@?0A@EA@bad_typeid@std@@8 00593794     LIBCMTD:stdexcpt.obj
 0002:0002d7b0       ??_R4__non_rtti_object@std@@6B@ 005937b0     LIBCMTD:stdexcpt.obj
 0002:0002d7c4       ??_R3__non_rtti_object@std@@8 005937c4     LIBCMTD:stdexcpt.obj
 0002:0002d7d4       ??_R2__non_rtti_object@std@@8 005937d4     LIBCMTD:stdexcpt.obj
 0002:0002d7e4       ??_R1A@?0A@EA@__non_rtti_object@std@@8 005937e4     LIBCMTD:stdexcpt.obj
 0002:0002d800       ??_R4bad_exception@std@@6B@ 00593800     LIBCMTD:frame.obj
 0002:0002d814       ??_R3bad_exception@std@@8  00593814     LIBCMTD:frame.obj
 0002:0002d824       ??_R2bad_exception@std@@8  00593824     LIBCMTD:frame.obj
 0002:0002d830       ??_R1A@?0A@EA@bad_exception@std@@8 00593830     LIBCMTD:frame.obj
 0002:0002d84c       ??_R4DNameNode@@6B@        0059384c     LIBCMTD:undname.obj
 0002:0002d860       ??_R3DNameNode@@8          00593860     LIBCMTD:undname.obj
 0002:0002d870       ??_R2DNameNode@@8          00593870     LIBCMTD:undname.obj
 0002:0002d878       ??_R1A@?0A@EA@DNameNode@@8 00593878     LIBCMTD:undname.obj
 0002:0002d894       ??_R4charNode@@6B@         00593894     LIBCMTD:undname.obj
 0002:0002d8a8       ??_R3charNode@@8           005938a8     LIBCMTD:undname.obj
 0002:0002d8b8       ??_R2charNode@@8           005938b8     LIBCMTD:undname.obj
 0002:0002d8c4       ??_R1A@?0A@EA@charNode@@8  005938c4     LIBCMTD:undname.obj
 0002:0002d8e0       ??_R4pcharNode@@6B@        005938e0     LIBCMTD:undname.obj
 0002:0002d8f4       ??_R3pcharNode@@8          005938f4     LIBCMTD:undname.obj
 0002:0002d904       ??_R2pcharNode@@8          00593904     LIBCMTD:undname.obj
 0002:0002d910       ??_R1A@?0A@EA@pcharNode@@8 00593910     LIBCMTD:undname.obj
 0002:0002d92c       ??_R4pDNameNode@@6B@       0059392c     LIBCMTD:undname.obj
 0002:0002d940       ??_R3pDNameNode@@8         00593940     LIBCMTD:undname.obj
 0002:0002d950       ??_R2pDNameNode@@8         00593950     LIBCMTD:undname.obj
 0002:0002d95c       ??_R1A@?0A@EA@pDNameNode@@8 0059395c     LIBCMTD:undname.obj
 0002:0002d978       ??_R4DNameStatusNode@@6B@  00593978     LIBCMTD:undname.obj
 0002:0002d98c       ??_R3DNameStatusNode@@8    0059398c     LIBCMTD:undname.obj
 0002:0002d99c       ??_R2DNameStatusNode@@8    0059399c     LIBCMTD:undname.obj
 0002:0002d9a8       ??_R1A@?0A@EA@DNameStatusNode@@8 005939a8     LIBCMTD:undname.obj
 0002:0002d9c4       ??_R4pairNode@@6B@         005939c4     LIBCMTD:undname.obj
 0002:0002d9d8       ??_R3pairNode@@8           005939d8     LIBCMTD:undname.obj
 0002:0002d9e8       ??_R2pairNode@@8           005939e8     LIBCMTD:undname.obj
 0002:0002d9f4       ??_R1A@?0A@EA@pairNode@@8  005939f4     LIBCMTD:undname.obj
 0002:0002dd00       ___safe_se_handler_table   00593d00     <linker-defined>
 0002:0002e2b4       ___rtc_iaa                 005942b4     LIBCMTD:initsect.obj
 0002:0002e4c8       ___rtc_izz                 005944c8     LIBCMTD:initsect.obj
 0002:0002e5cc       ___rtc_taa                 005945cc     LIBCMTD:initsect.obj
 0002:0002e7e0       ___rtc_tzz                 005947e0     LIBCMTD:initsect.obj
 0002:00030118       __TI2?AVWarningException@@ 00596118     ClientConnection.obj
 0002:0003012c       __CTA2?AVWarningException@@ 0059612c     ClientConnection.obj
 0002:0003013c       __CT??_R0?AVWarningException@@@8??0WarningException@@QAE@ABV0@@Z16 0059613c     ClientConnection.obj
 0002:0003015c       __CT??_R0?AVException@@@8??0Exception@@QAE@ABV0@@Z12 0059615c     ClientConnection.obj
 0002:0003017c       __TI2?AVQuietException@@   0059617c     ClientConnection.obj
 0002:00030190       __CTA2?AVQuietException@@  00596190     ClientConnection.obj
 0002:000301a0       __CT??_R0?AVQuietException@@@8??0QuietException@@QAE@ABV0@@Z12 005961a0     ClientConnection.obj
 0002:000301c0       __TI2?AVErrorException@@   005961c0     ClientConnection.obj
 0002:000301d4       __CTA2?AVErrorException@@  005961d4     ClientConnection.obj
 0002:000301e4       __CT??_R0?AVErrorException@@@8??0ErrorException@@QAE@ABV0@@Z12 005961e4     ClientConnection.obj
 0002:00030204       __TI2?AUEndOfStream@rdr@@  00596204     ClientConnection.obj
 0002:00030218       __CTA2?AUEndOfStream@rdr@@ 00596218     ClientConnection.obj
 0002:00030228       __CT??_R0?AUEndOfStream@rdr@@@8??0EndOfStream@rdr@@QAE@ABU01@@Z260 00596228     ClientConnection.obj
 0002:00030248       __CT??_R0?AUException@rdr@@@8??0Exception@rdr@@QAE@ABU01@@Z260 00596248     ClientConnection.obj
 0002:00031054       __TI1?AVExcept@@           00597054     dh.obj
 0002:00031068       __CTA1?AVExcept@@          00597068     dh.obj
 0002:00031070       __CT??_R0?AVExcept@@@8??0Except@@QAE@ABV0@@Z8 00597070     dh.obj
 0002:00032908       __TI1?AUException@rdr@@    00598908     rdr:FdInStream.obj
 0002:00032918       __CTA1?AUException@rdr@@   00598918     rdr:FdInStream.obj
 0002:00032920       __TI2?AUSystemException@rdr@@ 00598920     rdr:FdInStream.obj
 0002:00032930       __CTA2?AUSystemException@rdr@@ 00598930     rdr:FdInStream.obj
 0002:0003293c       __CT??_R0?AUSystemException@rdr@@@8??0SystemException@rdr@@QAE@ABU01@@Z264 0059893c     rdr:FdInStream.obj
 0002:00032958       __TI2?AUTimedOut@rdr@@     00598958     rdr:FdInStream.obj
 0002:00032968       __CTA2?AUTimedOut@rdr@@    00598968     rdr:FdInStream.obj
 0002:00032974       __CT??_R0?AUTimedOut@rdr@@@8??0TimedOut@rdr@@QAE@ABU01@@Z260 00598974     rdr:FdInStream.obj
 0002:00032c68       __TI1?AVomni_thread_fatal@@ 00598c68     omnithread:nt.obj
 0002:00032c78       __CTA1?AVomni_thread_fatal@@ 00598c78     omnithread:nt.obj
 0002:00032c80       __CT??_R0?AVomni_thread_fatal@@@84 00598c80     omnithread:nt.obj
 0002:00032c9c       __TI1?AVomni_thread_invalid@@ 00598c9c     omnithread:nt.obj
 0002:00032cac       __CTA1?AVomni_thread_invalid@@ 00598cac     omnithread:nt.obj
 0002:00032cb4       __CT??_R0?AVomni_thread_invalid@@@81 00598cb4     omnithread:nt.obj
 0002:00032cd0       __TI2?AVbad_alloc@std@@    00598cd0     libcpmtd:xthrow.obj
 0002:00032ce0       __CTA2?AVbad_alloc@std@@   00598ce0     libcpmtd:xthrow.obj
 0002:00032cec       __CT??_R0?AVbad_alloc@std@@@8??0bad_alloc@std@@QAE@ABV01@@Z12 00598cec     libcpmtd:xthrow.obj
 0002:00032d08       __CT??_R0?AVexception@std@@@8??0exception@std@@QAE@ABV01@@Z12 00598d08     libcpmtd:xthrow.obj
 0002:00032d24       __TI3?AVinvalid_argument@std@@ 00598d24     libcpmtd:xthrow.obj
 0002:00032d34       __CTA3?AVinvalid_argument@std@@ 00598d34     libcpmtd:xthrow.obj
 0002:00032d44       __CT??_R0?AVinvalid_argument@std@@@8??0invalid_argument@std@@QAE@ABV01@@Z12 00598d44     libcpmtd:xthrow.obj
 0002:00032d60       __CT??_R0?AVlogic_error@std@@@8??0logic_error@std@@QAE@ABV01@@Z12 00598d60     libcpmtd:xthrow.obj
 0002:00032d7c       __TI3?AVlength_error@std@@ 00598d7c     libcpmtd:xthrow.obj
 0002:00032d8c       __CTA3?AVlength_error@std@@ 00598d8c     libcpmtd:xthrow.obj
 0002:00032d9c       __CT??_R0?AVlength_error@std@@@8??0length_error@std@@QAE@ABV01@@Z12 00598d9c     libcpmtd:xthrow.obj
 0002:00032db8       __TI3?AVout_of_range@std@@ 00598db8     libcpmtd:xthrow.obj
 0002:00032dc8       __CTA3?AVout_of_range@std@@ 00598dc8     libcpmtd:xthrow.obj
 0002:00032dd8       __CT??_R0?AVout_of_range@std@@@8??0out_of_range@std@@QAE@ABV01@@Z12 00598dd8     libcpmtd:xthrow.obj
 0002:00032df4       __TI3?AVoverflow_error@std@@ 00598df4     libcpmtd:xthrow.obj
 0002:00032e04       __CTA3?AVoverflow_error@std@@ 00598e04     libcpmtd:xthrow.obj
 0002:00032e14       __CT??_R0?AVoverflow_error@std@@@8??0overflow_error@std@@QAE@ABV01@@Z12 00598e14     libcpmtd:xthrow.obj
 0002:00032e30       __CT??_R0?AVruntime_error@std@@@8??0runtime_error@std@@QAE@ABV01@@Z12 00598e30     libcpmtd:xthrow.obj
 0002:00032e4c       __TI2?AVruntime_error@std@@ 00598e4c     libcpmtd:xthrow.obj
 0002:00032e5c       __CTA2?AVruntime_error@std@@ 00598e5c     libcpmtd:xthrow.obj
 0002:00032e68       __TI2?AVbad_function_call@std@@ 00598e68     libcpmtd:xthrow.obj
 0002:00032e78       __CTA2?AVbad_function_call@std@@ 00598e78     libcpmtd:xthrow.obj
 0002:00032e84       __CT??_R0?AVbad_function_call@std@@@8??0bad_function_call@std@@QAE@ABV01@@Z12 00598e84     libcpmtd:xthrow.obj
 0002:00032ea0       __TI3?AVregex_error@std@@  00598ea0     libcpmtd:xthrow.obj
 0002:00032eb0       __CTA3?AVregex_error@std@@ 00598eb0     libcpmtd:xthrow.obj
 0002:00032ec0       __CT??_R0?AVregex_error@std@@@8??0regex_error@std@@QAE@ABV01@@Z16 00598ec0     libcpmtd:xthrow.obj
 0002:0003388c       __TI2?AVbad_exception@std@@ 0059988c     LIBCMTD:frame.obj
 0002:0003389c       __CTA2?AVbad_exception@std@@ 0059989c     LIBCMTD:frame.obj
 0002:000338a8       __CT??_R0?AVbad_exception@std@@@8??0bad_exception@std@@QAE@ABV01@@Z12 005998a8     LIBCMTD:frame.obj
 0003:00000000       ?buildtime@@3PADA          0059b000     buildtime.obj
 0003:000000c4       ?defaultCaps@ClipboardSettings@@2KA 0059b0c4     Clipboard.obj
 0003:00000b98       ?g_fCheckScrollLock@LowLevelHook@@0HA 0059bb98     LowLevelHook.obj
 0003:00000bdc       _fixedkey                  0059bbdc     vncauth.obj
 0003:00000be6       ?command_line@@3_NA        0059bbe6     vncviewer.obj
 0003:00000be7       ?g_passwordfailed@@3_NA    0059bbe7     vncviewer.obj
 0003:00000be8       ?BELL_APPL_KEY_NAME@@3PBDB 0059bbe8     VNCviewerApp32.obj
 0003:00000bec       ?BELL_LABEL@@3PBDB         0059bbec     VNCviewerApp32.obj
 0003:00000c60       _local_hdr_sig             0059bc60     unz32lib:globals.obj
 0003:00000c64       _central_hdr_sig           0059bc64     unz32lib:globals.obj
 0003:00000c68       _end_central_sig           0059bc68     unz32lib:globals.obj
 0003:00000c6c       _fnames                    0059bc6c     unz32lib:globals.obj
 0003:00002540       _read_buf                  0059d540     zip32:zipup.obj
 0003:00002df0       _ziperrors                 0059ddf0     zip32:globals.obj
 0003:00002fd0       _pathput                   0059dfd0     zip32:globals.obj
 0003:00002fd4       _method                    0059dfd4     zip32:globals.obj
 0003:00002fd8       _special                   0059dfd8     zip32:globals.obj
 0003:00002fdc       _level                     0059dfdc     zip32:globals.obj
 0003:00002fe0       _dirnames                  0059dfe0     zip32:globals.obj
 0003:00002fe4       _noisy                     0059dfe4     zip32:globals.obj
 0003:00002fe8       _extra_fields              0059dfe8     zip32:globals.obj
 0003:00002fec       _fnxt                      0059dfec     zip32:globals.obj
 0003:000035c0       ___security_cookie         0059e5c0     LIBCMTD:gs_cookie.obj
 0003:000035c4       ___security_cookie_complement 0059e5c4     LIBCMTD:gs_cookie.obj
 0003:000035c8       __fltused                  0059e5c8     LIBCMTD:fpinit.obj
 0003:000035cc       __ldused                   0059e5cc     LIBCMTD:fpinit.obj
 0003:00003660       __iob                      0059e660     LIBCMTD:_file.obj
 0003:000038f0       __lookuptrailbytes         0059e8f0     LIBCMTD:read.obj
 0003:00003c84       ___abort_behavior          0059ec84     LIBCMTD:abort.obj
 0003:00003c88       __crtBreakAlloc            0059ec88     LIBCMTD:dbgheap.obj
 0003:00003c8c       ___crtDebugFillThreshold   0059ec8c     LIBCMTD:dbgheap.obj
 0003:00003c90       __crtDbgFlag               0059ec90     LIBCMTD:dbgheap.obj
 0003:00003c9c       ___isa_enabled             0059ec9c     LIBCMTD:cpu_disp.obj
 0003:00003ca8       __d_inf                    0059eca8     LIBCMTD:util.obj
 0003:00003cb0       __d_ind                    0059ecb0     LIBCMTD:util.obj
 0003:00003cb8       __d_max                    0059ecb8     LIBCMTD:util.obj
 0003:00003cc0       __d_min                    0059ecc0     LIBCMTD:util.obj
 0003:00003cc8       __d_mzero                  0059ecc8     LIBCMTD:util.obj
 0003:00003dd4       ___flsindex                0059edd4     LIBCMTD:tidtable.obj
 0003:00003de0       __cfltcvt_tab              0059ede0     LIBCMTD:cmiscdat.obj
 0003:00003e08       __pfnAllocHook             0059ee08     LIBCMTD:dbghook.obj
 0003:00003e10       __mbctype                  0059ee10     LIBCMTD:mbctype.obj
 0003:00003f18       __mbcasemap                0059ef18     LIBCMTD:mbctype.obj
 0003:00004018       ___initialmbcinfo          0059f018     LIBCMTD:mbctype.obj
 0003:0000423c       ___ptmbcinfo               0059f23c     LIBCMTD:mbctype.obj
 0003:00004330       ___mb_cur_max              0059f330     LIBCMTD:nlsdata.obj
 0003:00004334       ___wclocalestr             0059f334     LIBCMTD:nlsdata.obj
 0003:00004338       ___lc_time_c               0059f338     LIBCMTD:nlsdata.obj
 0003:0000449c       ___ptlocinfo               0059f49c     LIBCMTD:nlsdata.obj
 0003:000044a0       ___initiallocinfo          0059f4a0     LIBCMTD:nlsdata.obj
 0003:00004558       ___initiallocalestructinfo 0059f558     LIBCMTD:nlsdata.obj
 0003:00004560       ___globallocalestatus      0059f560     LIBCMTD:glstatus.obj
 0003:00004568       ___nullstring              0059f568     LIBCMTD:output.obj
 0003:0000456c       ___wnullstring             0059f56c     LIBCMTD:output.obj
 0003:00004570       __CrtDbgMode               0059f570     LIBCMTD:dbgrptt.obj
 0003:0000457c       __CrtDbgFile               0059f57c     LIBCMTD:dbgrptt.obj
 0003:00004588       __crtAssertBusy            0059f588     LIBCMTD:dbgrptt.obj
 0003:00004590       __timezone                 0059f590     LIBCMTD:timeset.obj
 0003:00004594       __daylight                 0059f594     LIBCMTD:timeset.obj
 0003:00004598       __dstbias                  0059f598     LIBCMTD:timeset.obj
 0003:00004620       __tzname                   0059f620     LIBCMTD:timeset.obj
 0003:00004628       __days                     0059f628     LIBCMTD:days.obj
 0003:0000465c       __lpdays                   0059f65c     LIBCMTD:days.obj
 0003:00004690       ___badioinfo               0059f690     LIBCMTD:ioinit.obj
 0003:000046d0       __sys_nerr                 0059f6d0     LIBCMTD:syserr.obj
 0003:000046d4       ?_RTC_ErrorLevels@@3PAHA   0059f6d4     LIBCMTD:error.obj
 0003:000046f0       __NLG_Destination          0059f6f0     LIBCMTD:exsup.obj
 0003:00004700       __pctype                   0059f700     LIBCMTD:ctype.obj
 0003:00004704       __pwctype                  0059f704     LIBCMTD:ctype.obj
 0003:00004710       __matherr_flag             0059f710     LIBCMTD:matherr.obj
 0003:00004718       ___lconv                   0059f718     LIBCMTD:lconv.obj
 0003:0000471c       ___lconv_static_decimal    0059f71c     LIBCMTD:lconv.obj
 0003:00004720       ___lconv_c                 0059f720     LIBCMTD:lconv.obj
 0003:00004770       ___lconv_static_W_decimal  0059f770     LIBCMTD:lconv.obj
 0003:00004774       __confh                    0059f774     LIBCMTD:initcon.obj
 0003:000047b0       __HUGE                     0059f7b0     LIBCMTD:huge.obj
 0003:000047b8       __pow10pos                 0059f7b8     LIBCMTD:constpow.obj
 0003:00004918       __pow10neg                 0059f918     LIBCMTD:constpow.obj
 0003:00005800       ??_R0?AVerror_category@std@@@8 005a0800     AboutBox.obj
 0003:00005828       ??_R0?AV_Generic_error_category@std@@@8 005a0828     AboutBox.obj
 0003:0000585c       ??_R0?AV_Iostream_error_category@std@@@8 005a085c     AboutBox.obj
 0003:00005890       ??_R0?AV_System_error_category@std@@@8 005a0890     AboutBox.obj
 0003:000058c4       ??_R0?AVAccelKeys@@@8      005a08c4     AccelKeys.obj
 0003:000058e0       ??_R0?AVAuthDialog@@@8     005a08e0     AuthDialog.obj
 0003:00005900       ??_R0?AVException@@@8      005a0900     ClientConnection.obj
 0003:0000591c       ??_R0?AVWarningException@@@8 005a091c     ClientConnection.obj
 0003:00005944       ??_R0?AVQuietException@@@8 005a0944     ClientConnection.obj
 0003:00005968       ??_R0?AUEndOfStream@rdr@@@8 005a0968     ClientConnection.obj
 0003:0000598c       ??_R0?AVErrorException@@@8 005a098c     ClientConnection.obj
 0003:000059b0       ??_R0?AUException@rdr@@@8  005a09b0     ClientConnection.obj
 0003:000059d4       ??_R0?AVomni_thread_invalid@@@8 005a09d4     ClientConnection.obj
 0003:000059fc       ??_R0?AVClientConnection@@@8 005a09fc     ClientConnection.obj
 0003:00005a24       ??_R0?AVomni_thread@@@8    005a0a24     ClientConnection.obj
 0003:00005a44       ??_R0?AVOutStream@rdr@@@8  005a0a44     Clipboard.obj
 0003:00005a68       ??_R0?AVMemOutStream@rdr@@@8 005a0a68     Clipboard.obj
 0003:00005a90       ??_R0?AVInStream@rdr@@@8   005a0a90     Clipboard.obj
 0003:00005ab0       ??_R0?AVMemInStream@rdr@@@8 005a0ab0     Clipboard.obj
 0003:00005ad4       ??_R0?AVDaemon@@@8         005a0ad4     Daemon.obj
 0003:00005af0       ??_R0?AVExcept@@@8         005a0af0     dh.obj
 0003:00005b0c       ??_R0?AVCDSMPlugin@@@8     005a0b0c     DSMPlugin.obj
 0003:00005b2c       ??_R0?AVViewerDirectxClass@@@8 005a0b2c     directxviewer.obj
 0003:00005b54       ??_R0?AVFileTransfer@@@8   005a0b54     FileTransfer.obj
 0003:00005b74       ??_R0?AVCTitleBar@@@8      005a0b74     FullScreenTitleBar.obj
 0003:00005b90       ??_R0?AVLog@@@8            005a0b90     Log.obj
 0003:00005ba8       ??_R0?AVMRU@@@8            005a0ba8     MRU.obj
 0003:00005bc0       ??_R0?AVSessionDialog@@@8  005a0bc0     SessionDialog.obj
 0003:00005be4       ??_R0?AVTextChat@@@8       005a0be4     TextChat.obj
 0003:00005c00       ??_R0?AVVNCOptions@@@8     005a0c00     VNCOptions.obj
 0003:00005c20       ??_R0?AVVNCviewerApp@@@8   005a0c20     VNCviewerApp.obj
 0003:00005c40       ??_R0?AVVNCviewerApp32@@@8 005a0c40     VNCviewerApp32.obj
 0003:00005c64       ??_R0?AVCZipUnZip32@@@8    005a0c64     ZipUnzip32.obj
 0003:00005c84       ??_R0?AUSystemException@rdr@@@8 005a0c84     rdr:FdInStream.obj
 0003:00005ca8       ??_R0?AUTimedOut@rdr@@@8   005a0ca8     rdr:FdInStream.obj
 0003:00005cc4       ??_R0?AVFdInStream@rdr@@@8 005a0cc4     rdr:FdInStream.obj
 0003:00005ce4       ??_R0?AVZlibInStream@rdr@@@8 005a0ce4     rdr:ZlibInStream.obj
 0003:00005d04       ??_R0?AVZlibOutStream@rdr@@@8 005a0d04     rdr:ZlibOutStream.obj
 0003:00005d24       ??_R0?AVomni_thread_fatal@@@8 005a0d24     omnithread:nt.obj
 0003:00005d44       ??_R0?AV_internal_omni_thread_dummy@@@8 005a0d44     omnithread:nt.obj
 0003:00005d70       ??_R0?AVbad_alloc@std@@@8  005a0d70     libcpmtd:xthrow.obj
 0003:00005d8c       ??_R0?AVexception@std@@@8  005a0d8c     libcpmtd:xthrow.obj
 0003:00005da8       ??_R0?AVinvalid_argument@std@@@8 005a0da8     libcpmtd:xthrow.obj
 0003:00005dcc       ??_R0?AVlogic_error@std@@@8 005a0dcc     libcpmtd:xthrow.obj
 0003:00005dec       ??_R0?AVlength_error@std@@@8 005a0dec     libcpmtd:xthrow.obj
 0003:00005e0c       ??_R0?AVout_of_range@std@@@8 005a0e0c     libcpmtd:xthrow.obj
 0003:00005e2c       ??_R0?AVoverflow_error@std@@@8 005a0e2c     libcpmtd:xthrow.obj
 0003:00005e50       ??_R0?AVruntime_error@std@@@8 005a0e50     libcpmtd:xthrow.obj
 0003:00005e70       ??_R0?AVbad_function_call@std@@@8 005a0e70     libcpmtd:xthrow.obj
 0003:00005e94       ??_R0?AVregex_error@std@@@8 005a0e94     libcpmtd:xthrow.obj
 0003:00005eb4       ??_R0?AVtype_info@@@8      005a0eb4     LIBCMTD:typinfo.obj
 0003:00005ecc       ??_R0?AVbad_cast@std@@@8   005a0ecc     LIBCMTD:stdexcpt.obj
 0003:00005ee8       ??_R0?AVbad_typeid@std@@@8 005a0ee8     LIBCMTD:stdexcpt.obj
 0003:00005f08       ??_R0?AV__non_rtti_object@std@@@8 005a0f08     LIBCMTD:stdexcpt.obj
 0003:00005f2c       ??_R0?AVbad_exception@std@@@8 005a0f2c     LIBCMTD:frame.obj
 0003:00005f4c       ??_R0?AVDNameNode@@@8      005a0f4c     LIBCMTD:undname.obj
 0003:00005f64       ??_R0?AVcharNode@@@8       005a0f64     LIBCMTD:undname.obj
 0003:00005f7c       ??_R0?AVpcharNode@@@8      005a0f7c     LIBCMTD:undname.obj
 0003:00005f94       ??_R0?AVpDNameNode@@@8     005a0f94     LIBCMTD:undname.obj
 0003:00005fb0       ??_R0?AVDNameStatusNode@@@8 005a0fb0     LIBCMTD:undname.obj
 0003:00005fd0       ??_R0?AVpairNode@@@8       005a0fd0     LIBCMTD:undname.obj
 0003:000061c8       ?_Generic_object@?$_Error_objects@H@std@@2V_Generic_error_category@2@A 005a11c8     AboutBox.obj
 0003:000061cc       ?_Iostream_object@?$_Error_objects@H@std@@2V_Iostream_error_category@2@A 005a11cc     AboutBox.obj
 0003:000061d0       ?_System_object@?$_Error_objects@H@std@@2V_System_error_category@2@A 005a11d0     AboutBox.obj
 0003:000061d4       ?id@?$num_put@DV?$back_insert_iterator@V?$basic_string@DU?$char_traits@D@std@@V?$allocator@D@2@@std@@@std@@@std@@2V0locale@2@A 005a11d4     AboutBox.obj
 0003:000061d8       ?id@?$num_put@_WV?$back_insert_iterator@V?$basic_string@_WU?$char_traits@_W@std@@V?$allocator@_W@2@@std@@@std@@@std@@2V0locale@2@A 005a11d8     AboutBox.obj
 0003:000061e0       ?id@?$numpunct@D@std@@2V0locale@2@A 005a11e0     AboutBox.obj
 0003:000061e4       ?id@?$numpunct@_W@std@@2V0locale@2@A 005a11e4     AboutBox.obj
 0003:000061f8       ?LvCol@@3UtagLVCOLUMNA@@A  005a11f8     ClientConnection.obj
 0003:00006224       ?LvItem@@3UtagLVITEMA@@A   005a1224     ClientConnection.obj
 0003:00006260       ?iSelect@@3HA              005a1260     ClientConnection.obj
 0003:00006264       ?flag@@3HA                 005a1264     ClientConnection.obj
 0003:00006268       ?hEdit@@3PAUHWND__@@A      005a1268     ClientConnection.obj
 0003:0000626c       ?havetobekilled@@3_NA      005a126c     ClientConnection.obj
 0003:0000626d       ?forcedexit@@3_NA          005a126d     ClientConnection.obj
 0003:00006274       ?FileTransferSendPacketMessage@@3IB 005a1274     ClientConnection.obj
 0003:000063cc       ?bgcolor@@3KA              005a13cc     ClientConnectionZlibHex.obj
 0003:000063d0       ?fgcolor@@3KA              005a13d0     ClientConnectionZlibHex.obj
 0003:000063d4       ?pfgcolor@@3PAEA           005a13d4     ClientConnectionZlibHex.obj
 0003:000063d8       ?pbgcolor@@3PAEA           005a13d8     ClientConnectionZlibHex.obj
 0003:000063ec       ?defaultServerCaps@ClipboardSettings@@2KA 005a13ec     Clipboard.obj
 0003:000063f0       ?formatRTF@ClipboardSettings@@2IB 005a13f0     Clipboard.obj
 0003:000063f4       ?defaultViewerCaps@ClipboardSettings@@2KA 005a13f4     Clipboard.obj
 0003:000063f8       ?formatHTML@ClipboardSettings@@2IB 005a13f8     Clipboard.obj
 0003:000065d4       ?pitch@@3HA                005a15d4     directxviewer.obj
 0003:000065d8       ?paintbuzy@@3_NA           005a15d8     directxviewer.obj
 0003:000065ec       _g_pfnGetSystemMetrics     005a15ec     FullScreenTitleBar.obj
 0003:000065f0       _g_pfnMonitorFromWindow    005a15f0     FullScreenTitleBar.obj
 0003:000065f4       _g_pfnMonitorFromRect      005a15f4     FullScreenTitleBar.obj
 0003:000065f8       _g_pfnMonitorFromPoint     005a15f8     FullScreenTitleBar.obj
 0003:000065fc       _g_pfnGetMonitorInfo       005a15fc     FullScreenTitleBar.obj
 0003:00006600       _g_pfnEnumDisplayMonitors  005a1600     FullScreenTitleBar.obj
 0003:00006604       _g_pfnEnumDisplayDevices   005a1604     FullScreenTitleBar.obj
 0003:00006614       ?reset@@3_NA               005a1614     KeyMap.obj
 0003:00006624       ?theLog@@3VLog@@A          005a1624     Log.obj
 0003:00006638       ?g_fScrollLock@LowLevelHook@@0HA 005a1638     LowLevelHook.obj
 0003:0000663c       ?g_hwndVNCViewer@LowLevelHook@@0PAUHWND__@@A 005a163c     LowLevelHook.obj
 0003:00006640       ?g_VncProcessID@LowLevelHook@@0KA 005a1640     LowLevelHook.obj
 0003:00006644       ?g_HookID@LowLevelHook@@0PAUHHOOK__@@A 005a1644     LowLevelHook.obj
 0003:00006648       ?g_hThread@LowLevelHook@@0PAXA 005a1648     LowLevelHook.obj
 0003:0000664c       ?g_nThreadID@LowLevelHook@@0KA 005a164c     LowLevelHook.obj
 0003:00006654       ?infomsg2@@3PADA           005a1654     MessBox2.obj
 0003:00006658       ?g_error_nr2@@3HA          005a1658     MessBox2.obj
 0003:0000665c       ?g_disable_sponsor@@3_NA   005a165c     MessBox2.obj
 0003:0000666c       ___@@_PchSym_@00@UwilkylcUwilkylcUulmgvhLemxhrsoUfogizemxPhixPJAHUfogizemxLkilqvxgLillgUfogizemxUemxervdviUwvyftUhgwswihOlyq@F3DEC3D2467F2EEB 005a166c     stdhdrs.obj
 0003:00006670       ?pDefSBProc@@3JA           005a1670     TextChat.obj
 0003:00006688       ?config_specified@@3_NA    005a1688     VNCOptions.obj
 0003:00006690       ?sz_A1@@3PADA              005a1690     vncviewer.obj
 0003:000066d0       ?sz_A2@@3PADA              005a16d0     vncviewer.obj
 0003:00006710       ?sz_A3@@3PADA              005a1710     vncviewer.obj
 0003:00006750       ?sz_A4@@3PADA              005a1750     vncviewer.obj
 0003:00006790       ?sz_A5@@3PADA              005a1790     vncviewer.obj
 0003:000067d0       ?sz_B1@@3PADA              005a17d0     vncviewer.obj
 0003:00006810       ?sz_B2@@3PADA              005a1810     vncviewer.obj
 0003:00006850       ?sz_B3@@3PADA              005a1850     vncviewer.obj
 0003:00006890       ?sz_C1@@3PADA              005a1890     vncviewer.obj
 0003:000068d0       ?sz_C2@@3PADA              005a18d0     vncviewer.obj
 0003:00006910       ?sz_C3@@3PADA              005a1910     vncviewer.obj
 0003:00006950       ?sz_D1@@3PADA              005a1950     vncviewer.obj
 0003:00006990       ?sz_D2@@3PADA              005a1990     vncviewer.obj
 0003:000069d0       ?sz_D3@@3PADA              005a19d0     vncviewer.obj
 0003:00006a10       ?sz_D4@@3PADA              005a1a10     vncviewer.obj
 0003:00006a50       ?sz_D5@@3PADA              005a1a50     vncviewer.obj
 0003:00006a90       ?sz_D6@@3PADA              005a1a90     vncviewer.obj
 0003:00006ad0       ?sz_D7@@3PADA              005a1ad0     vncviewer.obj
 0003:00006b10       ?sz_D8@@3PADA              005a1b10     vncviewer.obj
 0003:00006b50       ?sz_D9@@3PADA              005a1b50     vncviewer.obj
 0003:00006b90       ?sz_D10@@3PADA             005a1b90     vncviewer.obj
 0003:00006bd0       ?sz_D11@@3PADA             005a1bd0     vncviewer.obj
 0003:00006c10       ?sz_D12@@3PADA             005a1c10     vncviewer.obj
 0003:00006c50       ?sz_D13@@3PADA             005a1c50     vncviewer.obj
 0003:00006c90       ?sz_D14@@3PADA             005a1c90     vncviewer.obj
 0003:00006cd0       ?sz_D15@@3PADA             005a1cd0     vncviewer.obj
 0003:00006d10       ?sz_D16@@3PADA             005a1d10     vncviewer.obj
 0003:00006d50       ?sz_D17@@3PADA             005a1d50     vncviewer.obj
 0003:00006d90       ?sz_D18@@3PADA             005a1d90     vncviewer.obj
 0003:00006dd0       ?sz_D19@@3PADA             005a1dd0     vncviewer.obj
 0003:00006e10       ?sz_D20@@3PADA             005a1e10     vncviewer.obj
 0003:00006e50       ?sz_D21@@3PADA             005a1e50     vncviewer.obj
 0003:00006e90       ?sz_D22@@3PADA             005a1e90     vncviewer.obj
 0003:00006ed0       ?sz_D23@@3PADA             005a1ed0     vncviewer.obj
 0003:00006f10       ?sz_D24@@3PADA             005a1f10     vncviewer.obj
 0003:00006f50       ?sz_D25@@3PADA             005a1f50     vncviewer.obj
 0003:00006f90       ?sz_D26@@3PADA             005a1f90     vncviewer.obj
 0003:00006fd0       ?sz_D27@@3PADA             005a1fd0     vncviewer.obj
 0003:00007010       ?sz_D28@@3PADA             005a2010     vncviewer.obj
 0003:00007050       ?sz_E1@@3PADA              005a2050     vncviewer.obj
 0003:00007090       ?sz_E2@@3PADA              005a2090     vncviewer.obj
 0003:000070d0       ?sz_F1@@3PADA              005a20d0     vncviewer.obj
 0003:00007110       ?sz_F3@@3PADA              005a2110     vncviewer.obj
 0003:00007150       ?sz_F4@@3PADA              005a2150     vncviewer.obj
 0003:00007190       ?sz_F5@@3PADA              005a2190     vncviewer.obj
 0003:00007210       ?sz_F6@@3PADA              005a2210     vncviewer.obj
 0003:00007250       ?sz_F7@@3PADA              005a2250     vncviewer.obj
 0003:000072d0       ?sz_F8@@3PADA              005a22d0     vncviewer.obj
 0003:00007350       ?sz_F10@@3PADA             005a2350     vncviewer.obj
 0003:00007390       ?sz_F11@@3PADA             005a2390     vncviewer.obj
 0003:000073d0       ?sz_G1@@3PADA              005a23d0     vncviewer.obj
 0003:00007410       ?sz_G2@@3PADA              005a2410     vncviewer.obj
 0003:00007450       ?sz_G3@@3PADA              005a2450     vncviewer.obj
 0003:00007490       ?sz_H1@@3PADA              005a2490     vncviewer.obj
 0003:000074d0       ?sz_H2@@3PADA              005a24d0     vncviewer.obj
 0003:00007510       ?sz_H3@@3PADA              005a2510     vncviewer.obj
 0003:00007590       ?sz_H4@@3PADA              005a2590     vncviewer.obj
 0003:000075d0       ?sz_H5@@3PADA              005a25d0     vncviewer.obj
 0003:00007610       ?sz_H6@@3PADA              005a2610     vncviewer.obj
 0003:00007650       ?sz_H7@@3PADA              005a2650     vncviewer.obj
 0003:00007690       ?sz_H8@@3PADA              005a2690     vncviewer.obj
 0003:000076d0       ?sz_H9@@3PADA              005a26d0     vncviewer.obj
 0003:00007710       ?sz_H10@@3PADA             005a2710     vncviewer.obj
 0003:00007750       ?sz_H11@@3PADA             005a2750     vncviewer.obj
 0003:00007790       ?sz_H12@@3PADA             005a2790     vncviewer.obj
 0003:000077d0       ?sz_H13@@3PADA             005a27d0     vncviewer.obj
 0003:00007810       ?sz_H14@@3PADA             005a2810     vncviewer.obj
 0003:00007850       ?sz_H15@@3PADA             005a2850     vncviewer.obj
 0003:00007890       ?sz_H16@@3PADA             005a2890     vncviewer.obj
 0003:000078d0       ?sz_H17@@3PADA             005a28d0     vncviewer.obj
 0003:00007910       ?sz_H18@@3PADA             005a2910     vncviewer.obj
 0003:00007950       ?sz_H19@@3PADA             005a2950     vncviewer.obj
 0003:00007990       ?sz_H20@@3PADA             005a2990     vncviewer.obj
 0003:000079d0       ?sz_H21@@3PADA             005a29d0     vncviewer.obj
 0003:00007a10       ?sz_H22@@3PADA             005a2a10     vncviewer.obj
 0003:00007a50       ?sz_H23@@3PADA             005a2a50     vncviewer.obj
 0003:00007a90       ?sz_H24@@3PADA             005a2a90     vncviewer.obj
 0003:00007ad0       ?sz_H25@@3PADA             005a2ad0     vncviewer.obj
 0003:00007b10       ?sz_H26@@3PADA             005a2b10     vncviewer.obj
 0003:00007b50       ?sz_H27@@3PADA             005a2b50     vncviewer.obj
 0003:00007b90       ?sz_H28@@3PADA             005a2b90     vncviewer.obj
 0003:00007bd0       ?sz_H29@@3PADA             005a2bd0     vncviewer.obj
 0003:00007c10       ?sz_H30@@3PADA             005a2c10     vncviewer.obj
 0003:00007c50       ?sz_H31@@3PADA             005a2c50     vncviewer.obj
 0003:00007c90       ?sz_H32@@3PADA             005a2c90     vncviewer.obj
 0003:00007cd0       ?sz_H33@@3PADA             005a2cd0     vncviewer.obj
 0003:00007d10       ?sz_H34@@3PADA             005a2d10     vncviewer.obj
 0003:00007d50       ?sz_H35@@3PADA             005a2d50     vncviewer.obj
 0003:00007d90       ?sz_H36@@3PADA             005a2d90     vncviewer.obj
 0003:00007dd0       ?sz_H37@@3PADA             005a2dd0     vncviewer.obj
 0003:00007e10       ?sz_H38@@3PADA             005a2e10     vncviewer.obj
 0003:00007e90       ?sz_H39@@3PADA             005a2e90     vncviewer.obj
 0003:00007ed0       ?sz_H40@@3PADA             005a2ed0     vncviewer.obj
 0003:00007f10       ?sz_H41@@3PADA             005a2f10     vncviewer.obj
 0003:00007f50       ?sz_H42@@3PADA             005a2f50     vncviewer.obj
 0003:00007f90       ?sz_H43@@3PADA             005a2f90     vncviewer.obj
 0003:00008010       ?sz_H44@@3PADA             005a3010     vncviewer.obj
 0003:00008050       ?sz_H45@@3PADA             005a3050     vncviewer.obj
 0003:00008090       ?sz_H46@@3PADA             005a3090     vncviewer.obj
 0003:00008110       ?sz_H47@@3PADA             005a3110     vncviewer.obj
 0003:00008150       ?sz_H48@@3PADA             005a3150     vncviewer.obj
 0003:00008190       ?sz_H49@@3PADA             005a3190     vncviewer.obj
 0003:000081d0       ?sz_H50@@3PADA             005a31d0     vncviewer.obj
 0003:00008210       ?sz_H51@@3PADA             005a3210     vncviewer.obj
 0003:00008250       ?sz_H52@@3PADA             005a3250     vncviewer.obj
 0003:00008290       ?sz_H53@@3PADA             005a3290     vncviewer.obj
 0003:000082d0       ?sz_H54@@3PADA             005a32d0     vncviewer.obj
 0003:00008310       ?sz_H55@@3PADA             005a3310     vncviewer.obj
 0003:00008350       ?sz_H56@@3PADA             005a3350     vncviewer.obj
 0003:00008390       ?sz_H57@@3PADA             005a3390     vncviewer.obj
 0003:000083d0       ?sz_H58@@3PADA             005a33d0     vncviewer.obj
 0003:00008410       ?sz_H59@@3PADA             005a3410     vncviewer.obj
 0003:00008450       ?sz_H60@@3PADA             005a3450     vncviewer.obj
 0003:00008490       ?sz_H61@@3PADA             005a3490     vncviewer.obj
 0003:000084d0       ?sz_H62@@3PADA             005a34d0     vncviewer.obj
 0003:00008550       ?sz_H63@@3PADA             005a3550     vncviewer.obj
 0003:00008590       ?sz_H64@@3PADA             005a3590     vncviewer.obj
 0003:000085d0       ?sz_H65@@3PADA             005a35d0     vncviewer.obj
 0003:00008610       ?sz_H66@@3PADA             005a3610     vncviewer.obj
 0003:00008650       ?sz_H67@@3PADA             005a3650     vncviewer.obj
 0003:00008690       ?sz_H68@@3PADA             005a3690     vncviewer.obj
 0003:00008710       ?sz_H69@@3PADA             005a3710     vncviewer.obj
 0003:00008750       ?sz_H70@@3PADA             005a3750     vncviewer.obj
 0003:00008790       ?sz_H71@@3PADA             005a3790     vncviewer.obj
 0003:000087d0       ?sz_H72@@3PADA             005a37d0     vncviewer.obj
 0003:00008850       ?sz_H73@@3PADA             005a3850     vncviewer.obj
 0003:00008890       ?sz_I1@@3PADA              005a3890     vncviewer.obj
 0003:000088d0       ?sz_I2@@3PADA              005a38d0     vncviewer.obj
 0003:00008910       ?sz_I3@@3PADA              005a3910     vncviewer.obj
 0003:00008950       ?sz_J1@@3PADA              005a3950     vncviewer.obj
 0003:000089d0       ?sz_J2@@3PADA              005a39d0     vncviewer.obj
 0003:00008a10       ?sz_K1@@3PADA              005a3a10     vncviewer.obj
 0003:00008a50       ?sz_K2@@3PADA              005a3a50     vncviewer.obj
 0003:00008a90       ?sz_K3@@3PADA              005a3a90     vncviewer.obj
 0003:00008b10       ?sz_K4@@3PADA              005a3b10     vncviewer.obj
 0003:00008b50       ?sz_K5@@3PADA              005a3b50     vncviewer.obj
 0003:00008b90       ?sz_K6@@3PADA              005a3b90     vncviewer.obj
 0003:00008bd0       ?sz_K7@@3PADA              005a3bd0     vncviewer.obj
 0003:00008c10       ?sz_L1@@3PADA              005a3c10     vncviewer.obj
 0003:00008c50       ?sz_L2@@3PADA              005a3c50     vncviewer.obj
 0003:00008c90       ?sz_L3@@3PADA              005a3c90     vncviewer.obj
 0003:00008cd0       ?sz_L4@@3PADA              005a3cd0     vncviewer.obj
 0003:00008d10       ?sz_L5@@3PADA              005a3d10     vncviewer.obj
 0003:00008d50       ?sz_L6@@3PADA              005a3d50     vncviewer.obj
 0003:00008d90       ?sz_L7@@3PADA              005a3d90     vncviewer.obj
 0003:00008dd0       ?sz_L8@@3PADA              005a3dd0     vncviewer.obj
 0003:00008e10       ?sz_L9@@3PADA              005a3e10     vncviewer.obj
 0003:00008e50       ?sz_L10@@3PADA             005a3e50     vncviewer.obj
 0003:00008e90       ?sz_L11@@3PADA             005a3e90     vncviewer.obj
 0003:00008ed0       ?sz_L12@@3PADA             005a3ed0     vncviewer.obj
 0003:00008f10       ?sz_L13@@3PADA             005a3f10     vncviewer.obj
 0003:00008f50       ?sz_L14@@3PADA             005a3f50     vncviewer.obj
 0003:00008f90       ?sz_L15@@3PADA             005a3f90     vncviewer.obj
 0003:00008fd0       ?sz_L16@@3PADA             005a3fd0     vncviewer.obj
 0003:00009010       ?sz_L17@@3PADA             005a4010     vncviewer.obj
 0003:00009050       ?sz_L18@@3PADA             005a4050     vncviewer.obj
 0003:00009090       ?sz_L19@@3PADA             005a4090     vncviewer.obj
 0003:000090d0       ?sz_L20@@3PADA             005a40d0     vncviewer.obj
 0003:00009110       ?sz_L21@@3PADA             005a4110     vncviewer.obj
 0003:00009150       ?sz_L22@@3PADA             005a4150     vncviewer.obj
 0003:00009190       ?sz_L23@@3PADA             005a4190     vncviewer.obj
 0003:000091d0       ?sz_L24@@3PADA             005a41d0     vncviewer.obj
 0003:00009210       ?sz_L25@@3PADA             005a4210     vncviewer.obj
 0003:00009250       ?sz_L26@@3PADA             005a4250     vncviewer.obj
 0003:00009290       ?sz_L27@@3PADA             005a4290     vncviewer.obj
 0003:000092d0       ?sz_L28@@3PADA             005a42d0     vncviewer.obj
 0003:00009310       ?sz_L29@@3PADA             005a4310     vncviewer.obj
 0003:00009350       ?sz_L30@@3PADA             005a4350     vncviewer.obj
 0003:00009390       ?sz_L31@@3PADA             005a4390     vncviewer.obj
 0003:000093d0       ?sz_L32@@3PADA             005a43d0     vncviewer.obj
 0003:00009410       ?sz_L33@@3PADA             005a4410     vncviewer.obj
 0003:00009450       ?sz_L34@@3PADA             005a4450     vncviewer.obj
 0003:00009490       ?sz_L35@@3PADA             005a4490     vncviewer.obj
 0003:000094d0       ?sz_L36@@3PADA             005a44d0     vncviewer.obj
 0003:00009510       ?sz_L37@@3PADA             005a4510     vncviewer.obj
 0003:00009550       ?sz_L38@@3PADA             005a4550     vncviewer.obj
 0003:00009590       ?sz_L39@@3PADA             005a4590     vncviewer.obj
 0003:000095d0       ?sz_L40@@3PADA             005a45d0     vncviewer.obj
 0003:00009610       ?sz_L41@@3PADA             005a4610     vncviewer.obj
 0003:00009650       ?sz_L42@@3PADA             005a4650     vncviewer.obj
 0003:00009690       ?sz_L43@@3PADA             005a4690     vncviewer.obj
 0003:000096d0       ?sz_L44@@3PADA             005a46d0     vncviewer.obj
 0003:00009710       ?sz_L45@@3PADA             005a4710     vncviewer.obj
 0003:00009750       ?sz_L46@@3PADA             005a4750     vncviewer.obj
 0003:00009790       ?sz_L47@@3PADA             005a4790     vncviewer.obj
 0003:000097d0       ?sz_L48@@3PADA             005a47d0     vncviewer.obj
 0003:00009810       ?sz_L49@@3PADA             005a4810     vncviewer.obj
 0003:00009850       ?sz_L50@@3PADA             005a4850     vncviewer.obj
 0003:00009890       ?sz_L51@@3PADA             005a4890     vncviewer.obj
 0003:00009910       ?sz_L52@@3PADA             005a4910     vncviewer.obj
 0003:00009950       ?sz_L53@@3PADA             005a4950     vncviewer.obj
 0003:00009990       ?sz_L54@@3PADA             005a4990     vncviewer.obj
 0003:000099d0       ?sz_L55@@3PADA             005a49d0     vncviewer.obj
 0003:00009a10       ?sz_L56@@3PADA             005a4a10     vncviewer.obj
 0003:00009a50       ?sz_L57@@3PADA             005a4a50     vncviewer.obj
 0003:00009a90       ?sz_L58@@3PADA             005a4a90     vncviewer.obj
 0003:00009ad0       ?sz_L59@@3PADA             005a4ad0     vncviewer.obj
 0003:00009b10       ?sz_L60@@3PADA             005a4b10     vncviewer.obj
 0003:00009b50       ?sz_L61@@3PADA             005a4b50     vncviewer.obj
 0003:00009b90       ?sz_L62@@3PADA             005a4b90     vncviewer.obj
 0003:00009bd0       ?sz_L63@@3PADA             005a4bd0     vncviewer.obj
 0003:00009c10       ?sz_L64@@3PADA             005a4c10     vncviewer.obj
 0003:00009c50       ?sz_L65@@3PADA             005a4c50     vncviewer.obj
 0003:00009c90       ?sz_L66@@3PADA             005a4c90     vncviewer.obj
 0003:00009cd0       ?sz_L67@@3PADA             005a4cd0     vncviewer.obj
 0003:00009d10       ?sz_L68@@3PADA             005a4d10     vncviewer.obj
 0003:00009d50       ?sz_L69@@3PADA             005a4d50     vncviewer.obj
 0003:00009d90       ?sz_L70@@3PADA             005a4d90     vncviewer.obj
 0003:00009dd0       ?sz_L71@@3PADA             005a4dd0     vncviewer.obj
 0003:00009e10       ?sz_L72@@3PADA             005a4e10     vncviewer.obj
 0003:00009e50       ?sz_L73@@3PADA             005a4e50     vncviewer.obj
 0003:00009e90       ?sz_L74@@3PADA             005a4e90     vncviewer.obj
 0003:00009ed0       ?sz_L75@@3PADA             005a4ed0     vncviewer.obj
 0003:00009f10       ?sz_L76@@3PADA             005a4f10     vncviewer.obj
 0003:00009f50       ?sz_L77@@3PADA             005a4f50     vncviewer.obj
 0003:00009fd0       ?sz_L78@@3PADA             005a4fd0     vncviewer.obj
 0003:0000a010       ?sz_L79@@3PADA             005a5010     vncviewer.obj
 0003:0000a050       ?sz_L80@@3PADA             005a5050     vncviewer.obj
 0003:0000a090       ?sz_L81@@3PADA             005a5090     vncviewer.obj
 0003:0000a110       ?sz_L82@@3PADA             005a5110     vncviewer.obj
 0003:0000a150       ?sz_L83@@3PADA             005a5150     vncviewer.obj
 0003:0000a190       ?sz_L84@@3PADA             005a5190     vncviewer.obj
 0003:0000a1d0       ?sz_L85@@3PADA             005a51d0     vncviewer.obj
 0003:0000a210       ?sz_L86@@3PADA             005a5210     vncviewer.obj
 0003:0000a250       ?sz_L87@@3PADA             005a5250     vncviewer.obj
 0003:0000a290       ?sz_L88@@3PADA             005a5290     vncviewer.obj
 0003:0000a2d0       ?sz_L89@@3PADA             005a52d0     vncviewer.obj
 0003:0000a310       ?sz_L90@@3PADA             005a5310     vncviewer.obj
 0003:0000a350       ?sz_L91@@3PADA             005a5350     vncviewer.obj
 0003:0000a390       ?sz_L92@@3PADA             005a5390     vncviewer.obj
 0003:0000a3d0       ?sz_L93@@3PADA             005a53d0     vncviewer.obj
 0003:0000a410       ?sz_L94@@3PADA             005a5410     vncviewer.obj
 0003:0000a450       ?sz_H94@@3PADA             005a5450     vncviewer.obj
 0003:0000a490       ?sz_H95@@3PADA             005a5490     vncviewer.obj
 0003:0000a4d0       ?sz_H96@@3PADA             005a54d0     vncviewer.obj
 0003:0000a510       ?sz_H97@@3PADA             005a5510     vncviewer.obj
 0003:0000a550       ?sz_H98@@3PADA             005a5550     vncviewer.obj
 0003:0000a590       ?sz_H99@@3PADA             005a5590     vncviewer.obj
 0003:0000a5d0       ?sz_H100@@3PADA            005a55d0     vncviewer.obj
 0003:0000a610       ?sz_H101@@3PADA            005a5610     vncviewer.obj
 0003:0000a650       ?sz_H102@@3PADA            005a5650     vncviewer.obj
 0003:0000a6d0       ?sz_M1@@3PADA              005a56d0     vncviewer.obj
 0003:0000a710       ?sz_M2@@3PADA              005a5710     vncviewer.obj
 0003:0000a750       ?sz_M3@@3PADA              005a5750     vncviewer.obj
 0003:0000a790       ?sz_M4@@3PADA              005a5790     vncviewer.obj
 0003:0000a7d0       ?sz_M5@@3PADA              005a57d0     vncviewer.obj
 0003:0000a810       ?sz_M6@@3PADA              005a5810     vncviewer.obj
 0003:0000a850       ?sz_M7@@3PADA              005a5850     vncviewer.obj
 0003:0000a890       ?sz_M8@@3PADA              005a5890     vncviewer.obj
 0003:0000a8d0       ?g_ConnectionLossAlreadyReported@@3_NA 005a58d0     vncviewer.obj
 0003:0000a8d4       ?m_hInstResDLL@@3PAUHINSTANCE__@@A 005a58d4     vncviewer.obj
 0003:0000a8e0       ?vnclog@@3VLog@@A          005a58e0     vncviewer.obj
 0003:0000a8f4       ?TheAccelKeys@@3VAccelKeys@@A 005a58f4     vncviewer.obj
 0003:0000b64c       ?pApp@@3PAVVNCviewerApp@@A 005a664c     VNCviewerApp.obj
 0003:0000b670       _fNoPrinting               005a6670     unz32lib:windll.obj
 0003:0000bac0       _bInitialized              005a6ac0     unz32lib:nt.obj
 0003:0000bac4       _hInitMutex                005a6ac4     unz32lib:nt.obj
 0003:0000bac8       _g_bRestorePrivilege       005a6ac8     unz32lib:nt.obj
 0003:0000bacc       _g_bSaclPrivilege          005a6acc     unz32lib:nt.obj
 0003:0000bad0       _lpZipUserFunctions        005a6ad0     zip32:api.obj
 0003:0000bf30       _label                     005a6f30     zip32:fileio.obj
 0003:0000bfa8       _recurse                   005a6fa8     zip32:globals.obj
 0003:0000bfac       _dispose                   005a6fac     zip32:globals.obj
 0003:0000bfb0       _dosify                    005a6fb0     zip32:globals.obj
 0003:0000bfb4       _verbose                   005a6fb4     zip32:globals.obj
 0003:0000bfb8       _fix                       005a6fb8     zip32:globals.obj
 0003:0000bfbc       _adjust                    005a6fbc     zip32:globals.obj
 0003:0000bfc0       _translate_eol             005a6fc0     zip32:globals.obj
 0003:0000bfc4       _use_longname_ea           005a6fc4     zip32:globals.obj
 0003:0000bfc8       _hidden_files              005a6fc8     zip32:globals.obj
 0003:0000bfcc       _volume_label              005a6fcc     zip32:globals.obj
 0003:0000bfd0       _linkput                   005a6fd0     zip32:globals.obj
 0003:0000bfd4       _use_privileges            005a6fd4     zip32:globals.obj
 0003:0000bfd8       _key                       005a6fd8     zip32:globals.obj
 0003:0000bfdc       _tempath                   005a6fdc     zip32:globals.obj
 0003:0000bfe0       _zfiles                    005a6fe0     zip32:globals.obj
 0003:0000bfe4       _zcomment                  005a6fe4     zip32:globals.obj
 0003:0000bfe8       _found                     005a6fe8     zip32:globals.obj
 0003:0000bfec       _patterns                  005a6fec     zip32:globals.obj
 0003:0000bff0       _pcount                    005a6ff0     zip32:globals.obj
 0003:0000bff4       _icount                    005a6ff4     zip32:globals.obj
 0003:0000bff8       _Rcount                    005a6ff8     zip32:globals.obj
 0003:00026f18       _bZipInitialized           005c1f18     zip32:nt.obj
 0003:00026f1c       _hZipInitMutex             005c1f1c     zip32:nt.obj
 0003:00026f20       _g_bBackupPrivilege        005c1f20     zip32:nt.obj
 0003:00026f24       _g_bZipSaclPrivilege       005c1f24     zip32:nt.obj
 0003:00026f2c       ?next_id_mutex@omni_thread@@0PAVomni_mutex@@A 005c1f2c     omnithread:nt.obj
 0003:00026f30       ?next_id@omni_thread@@0HA  005c1f30     omnithread:nt.obj
 0003:00026f34       ?count@init_t@omni_thread@@0HA 005c1f34     omnithread:nt.obj
 0003:00026f38       ?cache@_internal_omni_thread_helper@@2PAV_internal_omni_thread_dummy@@A 005c1f38     omnithread:nt.obj
 0003:00026f40       ?cachelock@_internal_omni_thread_helper@@2Vomni_mutex@@A 005c1f40     omnithread:nt.obj
 0003:00026fd0       ___fastflag                005c1fd0     LIBCMTD:fpinit.obj
 0003:000272f8       ___pInvalidArgHandler      005c22f8     LIBCMTD:invarg.obj
 0003:000273bc       __cflush                   005c23bc     LIBCMTD:_file.obj
 0003:000273c4       __umaskval                 005c23c4     LIBCMTD:crt0dat.obj
 0003:000273c8       __exitflag                 005c23c8     LIBCMTD:crt0dat.obj
 0003:000273cc       __C_Termination_Done       005c23cc     LIBCMTD:crt0dat.obj
 0003:000273d0       ___winitenv                005c23d0     LIBCMTD:crt0dat.obj
 0003:000273d4       ___initenv                 005c23d4     LIBCMTD:crt0dat.obj
 0003:000273d8       ___argc                    005c23d8     LIBCMTD:crt0dat.obj
 0003:000273dc       ___argv                    005c23dc     LIBCMTD:crt0dat.obj
 0003:000273e0       ___wargv                   005c23e0     LIBCMTD:crt0dat.obj
 0003:000273e4       __environ                  005c23e4     LIBCMTD:crt0dat.obj
 0003:000273e8       __wenviron                 005c23e8     LIBCMTD:crt0dat.obj
 0003:000273ec       __pgmptr                   005c23ec     LIBCMTD:crt0dat.obj
 0003:000273f0       __wpgmptr                  005c23f0     LIBCMTD:crt0dat.obj
 0003:000273f4       __C_Exit_Done              005c23f4     LIBCMTD:crt0dat.obj
 0003:000273f8       __aenvptr                  005c23f8     LIBCMTD:wincrt0.obj
 0003:000273fc       __wenvptr                  005c23fc     LIBCMTD:wincrt0.obj
 0003:00027588       ___app_type                005c2588     LIBCMTD:crt0msg.obj
 0003:00027bb8       ___pPurecall               005c2bb8     LIBCMTD:inithelp.obj
 0003:00027bbc       ?_pnhHeap@@3P6AHI@ZA       005c2bbc     LIBCMTD:handler.obj
 0003:00027bc0       ___crtDebugCheckCount      005c2bc0     LIBCMTD:dbgheap.obj
 0003:00027bc8       ?_pfnDumpClient@@3P6AXPAXI@ZA 005c2bc8     LIBCMTD:dbgheap.obj
 0003:00027be4       ___isa_available           005c2be4     LIBCMTD:cpu_disp.obj
 0003:00027be8       ___favor                   005c2be8     LIBCMTD:cpu_disp.obj
 0003:00027bec       ?__pInconsistency@@3P6AXXZA 005c2bec     LIBCMTD:hooks.obj
 0003:00027bf0       ?g_OutOfMemoryExceptionCallback@@3P6GPAXXZA 005c2bf0     LIBCMTD:frame.obj
 0003:00027bfc       ___mbcodepage              005c2bfc     LIBCMTD:mbctype.obj
 0003:00027c00       ___ismbcodepage            005c2c00     LIBCMTD:mbctype.obj
 0003:00027c04       ___mbulinfo                005c2c04     LIBCMTD:mbctype.obj
 0003:00027c10       ___mblocalename            005c2c10     LIBCMTD:mbctype.obj
 0003:00027c18       ___locale_changed          005c2c18     LIBCMTD:wsetloca.obj
 0003:00027c44       ___error_mode              005c2c44     LIBCMTD:errmode.obj
 0003:00027c48       __commode                  005c2c48     LIBCMTD:ncommode.obj
 0003:00027c50       ___pioinfo                 005c2c50     LIBCMTD:ioinit.obj
 0003:00027d50       __stdbuf                   005c2d50     LIBCMTD:_sftbuf.obj
 0003:00027d58       __newmode                  005c2d58     LIBCMTD:_newmode.obj
 0003:00027d60       __crtheap                  005c2d60     LIBCMTD:heapinit.obj
 0003:00027e70       ?wsprintffp@@3P6AHPADPBDZZA 005c2e70     LIBCMTD:error.obj
 0003:00027e7c       __fmode                    005c2e7c     LIBCMTD:txtmode.obj
 0003:00027e84       ?pArgList@UnDecorator@@0PAVReplicator@@A 005c2e84     LIBCMTD:undname.obj
 0003:00027e88       ?pZNameList@UnDecorator@@0PAVReplicator@@A 005c2e88     LIBCMTD:undname.obj
 0003:00027e8c       ?pTemplateArgList@UnDecorator@@0PAVReplicator@@A 005c2e8c     LIBCMTD:undname.obj
 0003:00027e90       ?gName@UnDecorator@@0PBDB  005c2e90     LIBCMTD:undname.obj
 0003:00027e94       ?name@UnDecorator@@0PBDB   005c2e94     LIBCMTD:undname.obj
 0003:00027e98       ?outputString@UnDecorator@@0PADA 005c2e98     LIBCMTD:undname.obj
 0003:00027e9c       ?maxStringLength@UnDecorator@@0HA 005c2e9c     LIBCMTD:undname.obj
 0003:00027ea0       ?disableFlags@UnDecorator@@0KA 005c2ea0     LIBCMTD:undname.obj
 0003:00027ea4       ?fExplicitTemplateParams@UnDecorator@@0_NA 005c2ea4     LIBCMTD:undname.obj
 0003:00027ea5       ?fGetTemplateArgumentList@UnDecorator@@0_NA 005c2ea5     LIBCMTD:undname.obj
 0003:00027ea8       ?m_pGetParameter@UnDecorator@@0P6APADJ@ZA 005c2ea8     LIBCMTD:undname.obj
 0003:00027f10       ?nodes@?1??make@DNameStatusNode@@SAPAV2@W4DNameStatus@@@Z@4PAV2@A 005c2f10     LIBCMTD:undname.obj
 0003:00027f40       ??_B?1??make@DNameStatusNode@@SAPAV1@W4DNameStatus@@@Z@51 005c2f40     LIBCMTD:undname.obj
 0003:00027f44       __outputformat             005c2f44     LIBCMTD:outputformat.obj
 0003:00027f48       ___lconv_static_null       005c2f48     LIBCMTD:lconv.obj
 0003:00027f4c       ___lconv_static_W_null     005c2f4c     LIBCMTD:lconv.obj
 0003:00027f60       _VolumeCapsLock            005c2f60     <common>
 0003:00027fc0       _g_VolumeCaps              005c2fc0     <common>
 0003:000280e4       _GG                        005c30e4     <common>
 0003:00028100       _dll_error_return          005c3100     <common>
 0003:00028154       _hDCL                      005c3154     <common>
 0003:00028164       _hwildZipFN                005c3164     <common>
 0003:00028168       _hInst                     005c3168     <common>
 0003:0002816c       _fcount                    005c316c     <common>
 0003:0002825c       _tempzn                    005c325c     <common>
 0003:00028260       _zsort                     005c3260     <common>
 0003:00028264       _zcomlen                   005c3264     <common>
 0003:00028268       _zcount                    005c3268     <common>
 0003:0002826c       _cenbeg                    005c326c     <common>
 0003:00028270       _zipbeg                    005c3270     <common>
 0003:00028274       _zipfile                   005c3274     <common>
 0003:00028278       _mesg                      005c3278     <common>
 0003:00028280       _errbuf                    005c3280     <common>
 0003:000286d4       _hCurrentInst              005c36d4     <common>
 0003:000286e4       _hStr                      005c36e4     <common>
 0003:000286e8       _szCommentBuf              005c36e8     <common>
 0003:000286ec       _nice_match                005c36ec     <common>
 0003:000320a4       _good_match                005cd0a4     <common>
 0003:000320a8       _max_chain_length          005cd0a8     <common>
 0003:000320ac       _match_start               005cd0ac     <common>
 0003:000320b0       _strstart                  005cd0b0     <common>
 0003:000320b4       _prev_length               005cd0b4     <common>
 0003:000320b8       _block_start               005cd0b8     <common>
 0003:000320bc       _window_size               005cd0bc     <common>
 0003:000320c0       _head                      005cd0c0     <common>
 0003:000420e0       _prev                      005dd0e0     <common>
 0003:00052100       _window                    005ed100     <common>
 0003:00062100       _zipstate                  005fd100     <common>
 0003:00062120       _lower                     005fd120     <common>
 0003:000622a0       _upper                     005fd2a0     <common>
 0003:000623a0       ____tmp_ptr                005fd3a0     <common>
 0003:000623a4       _crc_32_tab                005fd3a4     <common>
 0003:000623c0       _zipdll_error_return       005fd3c0     <common>
 0003:00062400       _argCee                    005fd400     <common>
 0003:00062aa0       _argVee                    005fdaa0     <common>
 0003:00062ac0       _Options                   005fdac0     <common>
 0003:00062b40       _szTempDir                 005fdb40     <common>
 0003:00063b60       _szRootDir                 005feb60     <common>
 0003:00064b80       _szDate                    005ffb80     <common>
 0003:00064bb4       _ZipRet                    005ffbb4     <common>
 0003:00064bc0       _ZipUserFunctions          005ffbc0     <common>
 0003:00064bd0       _lpZipPassword             005ffbd0     <common>
 0003:00064bd4       _lpZipPrint                005ffbd4     <common>
 0003:00064bd8       __nhandle                  005ffbd8     <common>
 0003:00064be4       __pReportHookListW         005ffbe4     <common>
 0003:00064bf4       __pReportHookList          005ffbf4     <common>
 0003:00064bf8       __pfnReportHook            005ffbf8     <common>
 0003:00064bfc       ___unguarded_readlc_active 005ffbfc     <common>
 0003:00064c0c       ___setlc_active            005ffc0c     <common>
 0003:00064c10       __debugger_hook_dummy      005ffc10     <common>
 0003:00064c20       _encodedKERNEL32Functions  005ffc20     <common>
 0003:00064cc8       __setjmpexused             005ffcc8     <common>
 0003:00064cd4       __acmdln                   005ffcd4     <common>
 0003:00064ce0       ___dyn_tls_init_callback   005ffce0     <common>
 0003:00064cf0       ___onexitend               005ffcf0     <common>
 0003:00064cf4       ___onexitbegin             005ffcf4     <common>
 0003:00064cf8       ___mbctype_initialized     005ffcf8     <common>
 0003:00064cfc       ___env_initialized         005ffcfc     <common>
 0003:00064d00       __bufin                    005ffd00     <common>
 0003:0006603c       ___piob                    0060103c     <common>
 0003:00066040       __nstream                  00601040     <common>
 0004:00000000       __imp__RegOpenKeyExA@20    00602000     advapi32:ADVAPI32.dll
 0004:00000004       __imp__RegQueryValueExA@24 00602004     advapi32:ADVAPI32.dll
 0004:00000008       __imp__RegSetValueExA@24   00602008     advapi32:ADVAPI32.dll
 0004:0000000c       __imp__OpenProcessToken@12 0060200c     advapi32:ADVAPI32.dll
 0004:00000010       __imp__AdjustTokenPrivileges@24 00602010     advapi32:ADVAPI32.dll
 0004:00000014       __imp__GetKernelObjectSecurity@20 00602014     advapi32:ADVAPI32.dll
 0004:00000018       __imp__GetSecurityDescriptorLength@4 00602018     advapi32:ADVAPI32.dll
 0004:0000001c       __imp__LookupPrivilegeValueA@12 0060201c     advapi32:ADVAPI32.dll
 0004:00000020       __imp__SetKernelObjectSecurity@12 00602020     advapi32:ADVAPI32.dll
 0004:00000024       __imp__IsValidSid@4        00602024     advapi32:ADVAPI32.dll
 0004:00000028       __imp__IsValidSecurityDescriptor@4 00602028     advapi32:ADVAPI32.dll
 0004:0000002c       __imp__IsValidAcl@4        0060202c     advapi32:ADVAPI32.dll
 0004:00000030       __imp__GetSecurityDescriptorSacl@16 00602030     advapi32:ADVAPI32.dll
 0004:00000034       __imp__GetSecurityDescriptorOwner@12 00602034     advapi32:ADVAPI32.dll
 0004:00000038       __imp__GetSecurityDescriptorGroup@12 00602038     advapi32:ADVAPI32.dll
 0004:0000003c       __imp__GetSecurityDescriptorDacl@16 0060203c     advapi32:ADVAPI32.dll
 0004:00000040       __imp__GetSecurityDescriptorControl@12 00602040     advapi32:ADVAPI32.dll
 0004:00000044       __imp__RegCloseKey@4       00602044     advapi32:ADVAPI32.dll
 0004:00000048       \177ADVAPI32_NULL_THUNK_DATA 00602048     advapi32:ADVAPI32.dll
 0004:00000080       __imp__ImageList_ReplaceIcon@12 00602080     comctl32:COMCTL32.dll
 0004:00000084       __imp__ImageList_Create@20 00602084     comctl32:COMCTL32.dll
 0004:00000088       __imp__CreateToolbarEx@52  00602088     comctl32:COMCTL32.dll
 0004:0000008c       __imp__InitCommonControlsEx@4 0060208c     comctl32:COMCTL32.dll
 0004:00000090       __imp__CreateStatusWindowA@16 00602090     comctl32:COMCTL32.dll
 0004:00000094       __imp__InitCommonControls@0 00602094     comctl32:COMCTL32.dll
 0004:00000098       \177COMCTL32_NULL_THUNK_DATA 00602098     comctl32:COMCTL32.dll
 0004:000000c8       __imp__GetSaveFileNameA@4  006020c8     comdlg32:COMDLG32.dll
 0004:000000cc       __imp__GetOpenFileNameA@4  006020cc     comdlg32:COMDLG32.dll
 0004:000000d0       __imp__CommDlgExtendedError@0 006020d0     comdlg32:COMDLG32.dll
 0004:000000d4       \177COMDLG32_NULL_THUNK_DATA 006020d4     comdlg32:COMDLG32.dll
 0004:00000100       __imp__GetClipBox@8        00602100     gdi32:GDI32.dll
 0004:00000104       __imp__GetDeviceCaps@8     00602104     gdi32:GDI32.dll
 0004:00000108       __imp__GetStockObject@4    00602108     gdi32:GDI32.dll
 0004:0000010c       __imp__RealizePalette@4    0060210c     gdi32:GDI32.dll
 0004:00000110       __imp__SelectPalette@12    00602110     gdi32:GDI32.dll
 0004:00000114       __imp__StretchBlt@44       00602114     gdi32:GDI32.dll
 0004:00000118       __imp__SetStretchBltMode@8 00602118     gdi32:GDI32.dll
 0004:0000011c       __imp__UpdateColors@4      0060211c     gdi32:GDI32.dll
 0004:00000120       __imp__CreateDIBSection@24 00602120     gdi32:GDI32.dll
 0004:00000124       __imp__SetDIBColorTable@16 00602124     gdi32:GDI32.dll
 0004:00000128       __imp__CreatePalette@4     00602128     gdi32:GDI32.dll
 0004:0000012c       __imp__CreateRectRgnIndirect@4 0060212c     gdi32:GDI32.dll
 0004:00000130       __imp__Rectangle@20        00602130     gdi32:GDI32.dll
 0004:00000134       __imp__CreateFontA@56      00602134     gdi32:GDI32.dll
 0004:00000138       __imp__CreatePen@12        00602138     gdi32:GDI32.dll
 0004:0000013c       __imp__LineTo@12           0060213c     gdi32:GDI32.dll
 0004:00000140       __imp__SetBkMode@8         00602140     gdi32:GDI32.dll
 0004:00000144       __imp__SetTextColor@8      00602144     gdi32:GDI32.dll
 0004:00000148       __imp__MoveToEx@16         00602148     gdi32:GDI32.dll
 0004:0000014c       __imp__CreatePolygonRgn@12 0060214c     gdi32:GDI32.dll
 0004:00000150       __imp__SetROP2@8           00602150     gdi32:GDI32.dll
 0004:00000154       __imp__CombineRgn@16       00602154     gdi32:GDI32.dll
 0004:00000158       __imp__SelectObject@8      00602158     gdi32:GDI32.dll
 0004:0000015c       __imp__SetBrushOrgEx@16    0060215c     gdi32:GDI32.dll
 0004:00000160       __imp__PatBlt@24           00602160     gdi32:GDI32.dll
 0004:00000164       __imp__DeleteObject@4      00602164     gdi32:GDI32.dll
 0004:00000168       __imp__DeleteDC@4          00602168     gdi32:GDI32.dll
 0004:0000016c       __imp__CreateSolidBrush@4  0060216c     gdi32:GDI32.dll
 0004:00000170       __imp__BitBlt@36           00602170     gdi32:GDI32.dll
 0004:00000174       __imp__CreateRectRgn@16    00602174     gdi32:GDI32.dll
 0004:00000178       __imp__CreateCompatibleDC@4 00602178     gdi32:GDI32.dll
 0004:0000017c       \177GDI32_NULL_THUNK_DATA  0060217c     gdi32:GDI32.dll
 0004:000001c0       __imp__ImmAssociateContext@8 006021c0     imm32:IMM32.dll
 0004:000001c4       \177IMM32_NULL_THUNK_DATA  006021c4     imm32:IMM32.dll
 0004:000001f0       __imp__GetProcAddress@8    006021f0     kernel32:KERNEL32.dll
 0004:000001f4       __imp__LoadLibraryA@4      006021f4     kernel32:KERNEL32.dll
 0004:000001f8       __imp__GetTempPathA@8      006021f8     kernel32:KERNEL32.dll
 0004:000001fc       __imp__CopyFileA@12        006021fc     kernel32:KERNEL32.dll
 0004:00000200       __imp__lstrcpyA@8          00602200     kernel32:KERNEL32.dll
 0004:00000204       __imp__CompareFileTime@8   00602204     kernel32:KERNEL32.dll
 0004:00000208       __imp__CreateDirectoryA@8  00602208     kernel32:KERNEL32.dll
 0004:0000020c       __imp__CreateFileA@28      0060220c     kernel32:KERNEL32.dll
 0004:00000210       __imp__FileTimeToLocalFileTime@8 00602210     kernel32:KERNEL32.dll
 0004:00000214       __imp__FlushFileBuffers@4  00602214     kernel32:KERNEL32.dll
 0004:00000218       __imp__GetDriveTypeA@4     00602218     kernel32:KERNEL32.dll
 0004:0000021c       __imp__GetFileAttributesA@4 0060221c     kernel32:KERNEL32.dll
 0004:00000220       __imp__GetFileTime@16      00602220     kernel32:KERNEL32.dll
 0004:00000224       __imp__ReadFile@20         00602224     kernel32:KERNEL32.dll
 0004:00000228       __imp__SetEndOfFile@4      00602228     kernel32:KERNEL32.dll
 0004:0000022c       __imp__SetFilePointer@16   0060222c     kernel32:KERNEL32.dll
 0004:00000230       __imp__SetFileTime@16      00602230     kernel32:KERNEL32.dll
 0004:00000234       __imp__WriteFile@20        00602234     kernel32:KERNEL32.dll
 0004:00000238       __imp__SetErrorMode@4      00602238     kernel32:KERNEL32.dll
 0004:0000023c       __imp__InitializeCriticalSection@4 0060223c     kernel32:KERNEL32.dll
 0004:00000240       __imp__EnterCriticalSection@4 00602240     kernel32:KERNEL32.dll
 0004:00000244       __imp__LeaveCriticalSection@4 00602244     kernel32:KERNEL32.dll
 0004:00000248       __imp__DeleteCriticalSection@4 00602248     kernel32:KERNEL32.dll
 0004:0000024c       __imp__lstrcmpiA@8         0060224c     kernel32:KERNEL32.dll
 0004:00000250       __imp__lstrlenA@4          00602250     kernel32:KERNEL32.dll
 0004:00000254       __imp__GetLogicalDriveStringsA@8 00602254     kernel32:KERNEL32.dll
 0004:00000258       __imp__MoveFileA@8         00602258     kernel32:KERNEL32.dll
 0004:0000025c       __imp__MoveFileExA@12      0060225c     kernel32:KERNEL32.dll
 0004:00000260       __imp__FileTimeToSystemTime@8 00602260     kernel32:KERNEL32.dll
 0004:00000264       __imp__SystemTimeToFileTime@8 00602264     kernel32:KERNEL32.dll
 0004:00000268       __imp__MulDiv@12           00602268     kernel32:KERNEL32.dll
 0004:0000026c       __imp__GetStdHandle@4      0060226c     kernel32:KERNEL32.dll
 0004:00000270       __imp__AllocConsole@0      00602270     kernel32:KERNEL32.dll
 0004:00000274       __imp__WriteConsoleA@20    00602274     kernel32:KERNEL32.dll
 0004:00000278       __imp__GetComputerNameA@8  00602278     kernel32:KERNEL32.dll
 0004:0000027c       __imp__GetVersionExA@4     0060227c     kernel32:KERNEL32.dll
 0004:00000280       __imp__MoveFileExW@12      00602280     kernel32:KERNEL32.dll
 0004:00000284       __imp__GetCurrentDirectoryW@8 00602284     kernel32:KERNEL32.dll
 0004:00000288       __imp__SetCurrentDirectoryW@4 00602288     kernel32:KERNEL32.dll
 0004:0000028c       __imp__CreateFileW@28      0060228c     kernel32:KERNEL32.dll
 0004:00000290       __imp__SetFileAttributesW@8 00602290     kernel32:KERNEL32.dll
 0004:00000294       __imp__DeleteFileW@4       00602294     kernel32:KERNEL32.dll
 0004:00000298       __imp__GetStringTypeW@16   00602298     kernel32:KERNEL32.dll
 0004:0000029c       __imp__SetEnvironmentVariableW@8 0060229c     kernel32:KERNEL32.dll
 0004:000002a0       __imp__FreeEnvironmentStringsW@4 006022a0     kernel32:KERNEL32.dll
 0004:000002a4       __imp__GetEnvironmentStringsW@0 006022a4     kernel32:KERNEL32.dll
 0004:000002a8       __imp__GetCurrentProcessId@0 006022a8     kernel32:KERNEL32.dll
 0004:000002ac       __imp__CreateDirectoryW@8  006022ac     kernel32:KERNEL32.dll
 0004:000002b0       __imp__SystemTimeToTzSpecificLocalTime@12 006022b0     kernel32:KERNEL32.dll
 0004:000002b4       __imp__FindFirstFileExW@24 006022b4     kernel32:KERNEL32.dll
 0004:000002b8       __imp__GetFileAttributesExW@12 006022b8     kernel32:KERNEL32.dll
 0004:000002bc       __imp__WaitForSingleObjectEx@12 006022bc     kernel32:KERNEL32.dll
 0004:000002c0       __imp__OutputDebugStringW@4 006022c0     kernel32:KERNEL32.dll
 0004:000002c4       __imp__SetConsoleCtrlHandler@8 006022c4     kernel32:KERNEL32.dll
 0004:000002c8       __imp__FindNextFileA@8     006022c8     kernel32:KERNEL32.dll
 0004:000002cc       __imp__GetACP@0            006022cc     kernel32:KERNEL32.dll
 0004:000002d0       __imp__IsValidCodePage@4   006022d0     kernel32:KERNEL32.dll
 0004:000002d4       __imp__GetSystemInfo@4     006022d4     kernel32:KERNEL32.dll
 0004:000002d8       __imp__HeapValidate@12     006022d8     kernel32:KERNEL32.dll
 0004:000002dc       __imp__CreateSemaphoreW@16 006022dc     kernel32:KERNEL32.dll
 0004:000002e0       __imp__GetModuleHandleW@4  006022e0     kernel32:KERNEL32.dll
 0004:000002e4       __imp__GetStartupInfoW@4   006022e4     kernel32:KERNEL32.dll
 0004:000002e8       __imp__TlsFree@4           006022e8     kernel32:KERNEL32.dll
 0004:000002ec       __imp__GetModuleFileNameA@12 006022ec     kernel32:KERNEL32.dll
 0004:000002f0       __imp__CreateEventW@16     006022f0     kernel32:KERNEL32.dll
 0004:000002f4       __imp__InitializeCriticalSectionAndSpinCount@8 006022f4     kernel32:KERNEL32.dll
 0004:000002f8       __imp__SetLastError@4      006022f8     kernel32:KERNEL32.dll
 0004:000002fc       __imp__SetUnhandledExceptionFilter@4 006022fc     kernel32:KERNEL32.dll
 0004:00000300       __imp__UnhandledExceptionFilter@4 00602300     kernel32:KERNEL32.dll
 0004:00000304       __imp__FatalAppExitA@8     00602304     kernel32:KERNEL32.dll
 0004:00000308       __imp__LoadLibraryExW@12   00602308     kernel32:KERNEL32.dll
 0004:0000030c       __imp__ExitThread@4        0060230c     kernel32:KERNEL32.dll
 0004:00000310       __imp__PeekNamedPipe@24    00602310     kernel32:KERNEL32.dll
 0004:00000314       __imp__GetFileInformationByHandle@8 00602314     kernel32:KERNEL32.dll
 0004:00000318       __imp__GetCurrentDirectoryA@8 00602318     kernel32:KERNEL32.dll
 0004:0000031c       __imp__SetCurrentDirectoryA@4 0060231c     kernel32:KERNEL32.dll
 0004:00000320       __imp__SetEnvironmentVariableA@8 00602320     kernel32:KERNEL32.dll
 0004:00000324       __imp__GetDriveTypeW@4     00602324     kernel32:KERNEL32.dll
 0004:00000328       __imp__GetCPInfo@8         00602328     kernel32:KERNEL32.dll
 0004:0000032c       __imp__ReadConsoleW@20     0060232c     kernel32:KERNEL32.dll
 0004:00000330       __imp__SetFilePointerEx@20 00602330     kernel32:KERNEL32.dll
 0004:00000334       __imp__GetConsoleMode@8    00602334     kernel32:KERNEL32.dll
 0004:00000338       __imp__GetConsoleCP@0      00602338     kernel32:KERNEL32.dll
 0004:0000033c       __imp__GetCommandLineA@0   0060233c     kernel32:KERNEL32.dll
 0004:00000340       __imp__AreFileApisANSI@0   00602340     kernel32:KERNEL32.dll
 0004:00000344       __imp__ExitProcess@4       00602344     kernel32:KERNEL32.dll
 0004:00000348       __imp__SetStdHandle@8      00602348     kernel32:KERNEL32.dll
 0004:0000034c       __imp__GetTimeZoneInformation@4 0060234c     kernel32:KERNEL32.dll
 0004:00000350       __imp__WriteConsoleW@20    00602350     kernel32:KERNEL32.dll
 0004:00000354       __imp__GetSystemTimeAsFileTime@4 00602354     kernel32:KERNEL32.dll
 0004:00000358       __imp__GetModuleHandleExW@12 00602358     kernel32:KERNEL32.dll
 0004:0000035c       __imp__GetModuleFileNameW@12 0060235c     kernel32:KERNEL32.dll
 0004:00000360       __imp__IsProcessorFeaturePresent@4 00602360     kernel32:KERNEL32.dll
 0004:00000364       __imp__IsDebuggerPresent@0 00602364     kernel32:KERNEL32.dll
 0004:00000368       __imp__RtlUnwind@16        00602368     kernel32:KERNEL32.dll
 0004:0000036c       __imp__RaiseException@16   0060236c     kernel32:KERNEL32.dll
 0004:00000370       __imp__DecodePointer@4     00602370     kernel32:KERNEL32.dll
 0004:00000374       __imp__EncodePointer@4     00602374     kernel32:KERNEL32.dll
 0004:00000378       __imp__CreateSemaphoreA@16 00602378     kernel32:KERNEL32.dll
 0004:0000037c       __imp__GetSystemTime@4     0060237c     kernel32:KERNEL32.dll
 0004:00000380       __imp__TlsSetValue@8       00602380     kernel32:KERNEL32.dll
 0004:00000384       __imp__TlsGetValue@4       00602384     kernel32:KERNEL32.dll
 0004:00000388       __imp__TlsAlloc@0          00602388     kernel32:KERNEL32.dll
 0004:0000038c       __imp__SetThreadPriority@8 0060238c     kernel32:KERNEL32.dll
 0004:00000390       __imp__GetCurrentThreadId@0 00602390     kernel32:KERNEL32.dll
 0004:00000394       __imp__GetCurrentThread@0  00602394     kernel32:KERNEL32.dll
 0004:00000398       __imp__ReleaseSemaphore@12 00602398     kernel32:KERNEL32.dll
 0004:0000039c       __imp__DuplicateHandle@28  0060239c     kernel32:KERNEL32.dll
 0004:000003a0       __imp__FatalExit@4         006023a0     kernel32:KERNEL32.dll
 0004:000003a4       __imp__GetFileType@4       006023a4     kernel32:KERNEL32.dll
 0004:000003a8       __imp__lstrcatA@8          006023a8     kernel32:KERNEL32.dll
 0004:000003ac       __imp__lstrcpynA@12        006023ac     kernel32:KERNEL32.dll
 0004:000003b0       __imp__GetCurrentProcess@0 006023b0     kernel32:KERNEL32.dll
 0004:000003b4       __imp__CreateMutexA@12     006023b4     kernel32:KERNEL32.dll
 0004:000003b8       __imp__ReleaseMutex@4      006023b8     kernel32:KERNEL32.dll
 0004:000003bc       __imp__GetProcessHeap@0    006023bc     kernel32:KERNEL32.dll
 0004:000003c0       __imp__HeapFree@12         006023c0     kernel32:KERNEL32.dll
 0004:000003c4       __imp__HeapAlloc@12        006023c4     kernel32:KERNEL32.dll
 0004:000003c8       __imp__GetLocaleInfoA@16   006023c8     kernel32:KERNEL32.dll
 0004:000003cc       __imp__GetVolumeInformationA@32 006023cc     kernel32:KERNEL32.dll
 0004:000003d0       __imp__SetVolumeLabelA@8   006023d0     kernel32:KERNEL32.dll
 0004:000003d4       __imp__DosDateTimeToFileTime@12 006023d4     kernel32:KERNEL32.dll
 0004:000003d8       __imp__GetLocalTime@4      006023d8     kernel32:KERNEL32.dll
 0004:000003dc       __imp__GetVersion@0        006023dc     kernel32:KERNEL32.dll
 0004:000003e0       __imp__SetFileAttributesA@8 006023e0     kernel32:KERNEL32.dll
 0004:000003e4       __imp__LocalFileTimeToFileTime@8 006023e4     kernel32:KERNEL32.dll
 0004:000003e8       __imp__GetFullPathNameA@16 006023e8     kernel32:KERNEL32.dll
 0004:000003ec       __imp__QueryPerformanceFrequency@4 006023ec     kernel32:KERNEL32.dll
 0004:000003f0       __imp__QueryPerformanceCounter@4 006023f0     kernel32:KERNEL32.dll
 0004:000003f4       __imp__TerminateProcess@8  006023f4     kernel32:KERNEL32.dll
 0004:000003f8       __imp__FreeLibrary@4       006023f8     kernel32:KERNEL32.dll
 0004:000003fc       __imp__FindFirstFileA@8    006023fc     kernel32:KERNEL32.dll
 0004:00000400       __imp__FindClose@4         00602400     kernel32:KERNEL32.dll
 0004:00000404       __imp__DeleteFileA@4       00602404     kernel32:KERNEL32.dll
 0004:00000408       __imp__WideCharToMultiByte@32 00602408     kernel32:KERNEL32.dll
 0004:0000040c       __imp__MultiByteToWideChar@24 0060240c     kernel32:KERNEL32.dll
 0004:00000410       __imp__GlobalFree@4        00602410     kernel32:KERNEL32.dll
 0004:00000414       __imp__GlobalSize@4        00602414     kernel32:KERNEL32.dll
 0004:00000418       __imp__GetPrivateProfileStringA@24 00602418     kernel32:KERNEL32.dll
 0004:0000041c       __imp__WritePrivateProfileStringA@16 0060241c     kernel32:KERNEL32.dll
 0004:00000420       __imp__GetPrivateProfileIntA@16 00602420     kernel32:KERNEL32.dll
 0004:00000424       __imp__GlobalUnlock@4      00602424     kernel32:KERNEL32.dll
 0004:00000428       __imp__GlobalLock@4        00602428     kernel32:KERNEL32.dll
 0004:0000042c       __imp__GlobalAlloc@8       0060242c     kernel32:KERNEL32.dll
 0004:00000430       __imp__RemoveDirectoryW@4  00602430     kernel32:KERNEL32.dll
 0004:00000434       __imp__FormatMessageA@28   00602434     kernel32:KERNEL32.dll
 0004:00000438       __imp__LocalFree@4         00602438     kernel32:KERNEL32.dll
 0004:0000043c       __imp__GetTickCount@0      0060243c     kernel32:KERNEL32.dll
 0004:00000440       __imp__ResumeThread@4      00602440     kernel32:KERNEL32.dll
 0004:00000444       __imp__CreateThread@24     00602444     kernel32:KERNEL32.dll
 0004:00000448       __imp__Sleep@4             00602448     kernel32:KERNEL32.dll
 0004:0000044c       __imp__CreateEventA@16     0060244c     kernel32:KERNEL32.dll
 0004:00000450       __imp__WaitForSingleObject@8 00602450     kernel32:KERNEL32.dll
 0004:00000454       __imp__SetEvent@4          00602454     kernel32:KERNEL32.dll
 0004:00000458       __imp__GetLastError@0      00602458     kernel32:KERNEL32.dll
 0004:0000045c       __imp__CloseHandle@4       0060245c     kernel32:KERNEL32.dll
 0004:00000460       __imp__Beep@8              00602460     kernel32:KERNEL32.dll
 0004:00000464       __imp__OutputDebugStringA@4 00602464     kernel32:KERNEL32.dll
 0004:00000468       __imp__GetModuleHandleA@4  00602468     kernel32:KERNEL32.dll
 0004:0000046c       __imp__GetDateFormatW@24   0060246c     kernel32:KERNEL32.dll
 0004:00000470       __imp__GetTimeFormatW@24   00602470     kernel32:KERNEL32.dll
 0004:00000474       __imp__CompareStringW@24   00602474     kernel32:KERNEL32.dll
 0004:00000478       __imp__LCMapStringW@24     00602478     kernel32:KERNEL32.dll
 0004:0000047c       __imp__GetLocaleInfoW@16   0060247c     kernel32:KERNEL32.dll
 0004:00000480       __imp__IsValidLocale@8     00602480     kernel32:KERNEL32.dll
 0004:00000484       __imp__GetUserDefaultLCID@0 00602484     kernel32:KERNEL32.dll
 0004:00000488       __imp__EnumSystemLocalesW@8 00602488     kernel32:KERNEL32.dll
 0004:0000048c       __imp__HeapReAlloc@16      0060248c     kernel32:KERNEL32.dll
 0004:00000490       __imp__HeapSize@12         00602490     kernel32:KERNEL32.dll
 0004:00000494       __imp__HeapQueryInformation@20 00602494     kernel32:KERNEL32.dll
 0004:00000498       __imp__GetFullPathNameW@16 00602498     kernel32:KERNEL32.dll
 0004:0000049c       __imp__VirtualQuery@12     0060249c     kernel32:KERNEL32.dll
 0004:000004a0       __imp__GetOEMCP@0          006024a0     kernel32:KERNEL32.dll
 0004:000004a4       \177KERNEL32_NULL_THUNK_DATA 006024a4     kernel32:KERNEL32.dll
 0004:00000558       __imp__ShellExecuteA@24    00602558     shell32:SHELL32.dll
 0004:0000055c       __imp__SHGetSpecialFolderLocation@12 0060255c     shell32:SHELL32.dll
 0004:00000560       __imp__SHGetPathFromIDListA@8 00602560     shell32:SHELL32.dll
 0004:00000564       __imp__SHFileOperationA@4  00602564     shell32:SHELL32.dll
 0004:00000568       __imp__Shell_NotifyIconA@8 00602568     shell32:SHELL32.dll
 0004:0000056c       __imp__SHGetFolderPathA@20 0060256c     shell32:SHELL32.dll
 0004:00000570       \177SHELL32_NULL_THUNK_DATA 00602570     shell32:SHELL32.dll
 0004:000005a0       __imp__ReleaseCapture@0    006025a0     user32:USER32.dll
 0004:000005a4       __imp__SetCapture@4        006025a4     user32:USER32.dll
 0004:000005a8       __imp__CallWindowProcA@20  006025a8     user32:USER32.dll
 0004:000005ac       __imp__CallNextHookEx@16   006025ac     user32:USER32.dll
 0004:000005b0       __imp__SetWindowsHookExA@16 006025b0     user32:USER32.dll
 0004:000005b4       __imp__GetWindowThreadProcessId@8 006025b4     user32:USER32.dll
 0004:000005b8       __imp__GetForegroundWindow@0 006025b8     user32:USER32.dll
 0004:000005bc       __imp__PostThreadMessageA@16 006025bc     user32:USER32.dll
 0004:000005c0       __imp__GetMessageA@16      006025c0     user32:USER32.dll
 0004:000005c4       __imp__ToAscii@20          006025c4     user32:USER32.dll
 0004:000005c8       __imp__GetKeyState@4       006025c8     user32:USER32.dll
 0004:000005cc       __imp__keybd_event@16      006025cc     user32:USER32.dll
 0004:000005d0       __imp__VkKeyScanW@4        006025d0     user32:USER32.dll
 0004:000005d4       __imp__ToUnicode@24        006025d4     user32:USER32.dll
 0004:000005d8       __imp__GetKeyboardState@4  006025d8     user32:USER32.dll
 0004:000005dc       __imp__GetCaretBlinkTime@0 006025dc     user32:USER32.dll
 0004:000005e0       __imp__GetDesktopWindow@0  006025e0     user32:USER32.dll
 0004:000005e4       __imp__PtInRect@12         006025e4     user32:USER32.dll
 0004:000005e8       __imp__IntersectRect@12    006025e8     user32:USER32.dll
 0004:000005ec       __imp__SetWindowRgn@12     006025ec     user32:USER32.dll
 0004:000005f0       __imp__WindowFromDC@4      006025f0     user32:USER32.dll
 0004:000005f4       __imp__ModifyMenuA@20      006025f4     user32:USER32.dll
 0004:000005f8       __imp__GetMenuStringA@20   006025f8     user32:USER32.dll
 0004:000005fc       __imp__GetComboBoxInfo@8   006025fc     user32:USER32.dll
 0004:00000600       __imp__DestroyIcon@4       00602600     user32:USER32.dll
 0004:00000604       __imp__GetParent@4         00602604     user32:USER32.dll
 0004:00000608       __imp__GetWindowTextLengthA@4 00602608     user32:USER32.dll
 0004:0000060c       __imp__DrawTextA@20        0060260c     user32:USER32.dll
 0004:00000610       __imp__GetMenuItemCount@4  00602610     user32:USER32.dll
 0004:00000614       __imp__EnableWindow@8      00602614     user32:USER32.dll
 0004:00000618       __imp__SendDlgItemMessageA@20 00602618     user32:USER32.dll
 0004:0000061c       __imp__SendMessageTimeoutA@28 0060261c     user32:USER32.dll
 0004:00000620       __imp__SetCaretBlinkTime@4 00602620     user32:USER32.dll
 0004:00000624       __imp__ScreenToClient@8    00602624     user32:USER32.dll
 0004:00000628       __imp__GetScrollInfo@12    00602628     user32:USER32.dll
 0004:0000062c       __imp__IsDlgButtonChecked@8 0060262c     user32:USER32.dll
 0004:00000630       __imp__LoadKeyboardLayoutA@8 00602630     user32:USER32.dll
 0004:00000634       __imp__LoadBitmapA@8       00602634     user32:USER32.dll
 0004:00000638       __imp__wvsprintfA@12       00602638     user32:USER32.dll
 0004:0000063c       __imp__CharToOemA@8        0060263c     user32:USER32.dll
 0004:00000640       __imp__OemToCharA@8        00602640     user32:USER32.dll
 0004:00000644       __imp__DialogBoxParamA@20  00602644     user32:USER32.dll
 0004:00000648       __imp__EndDialog@8         00602648     user32:USER32.dll
 0004:0000064c       __imp__SetDlgItemTextA@12  0060264c     user32:USER32.dll
 0004:00000650       __imp__SetForegroundWindow@4 00602650     user32:USER32.dll
 0004:00000654       __imp__IsRectEmpty@4       00602654     user32:USER32.dll
 0004:00000658       __imp__LoadImageA@24       00602658     user32:USER32.dll
 0004:0000065c       __imp__PeekMessageA@20     0060265c     user32:USER32.dll
 0004:00000660       __imp__DispatchMessageA@4  00602660     user32:USER32.dll
 0004:00000664       __imp__TranslateMessage@4  00602664     user32:USER32.dll
 0004:00000668       __imp__GetMonitorInfoA@8   00602668     user32:USER32.dll
 0004:0000066c       __imp__MonitorFromPoint@12 0060266c     user32:USER32.dll
 0004:00000670       __imp__SystemParametersInfoA@16 00602670     user32:USER32.dll
 0004:00000674       __imp__EnumDisplayDevicesA@16 00602674     user32:USER32.dll
 0004:00000678       __imp__EnumDisplaySettingsExA@16 00602678     user32:USER32.dll
 0004:0000067c       __imp__GetSystemMetrics@4  0060267c     user32:USER32.dll
 0004:00000680       __imp__ValidateRect@8      00602680     user32:USER32.dll
 0004:00000684       __imp__SetMenuDefaultItem@12 00602684     user32:USER32.dll
 0004:00000688       __imp__TrackPopupMenu@28   00602688     user32:USER32.dll
 0004:0000068c       __imp__GetMenuItemID@8     0060268c     user32:USER32.dll
 0004:00000690       __imp__GetSubMenu@8        00602690     user32:USER32.dll
 0004:00000694       __imp__LoadMenuA@8         00602694     user32:USER32.dll
 0004:00000698       __imp__RegisterClassExA@4  00602698     user32:USER32.dll
 0004:0000069c       __imp__LoadStringA@16      0060269c     user32:USER32.dll
 0004:000006a0       __imp__IsClipboardFormatAvailable@4 006026a0     user32:USER32.dll
 0004:000006a4       __imp__RegisterClipboardFormatA@4 006026a4     user32:USER32.dll
 0004:000006a8       __imp__SetWindowLongA@12   006026a8     user32:USER32.dll
 0004:000006ac       __imp__GetCursorPos@4      006026ac     user32:USER32.dll
 0004:000006b0       __imp__SetCursorPos@8      006026b0     user32:USER32.dll
 0004:000006b4       __imp__RedrawWindow@16     006026b4     user32:USER32.dll
 0004:000006b8       __imp__EmptyClipboard@0    006026b8     user32:USER32.dll
 0004:000006bc       __imp__GetClipboardData@4  006026bc     user32:USER32.dll
 0004:000006c0       __imp__SetClipboardData@8  006026c0     user32:USER32.dll
 0004:000006c4       __imp__GetClipboardOwner@0 006026c4     user32:USER32.dll
 0004:000006c8       __imp__CloseClipboard@0    006026c8     user32:USER32.dll
 0004:000006cc       __imp__OpenClipboard@4     006026cc     user32:USER32.dll
 0004:000006d0       __imp__SetScrollInfo@16    006026d0     user32:USER32.dll
 0004:000006d4       __imp__LoadIconA@8         006026d4     user32:USER32.dll
 0004:000006d8       __imp__LoadCursorA@8       006026d8     user32:USER32.dll
 0004:000006dc       __imp__SetRect@20          006026dc     user32:USER32.dll
 0004:000006e0       __imp__FillRect@12         006026e0     user32:USER32.dll
 0004:000006e4       __imp__GetSysColorBrush@4  006026e4     user32:USER32.dll
 0004:000006e8       __imp__SetCursor@4         006026e8     user32:USER32.dll
 0004:000006ec       __imp__MessageBoxA@16      006026ec     user32:USER32.dll
 0004:000006f0       __imp__AdjustWindowRectEx@16 006026f0     user32:USER32.dll
 0004:000006f4       __imp__GetWindowRect@8     006026f4     user32:USER32.dll
 0004:000006f8       __imp__GetClientRect@8     006026f8     user32:USER32.dll
 0004:000006fc       __imp__ShowScrollBar@12    006026fc     user32:USER32.dll
 0004:00000700       __imp__ScrollWindowEx@32   00602700     user32:USER32.dll
 0004:00000704       __imp__InvalidateRgn@12    00602704     user32:USER32.dll
 0004:00000708       __imp__InvalidateRect@12   00602708     user32:USER32.dll
 0004:0000070c       __imp__EndPaint@8          0060270c     user32:USER32.dll
 0004:00000710       __imp__BeginPaint@8        00602710     user32:USER32.dll
 0004:00000714       __imp__ReleaseDC@8         00602714     user32:USER32.dll
 0004:00000718       __imp__GetDC@4             00602718     user32:USER32.dll
 0004:0000071c       __imp__UpdateWindow@4      0060271c     user32:USER32.dll
 0004:00000720       __imp__AppendMenuA@16      00602720     user32:USER32.dll
 0004:00000724       __imp__EnableMenuItem@12   00602724     user32:USER32.dll
 0004:00000728       __imp__CheckMenuItem@12    00602728     user32:USER32.dll
 0004:0000072c       __imp__DestroyMenu@4       0060272c     user32:USER32.dll
 0004:00000730       __imp__CreatePopupMenu@0   00602730     user32:USER32.dll
 0004:00000734       __imp__GetSystemMenu@8     00602734     user32:USER32.dll
 0004:00000738       __imp__DrawMenuBar@4       00602738     user32:USER32.dll
 0004:0000073c       __imp__KillTimer@8         0060273c     user32:USER32.dll
 0004:00000740       __imp__SetTimer@16         00602740     user32:USER32.dll
 0004:00000744       __imp__GetKeyNameTextA@12  00602744     user32:USER32.dll
 0004:00000748       __imp__GetFocus@0          00602748     user32:USER32.dll
 0004:0000074c       __imp__SetFocus@4          0060274c     user32:USER32.dll
 0004:00000750       __imp__ChangeClipboardChain@8 00602750     user32:USER32.dll
 0004:00000754       __imp__SetClipboardViewer@4 00602754     user32:USER32.dll
 0004:00000758       __imp__GetDlgItemInt@16    00602758     user32:USER32.dll
 0004:0000075c       __imp__SetDlgItemInt@16    0060275c     user32:USER32.dll
 0004:00000760       __imp__IsIconic@4          00602760     user32:USER32.dll
 0004:00000764       __imp__SetWindowPos@28     00602764     user32:USER32.dll
 0004:00000768       __imp__MoveWindow@24       00602768     user32:USER32.dll
 0004:0000076c       __imp__ShowWindow@8        0060276c     user32:USER32.dll
 0004:00000770       __imp__DestroyWindow@4     00602770     user32:USER32.dll
 0004:00000774       __imp__IsWindow@4          00602774     user32:USER32.dll
 0004:00000778       __imp__CreateWindowExA@48  00602778     user32:USER32.dll
 0004:0000077c       __imp__RegisterClassA@4    0060277c     user32:USER32.dll
 0004:00000780       __imp__PostQuitMessage@4   00602780     user32:USER32.dll
 0004:00000784       __imp__DefWindowProcA@16   00602784     user32:USER32.dll
 0004:00000788       __imp__PostMessageA@16     00602788     user32:USER32.dll
 0004:0000078c       __imp__SendNotifyMessageA@16 0060278c     user32:USER32.dll
 0004:00000790       __imp__RegisterWindowMessageA@4 00602790     user32:USER32.dll
 0004:00000794       __imp__GetKeyboardLayoutNameA@4 00602794     user32:USER32.dll
 0004:00000798       __imp__wsprintfA           00602798     user32:USER32.dll
 0004:0000079c       __imp__GetWindowLongA@8    0060279c     user32:USER32.dll
 0004:000007a0       __imp__GetWindowTextA@12   006027a0     user32:USER32.dll
 0004:000007a4       __imp__SetWindowTextA@8    006027a4     user32:USER32.dll
 0004:000007a8       __imp__GetDlgItemTextA@16  006027a8     user32:USER32.dll
 0004:000007ac       __imp__GetDlgItem@8        006027ac     user32:USER32.dll
 0004:000007b0       __imp__SendMessageA@16     006027b0     user32:USER32.dll
 0004:000007b4       __imp__TranslateAcceleratorA@12 006027b4     user32:USER32.dll
 0004:000007b8       __imp__DestroyAcceleratorTable@4 006027b8     user32:USER32.dll
 0004:000007bc       __imp__CreateAcceleratorTableA@8 006027bc     user32:USER32.dll
 0004:000007c0       __imp__MapWindowPoints@16  006027c0     user32:USER32.dll
 0004:000007c4       \177USER32_NULL_THUNK_DATA 006027c4     user32:USER32.dll
 0004:0000085c       __imp__timeGetTime@0       0060285c     winmm:WINMM.dll
 0004:00000860       __imp__timeSetEvent@20     00602860     winmm:WINMM.dll
 0004:00000864       __imp__timeKillEvent@4     00602864     winmm:WINMM.dll
 0004:00000868       __imp__PlaySoundA@12       00602868     winmm:WINMM.dll
 0004:0000086c       \177WINMM_NULL_THUNK_DATA  0060286c     winmm:WINMM.dll
 0004:00000898       __imp__WSAStartup@8        00602898     ws2_32:WS2_32.dll
 0004:0000089c       __imp__WSACleanup@0        0060289c     ws2_32:WS2_32.dll
 0004:000008a0       __imp__WSAAsyncSelect@16   006028a0     ws2_32:WS2_32.dll
 0004:000008a4       __imp__recv@16             006028a4     ws2_32:WS2_32.dll
 0004:000008a8       __imp__listen@8            006028a8     ws2_32:WS2_32.dll
 0004:000008ac       __imp__ioctlsocket@12      006028ac     ws2_32:WS2_32.dll
 0004:000008b0       __imp__bind@12             006028b0     ws2_32:WS2_32.dll
 0004:000008b4       __imp__accept@12           006028b4     ws2_32:WS2_32.dll
 0004:000008b8       __imp__WSAGetLastError@0   006028b8     ws2_32:WS2_32.dll
 0004:000008bc       __imp__gethostbyname@4     006028bc     ws2_32:WS2_32.dll
 0004:000008c0       __imp__socket@12           006028c0     ws2_32:WS2_32.dll
 0004:000008c4       __imp__shutdown@8          006028c4     ws2_32:WS2_32.dll
 0004:000008c8       __imp____WSAFDIsSet@8      006028c8     ws2_32:WS2_32.dll
 0004:000008cc       __imp__closesocket@4       006028cc     ws2_32:WS2_32.dll
 0004:000008d0       __imp__connect@12          006028d0     ws2_32:WS2_32.dll
 0004:000008d4       __imp__setsockopt@20       006028d4     ws2_32:WS2_32.dll
 0004:000008d8       __imp__send@16             006028d8     ws2_32:WS2_32.dll
 0004:000008dc       __imp__select@20           006028dc     ws2_32:WS2_32.dll
 0004:000008e0       __imp__inet_addr@4         006028e0     ws2_32:WS2_32.dll
 0004:000008e4       __imp__htons@4             006028e4     ws2_32:WS2_32.dll
 0004:000008e8       __imp__getpeername@12      006028e8     ws2_32:WS2_32.dll
 0004:000008ec       \177WS2_32_NULL_THUNK_DATA 006028ec     ws2_32:WS2_32.dll
 0004:00000928       __imp__jpeg_std_error      00602928     libjpeg-turbo-win:libjpeg-turbo-win.dll
 0004:0000092c       __imp__jpeg_CreateDecompress 0060292c     libjpeg-turbo-win:libjpeg-turbo-win.dll
 0004:00000930       __imp__jpeg_destroy_decompress 00602930     libjpeg-turbo-win:libjpeg-turbo-win.dll
 0004:00000934       __imp__jpeg_read_header    00602934     libjpeg-turbo-win:libjpeg-turbo-win.dll
 0004:00000938       __imp__jpeg_start_decompress 00602938     libjpeg-turbo-win:libjpeg-turbo-win.dll
 0004:0000093c       __imp__jpeg_read_scanlines 0060293c     libjpeg-turbo-win:libjpeg-turbo-win.dll
 0004:00000940       __imp__jpeg_finish_decompress 00602940     libjpeg-turbo-win:libjpeg-turbo-win.dll
 0004:00000944       __imp__jpeg_resync_to_restart 00602944     libjpeg-turbo-win:libjpeg-turbo-win.dll
 0004:00000948       \177libjpeg-turbo-win_NULL_THUNK_DATA 00602948     libjpeg-turbo-win:libjpeg-turbo-win.dll
 0004:00000978       __IMPORT_DESCRIPTOR_COMCTL32 00602978     comctl32:COMCTL32.dll
 0004:0000098c       __IMPORT_DESCRIPTOR_WINMM  0060298c     winmm:WINMM.dll
 0004:000009a0       __IMPORT_DESCRIPTOR_WS2_32 006029a0     ws2_32:WS2_32.dll
 0004:000009b4       __IMPORT_DESCRIPTOR_KERNEL32 006029b4     kernel32:KERNEL32.dll
 0004:000009c8       __IMPORT_DESCRIPTOR_USER32 006029c8     user32:USER32.dll
 0004:000009dc       __IMPORT_DESCRIPTOR_GDI32  006029dc     gdi32:GDI32.dll
 0004:000009f0       __IMPORT_DESCRIPTOR_COMDLG32 006029f0     comdlg32:COMDLG32.dll
 0004:00000a04       __IMPORT_DESCRIPTOR_ADVAPI32 00602a04     advapi32:ADVAPI32.dll
 0004:00000a18       __IMPORT_DESCRIPTOR_SHELL32 00602a18     shell32:SHELL32.dll
 0004:00000a2c       __IMPORT_DESCRIPTOR_libjpeg-turbo-win 00602a2c     libjpeg-turbo-win:libjpeg-turbo-win.dll
 0004:00000a40       __IMPORT_DESCRIPTOR_IMM32  00602a40     imm32:IMM32.dll
 0004:00000a54       __NULL_IMPORT_DESCRIPTOR   00602a54     comctl32:COMCTL32.dll
